 PDC Linker 7.2.
  Module 'Exe\KURS.exe' Map. Tue May 18 15:12:42 2010

Frame 001000   Size 0BEC00.  Name=<   .text>, 	Chars=60000020h. [CER]
Frame 0C0000   Size 097B80.  Name=<  .rdata>, 	Chars=40000040h. [IR]
Frame 158000   Size 001290.  Name=<  VIPini>, 	Chars=40000040h. [IR]
Frame 15A000   Size 000010.  Name=<  VIPsym>, 	Chars=40000040h. [IR]
Frame 15B000   Size 001B30.  Name=<  VIPtpl>, 	Chars=40000040h. [IR]
Frame 15D000   Size 0002A0.  Name=<   .data>, 	Chars=C0000040h. [IRW]
Frame 15E000   Size 000380.  Name=<  PRODBG>, 	Chars=40000040h. [IR]
Frame 15F000   Size 000180.  Name=< .gcroot>, 	Chars=C0000040h. [IRW]

	--- S e g m e n t s : ---

Frame 001000   Size 0BEC00.  Name=<   .text>, 	Chars=60000020h. [CER]
001000:000000 0BEC00   .text::CODE::<no group> F=4
   001000   Module 'Obj\formdocs.obj'
   003950   Module 'Obj\formhelp.obj'
   006100   Module 'Obj\locale_api.obj'
   006270   Module 'Obj\registry.obj'
   006EE0   Module 'Obj\string8_api.obj'
   007170   Module 'Obj\regexp.obj'
   0077B0   Module 'Obj\registry_api.obj'
   008BD0   Module 'Obj\formnewclientfiz.obj'
   0112A0   Module 'Obj\formnewclientyur.obj'
   018010   Module 'Obj\formclientfiz.obj'
   01B590   Module 'Obj\formclientyur.obj'
   01E520   Module 'Obj\forms.obj'
   025AF0   Module 'Obj\tabcontrol.obj'
   02BAF0   Module 'Obj\controlsupport.obj'
   0399C0   Module 'Obj\templateexpander.obj'
   039BA0   Module 'Obj\errorpresentationdialog.obj'
   03D0F0   Module 'Obj\multithread.obj'
   03EE70   Module 'Obj\multithread_api.obj'
   03FA10   Module 'Obj\outputstreamsupport.obj'
   03FF70   Module 'Obj\vpieditor.obj'
   041690   Module 'Obj\inputstreamsupport.obj'
   0419B0   Module 'Obj\string8.obj'
   041CE0   Module 'Obj\string.obj'
   047400   Module 'Obj\filesystem_api.obj'
   0494E0   Module 'Obj\memory_api.obj'
   049510   Module 'Obj\runtime_api.obj'
   04A060   Module 'Obj\time_api.obj'
   04B7D0   Module 'Obj\exceptiondump.obj'
   04D0A0   Module 'Obj\math.obj'
   04E4F0   Module 'Obj\gui_api.obj'
   04E840   Module 'Obj\filesystem.obj'
   0578D0   Module 'Obj\systeminformation_api.obj'
   05A8C0   Module 'Obj\boolean.obj'
   05AA00   Module 'Obj\vpitoolbar.obj'
   064290   Module 'Obj\vpidomains.obj'
   0642B0   Module 'Obj\controls.obj'
   080310   Module 'Obj\gui.obj'
   0A33A0   Module 'Obj\guisupport.obj'
   0A4950   Module 'Obj\messagecontrol.obj'
   0A9550   Module 'Obj\stream.obj'
   0AA210   Module 'Obj\binary.obj'
   0AF1F0   Module 'Obj\list.obj'
   0B1170   Module 'Obj\memory.obj'
   0B2430   Module 'Obj\namedvalue.obj'
   0B3280   Module 'Obj\std.obj'
   0B3810   Module 'Obj\toolbars.obj'
   0B38A0   Module 'Obj\taskwindow.obj'
   0B6AA0   Module 'Obj\core.obj'
   0B7930   Module 'Obj\exception.obj'
   0BB150   Module 'Obj\programcontrol.obj'
   0BB260   Module 'Obj\vpi.obj'
   0BF040   Module 'Obj\exe.obj'
   0BF560   Module 'Obj\exe_api.obj'
   0BF9A0   Module 'Obj\main.obj'
   0BFA00   Module '.\ReleasePE\VIPMain.obj'
   0BFA70   Module '.\ReleasePE\VIPDll.obj'
   0BFBE0   Module '.\ReleasePE\VIPPE.obj'

Frame 0C0000   Size 097B80.  Name=<  .rdata>, 	Chars=40000040h. [IR]
0C0000:000000 0053A0   VIPInter::VIPInter::.rdata F=4
   0C0000   Module 'Obj\locale_api.obj'
   0C0240   Module 'Obj\registry.obj'
   0C0950   Module 'Obj\regexp.obj'
   0C09E0   Module 'Obj\registry_api.obj'
   0C0B70   Module 'Obj\formnewclientfiz.obj'
   0C3930   Module 'Obj\formnewclientyur.obj'
   0C3A10   Module 'Obj\formclientfiz.obj'
   0C3AD0   Module 'Obj\formclientyur.obj'
   0C3B90   Module 'Obj\forms.obj'
   0C44D0   Module 'Obj\tabcontrol.obj'
   0C45C0   Module 'Obj\errorpresentationdialog.obj'
   0C46D0   Module 'Obj\multithread.obj'
   0C4B60   Module 'Obj\outputstreamsupport.obj'
   0C4EC0   Module 'Obj\messagecontrol.obj'
   0C5100   Module 'Obj\taskwindow.obj'
0C0000:0053A0 074990   VIPClass::VIPClass::.rdata F=4
   0C53A0   Module 'Obj\formdocs.obj'
   0C85F0   Module 'Obj\formhelp.obj'
   0CB7A0   Module 'Obj\locale_api.obj'
   0CB8C0   Module 'Obj\registry.obj'
   0CBAA0   Module 'Obj\string8_api.obj'
   0CBBD0   Module 'Obj\regexp.obj'
   0CBD70   Module 'Obj\registry_api.obj'
   0CC070   Module 'Obj\formnewclientfiz.obj'
   0CFA40   Module 'Obj\formnewclientyur.obj'
   0D32D0   Module 'Obj\formclientfiz.obj'
   0D67E0   Module 'Obj\formclientyur.obj'
   0D9C00   Module 'Obj\forms.obj'
   0E2830   Module 'Obj\tabcontrol.obj'
   0E60D0   Module 'Obj\controlsupport.obj'
   0F3F80   Module 'Obj\templateexpander.obj'
   0F4010   Module 'Obj\errorpresentationdialog.obj'
   0F6AE0   Module 'Obj\multithread.obj'
   0F77B0   Module 'Obj\multithread_api.obj'
   0F7B30   Module 'Obj\outputstreamsupport.obj'
   0F7D80   Module 'Obj\vpieditor.obj'
   0F8740   Module 'Obj\inputstreamsupport.obj'
   0F8910   Module 'Obj\string8.obj'
   0F8A00   Module 'Obj\string_api.obj'
   0F8A90   Module 'Obj\string.obj'
   0F9830   Module 'Obj\filesystem_api.obj'
   0FA2C0   Module 'Obj\windowsapi.obj'
   0FA3B0   Module 'Obj\memory_api.obj'
   0FA5E0   Module 'Obj\runtime_api.obj'
   0FA720   Module 'Obj\time_api.obj'
   0FAA90   Module 'Obj\exceptiondump.obj'
   0FAB30   Module 'Obj\math.obj'
   0FAC90   Module 'Obj\gui_api.obj'
   0FB740   Module 'Obj\filesystem.obj'
   0FCD10   Module 'Obj\systeminformation_api.obj'
   0FD6C0   Module 'Obj\boolean.obj'
   0FD720   Module 'Obj\vpitoolbar.obj'
   0FE000   Module 'Obj\vpidomains.obj'
   0FF2A0   Module 'Obj\controls.obj'
   119860   Module 'Obj\gui.obj'
   12D300   Module 'Obj\guisupport.obj'
   12D890   Module 'Obj\messagecontrol.obj'
   132870   Module 'Obj\stream.obj'
   132B50   Module 'Obj\binary.obj'
   133680   Module 'Obj\list.obj'
   1336D0   Module 'Obj\memory.obj'
   133F70   Module 'Obj\namedvalue.obj'
   133FE0   Module 'Obj\std.obj'
   134030   Module 'Obj\toolbars.obj'
   134140   Module 'Obj\taskwindow.obj'
   137D70   Module 'Obj\core.obj'
   138880   Module 'Obj\exception.obj'
   139070   Module 'Obj\programcontrol.obj'
   1391F0   Module 'Obj\vpi.obj'
   1394F0   Module 'Obj\exe.obj'
   139560   Module 'Obj\exe_api.obj'
   1397B0   Module 'Obj\main.obj'
0C0000:079D30 01DE4C   .rdata::.rdata::.rdata F=4
   139D30   Module 'Obj\formdocs.obj'
   13A110   Module 'Obj\formhelp.obj'
   13A3C0   Module 'Obj\locale_api.obj'
   13A560   Module 'Obj\registry.obj'
   13A9E0   Module 'Obj\string8_api.obj'
   13AB90   Module 'Obj\regexp.obj'
   13AD60   Module 'Obj\registry_api.obj'
   13B0D0   Module 'Obj\formnewclientfiz.obj'
   13D4C0   Module 'Obj\formnewclientyur.obj'
   13ECF0   Module 'Obj\formclientfiz.obj'
   13EFB0   Module 'Obj\formclientyur.obj'
   13F200   Module 'Obj\forms.obj'
   13F550   Module 'Obj\tabcontrol.obj'
   13F960   Module 'Obj\controlsupport.obj'
   1403C0   Module 'Obj\templateexpander.obj'
   1404C0   Module 'Obj\errorpresentationdialog.obj'
   140A50   Module 'Obj\multithread.obj'
   141280   Module 'Obj\multithread_api.obj'
   1416F0   Module 'Obj\outputstreamsupport.obj'
   1418D0   Module 'Obj\vpieditor.obj'
   1425C0   Module 'Obj\inputstreamsupport.obj'
   1427A0   Module 'Obj\string8.obj'
   142890   Module 'Obj\string_api.obj'
   142900   Module 'Obj\string.obj'
   143310   Module 'Obj\filesystem_api.obj'
   1438F0   Module 'Obj\windowsapi.obj'
   143950   Module 'Obj\memory_api.obj'
   1439F0   Module 'Obj\runtime_api.obj'
   1443A0   Module 'Obj\time_api.obj'
   1448D0   Module 'Obj\exceptiondump.obj'
   144DA0   Module 'Obj\math.obj'
   1452D0   Module 'Obj\gui_api.obj'
   145510   Module 'Obj\filesystem.obj'
   146530   Module 'Obj\systeminformation_api.obj'
   146710   Module 'Obj\boolean.obj'
   1467D0   Module 'Obj\vpitoolbar.obj'
   146AC0   Module 'Obj\vpidomains.obj'
   146BB0   Module 'Obj\controls.obj'
   1492F0   Module 'Obj\gui.obj'
   14D4E0   Module 'Obj\guisupport.obj'
   14DAA0   Module 'Obj\messagecontrol.obj'
   14DE60   Module 'Obj\stream.obj'
   14E6B0   Module 'Obj\binary.obj'
   14EE00   Module 'Obj\list.obj'
   14F050   Module 'Obj\memory.obj'
   14F120   Module 'Obj\namedvalue.obj'
   14F3D0   Module 'Obj\std.obj'
   14F470   Module 'Obj\toolbars.obj'
   14F9F0   Module 'Obj\taskwindow.obj'
   150100   Module 'Obj\core.obj'
   150420   Module 'Obj\exception.obj'
   153690   Module 'Obj\programcontrol.obj'
   1537C0   Module 'Obj\vpi.obj'
   157780   Module 'Obj\exe.obj'
   1578F0   Module 'Obj\exe_api.obj'
   157A80   Module 'Obj\main.obj'
   157AD0   Module '.\ReleasePE\VIPPE.obj'

Frame 158000   Size 001290.  Name=<  VIPini>, 	Chars=40000040h. [IR]
158000:000000 000004   VIPini$A::VIPini$A::VIPini F=4
   158000   Module 'Obj\main.obj'
158000:000004 0003AC   VIPini$C::VIPini$C::VIPini F=4
   158004   Module 'Obj\formdocs.obj'
   158008   Module 'Obj\formhelp.obj'
   15800C   Module 'Obj\locale_api.obj'
   158020   Module 'Obj\registry.obj'
   158048   Module 'Obj\string8_api.obj'
   158050   Module 'Obj\regexp.obj'
   15805C   Module 'Obj\registry_api.obj'
   15806C   Module 'Obj\formnewclientfiz.obj'
   158118   Module 'Obj\formnewclientyur.obj'
   158120   Module 'Obj\formclientfiz.obj'
   158128   Module 'Obj\formclientyur.obj'
   158130   Module 'Obj\forms.obj'
   158164   Module 'Obj\tabcontrol.obj'
   158178   Module 'Obj\controlsupport.obj'
   158190   Module 'Obj\templateexpander.obj'
   158194   Module 'Obj\errorpresentationdialog.obj'
   15819C   Module 'Obj\multithread.obj'
   1581D8   Module 'Obj\multithread_api.obj'
   1581E0   Module 'Obj\outputstreamsupport.obj'
   1581F4   Module 'Obj\vpieditor.obj'
   1581FC   Module 'Obj\inputstreamsupport.obj'
   158200   Module 'Obj\string8.obj'
   158204   Module 'Obj\string_api.obj'
   158208   Module 'Obj\string.obj'
   15821C   Module 'Obj\filesystem_api.obj'
   158224   Module 'Obj\windowsapi.obj'
   158228   Module 'Obj\memory_api.obj'
   15822C   Module 'Obj\runtime_api.obj'
   158230   Module 'Obj\time_api.obj'
   158238   Module 'Obj\exceptiondump.obj'
   15823C   Module 'Obj\math.obj'
   158244   Module 'Obj\gui_api.obj'
   15824C   Module 'Obj\filesystem.obj'
   15826C   Module 'Obj\systeminformation_api.obj'
   158274   Module 'Obj\boolean.obj'
   158278   Module 'Obj\vpitoolbar.obj'
   15827C   Module 'Obj\vpidomains.obj'
   158284   Module 'Obj\controls.obj'
   1582D0   Module 'Obj\gui.obj'
   1582FC   Module 'Obj\guisupport.obj'
   158308   Module 'Obj\messagecontrol.obj'
   158318   Module 'Obj\stream.obj'
   158324   Module 'Obj\binary.obj'
   158338   Module 'Obj\list.obj'
   15833C   Module 'Obj\memory.obj'
   158348   Module 'Obj\namedvalue.obj'
   15834C   Module 'Obj\std.obj'
   158350   Module 'Obj\toolbars.obj'
   158358   Module 'Obj\taskwindow.obj'
   158370   Module 'Obj\core.obj'
   158374   Module 'Obj\exception.obj'
   158388   Module 'Obj\programcontrol.obj'
   15838C   Module 'Obj\vpi.obj'
   158398   Module 'Obj\exe.obj'
   15839C   Module 'Obj\exe_api.obj'
   1583A4   Module 'Obj\main.obj'
158000:0003B0 000008   VIPini$E::VIPini$E::VIPini F=4
   1583B0   Module 'Obj\main.obj'

Frame 15A000   Size 000010.  Name=<  VIPsym>, 	Chars=40000040h. [IR]
15A000:000000 000004   VIPsym$A::VIPsym$A::VIPsym F=4
   15A000   Module 'Obj\main.obj'
15A000:000004 000000   VIPsym$C::VIPsym$C::VIPsym F=4
   15A004   Module 'Obj\formdocs.obj'
   15A004   Module 'Obj\formhelp.obj'
   15A004   Module 'Obj\locale_api.obj'
   15A004   Module 'Obj\registry.obj'
   15A004   Module 'Obj\string8_api.obj'
   15A004   Module 'Obj\regexp.obj'
   15A004   Module 'Obj\registry_api.obj'
   15A004   Module 'Obj\formnewclientfiz.obj'
   15A004   Module 'Obj\formnewclientyur.obj'
   15A004   Module 'Obj\formclientfiz.obj'
   15A004   Module 'Obj\formclientyur.obj'
   15A004   Module 'Obj\forms.obj'
   15A004   Module 'Obj\tabcontrol.obj'
   15A004   Module 'Obj\controlsupport.obj'
   15A004   Module 'Obj\templateexpander.obj'
   15A004   Module 'Obj\errorpresentationdialog.obj'
   15A004   Module 'Obj\multithread.obj'
   15A004   Module 'Obj\multithread_api.obj'
   15A004   Module 'Obj\outputstreamsupport.obj'
   15A004   Module 'Obj\vpieditor.obj'
   15A004   Module 'Obj\inputstreamsupport.obj'
   15A004   Module 'Obj\string8.obj'
   15A004   Module 'Obj\string_api.obj'
   15A004   Module 'Obj\string.obj'
   15A004   Module 'Obj\filesystem_api.obj'
   15A004   Module 'Obj\windowsapi.obj'
   15A004   Module 'Obj\memory_api.obj'
   15A004   Module 'Obj\runtime_api.obj'
   15A004   Module 'Obj\time_api.obj'
   15A004   Module 'Obj\exceptiondump.obj'
   15A004   Module 'Obj\math.obj'
   15A004   Module 'Obj\gui_api.obj'
   15A004   Module 'Obj\filesystem.obj'
   15A004   Module 'Obj\systeminformation_api.obj'
   15A004   Module 'Obj\boolean.obj'
   15A004   Module 'Obj\vpitoolbar.obj'
   15A004   Module 'Obj\vpidomains.obj'
   15A004   Module 'Obj\controls.obj'
   15A004   Module 'Obj\gui.obj'
   15A004   Module 'Obj\guisupport.obj'
   15A004   Module 'Obj\messagecontrol.obj'
   15A004   Module 'Obj\stream.obj'
   15A004   Module 'Obj\binary.obj'
   15A004   Module 'Obj\list.obj'
   15A004   Module 'Obj\memory.obj'
   15A004   Module 'Obj\namedvalue.obj'
   15A004   Module 'Obj\std.obj'
   15A004   Module 'Obj\toolbars.obj'
   15A004   Module 'Obj\taskwindow.obj'
   15A004   Module 'Obj\core.obj'
   15A004   Module 'Obj\exception.obj'
   15A004   Module 'Obj\programcontrol.obj'
   15A004   Module 'Obj\vpi.obj'
   15A004   Module 'Obj\exe.obj'
   15A004   Module 'Obj\exe_api.obj'
   15A004   Module 'Obj\main.obj'
15A000:000004 000008   VIPsym$E::VIPsym$E::VIPsym F=4
   15A004   Module 'Obj\main.obj'

Frame 15B000   Size 001B30.  Name=<  VIPtpl>, 	Chars=40000040h. [IR]
15B000:000000 000004   VIPtpl$A::VIPtpl$A::VIPtpl F=4
   15B000   Module 'Obj\main.obj'
15B000:000004 001B20   VIPtpl$C::VIPtpl$C::VIPtpl F=4
   15B004   Module 'Obj\formdocs.obj'
   15B008   Module 'Obj\formhelp.obj'
   15B008   Module 'Obj\locale_api.obj'
   15B014   Module 'Obj\registry.obj'
   15B04C   Module 'Obj\string8_api.obj'
   15B060   Module 'Obj\regexp.obj'
   15B09C   Module 'Obj\registry_api.obj'
   15B0EC   Module 'Obj\formnewclientfiz.obj'
   15B234   Module 'Obj\formnewclientyur.obj'
   15B37C   Module 'Obj\formclientfiz.obj'
   15B38C   Module 'Obj\formclientyur.obj'
   15B4D0   Module 'Obj\forms.obj'
   15B650   Module 'Obj\tabcontrol.obj'
   15B7B4   Module 'Obj\controlsupport.obj'
   15B900   Module 'Obj\templateexpander.obj'
   15B938   Module 'Obj\errorpresentationdialog.obj'
   15B94C   Module 'Obj\multithread.obj'
   15B994   Module 'Obj\multithread_api.obj'
   15B9B8   Module 'Obj\outputstreamsupport.obj'
   15BA00   Module 'Obj\vpieditor.obj'
   15BA4C   Module 'Obj\inputstreamsupport.obj'
   15BA88   Module 'Obj\string8.obj'
   15BAA0   Module 'Obj\string_api.obj'
   15BAD8   Module 'Obj\string.obj'
   15BB40   Module 'Obj\filesystem_api.obj'
   15BBCC   Module 'Obj\windowsapi.obj'
   15BBDC   Module 'Obj\memory_api.obj'
   15BBF4   Module 'Obj\runtime_api.obj'
   15BC34   Module 'Obj\time_api.obj'
   15BC58   Module 'Obj\exceptiondump.obj'
   15BC8C   Module 'Obj\math.obj'
   15BCAC   Module 'Obj\gui_api.obj'
   15BD1C   Module 'Obj\filesystem.obj'
   15BDC4   Module 'Obj\systeminformation_api.obj'
   15BE10   Module 'Obj\boolean.obj'
   15BE1C   Module 'Obj\vpitoolbar.obj'
   15BE74   Module 'Obj\vpidomains.obj'
   15BEDC   Module 'Obj\controls.obj'
   15C098   Module 'Obj\gui.obj'
   15C25C   Module 'Obj\guisupport.obj'
   15C3B0   Module 'Obj\messagecontrol.obj'
   15C51C   Module 'Obj\stream.obj'
   15C554   Module 'Obj\binary.obj'
   15C5A8   Module 'Obj\list.obj'
   15C5BC   Module 'Obj\memory.obj'
   15C624   Module 'Obj\namedvalue.obj'
   15C658   Module 'Obj\std.obj'
   15C664   Module 'Obj\toolbars.obj'
   15C664   Module 'Obj\taskwindow.obj'
   15C7EC   Module 'Obj\core.obj'
   15C884   Module 'Obj\exception.obj'
   15C8DC   Module 'Obj\programcontrol.obj'
   15C8FC   Module 'Obj\vpi.obj'
   15C940   Module 'Obj\exe.obj'
   15C978   Module 'Obj\exe_api.obj'
   15C9BC   Module 'Obj\main.obj'
15B000:001B24 000008   VIPtpl$E::VIPtpl$E::VIPtpl F=4
   15CB24   Module 'Obj\main.obj'

Frame 15D000   Size 0002A0.  Name=<   .data>, 	Chars=C0000040h. [IRW]
15D000:000000 000288   .data::DATA::DGROUP F=4
   15D000   Module 'Obj\formdocs.obj'
   15D008   Module 'Obj\formhelp.obj'
   15D010   Module 'Obj\regexp.obj'
   15D018   Module 'Obj\formnewclientfiz.obj'
   15D020   Module 'Obj\formnewclientyur.obj'
   15D028   Module 'Obj\formclientfiz.obj'
   15D030   Module 'Obj\formclientyur.obj'
   15D038   Module 'Obj\forms.obj'
   15D050   Module 'Obj\tabcontrol.obj'
   15D070   Module 'Obj\controlsupport.obj'
   15D0A4   Module 'Obj\errorpresentationdialog.obj'
   15D0B8   Module 'Obj\multithread.obj'
   15D0F8   Module 'Obj\outputstreamsupport.obj'
   15D100   Module 'Obj\vpieditor.obj'
   15D108   Module 'Obj\inputstreamsupport.obj'
   15D110   Module 'Obj\string.obj'
   15D120   Module 'Obj\memory_api.obj'
   15D124   Module 'Obj\runtime_api.obj'
   15D128   Module 'Obj\time_api.obj'
   15D12C   Module 'Obj\filesystem.obj'
   15D144   Module 'Obj\controls.obj'
   15D1D4   Module 'Obj\gui.obj'
   15D228   Module 'Obj\guisupport.obj'
   15D238   Module 'Obj\messagecontrol.obj'
   15D248   Module 'Obj\stream.obj'
   15D250   Module 'Obj\binary.obj'
   15D260   Module 'Obj\memory.obj'
   15D268   Module 'Obj\taskwindow.obj'
   15D278   Module 'Obj\exception.obj'
   15D280   Module 'Obj\vpi.obj'
15D000:000288 00000C   .bss::BSS::DGROUP F=4
   15D288   Module '.\ReleasePE\VIPDll.obj'

Frame 15E000   Size 000380.  Name=<  PRODBG>, 	Chars=40000040h. [IR]
15E000:000000 000380   PRODBG::PRODBG::PRODBG F=4
   15E000   Module 'Obj\formdocs.obj'
   15E010   Module 'Obj\formhelp.obj'
   15E020   Module 'Obj\locale_api.obj'
   15E030   Module 'Obj\registry.obj'
   15E040   Module 'Obj\string8_api.obj'
   15E050   Module 'Obj\regexp.obj'
   15E060   Module 'Obj\registry_api.obj'
   15E070   Module 'Obj\formnewclientfiz.obj'
   15E080   Module 'Obj\formnewclientyur.obj'
   15E090   Module 'Obj\formclientfiz.obj'
   15E0A0   Module 'Obj\formclientyur.obj'
   15E0B0   Module 'Obj\forms.obj'
   15E0C0   Module 'Obj\tabcontrol.obj'
   15E0D0   Module 'Obj\controlsupport.obj'
   15E0E0   Module 'Obj\templateexpander.obj'
   15E0F0   Module 'Obj\errorpresentationdialog.obj'
   15E100   Module 'Obj\multithread.obj'
   15E110   Module 'Obj\multithread_api.obj'
   15E120   Module 'Obj\outputstreamsupport.obj'
   15E130   Module 'Obj\vpieditor.obj'
   15E140   Module 'Obj\inputstreamsupport.obj'
   15E150   Module 'Obj\string8.obj'
   15E160   Module 'Obj\string_api.obj'
   15E170   Module 'Obj\string.obj'
   15E180   Module 'Obj\filesystem_api.obj'
   15E190   Module 'Obj\windowsapi.obj'
   15E1A0   Module 'Obj\memory_api.obj'
   15E1B0   Module 'Obj\runtime_api.obj'
   15E1C0   Module 'Obj\time_api.obj'
   15E1D0   Module 'Obj\exceptiondump.obj'
   15E1E0   Module 'Obj\math.obj'
   15E1F0   Module 'Obj\gui_api.obj'
   15E200   Module 'Obj\filesystem.obj'
   15E210   Module 'Obj\systeminformation_api.obj'
   15E220   Module 'Obj\boolean.obj'
   15E230   Module 'Obj\vpitoolbar.obj'
   15E240   Module 'Obj\vpidomains.obj'
   15E250   Module 'Obj\controls.obj'
   15E260   Module 'Obj\gui.obj'
   15E270   Module 'Obj\guisupport.obj'
   15E280   Module 'Obj\messagecontrol.obj'
   15E290   Module 'Obj\stream.obj'
   15E2A0   Module 'Obj\binary.obj'
   15E2B0   Module 'Obj\list.obj'
   15E2C0   Module 'Obj\memory.obj'
   15E2D0   Module 'Obj\namedvalue.obj'
   15E2E0   Module 'Obj\std.obj'
   15E2F0   Module 'Obj\toolbars.obj'
   15E300   Module 'Obj\taskwindow.obj'
   15E310   Module 'Obj\core.obj'
   15E320   Module 'Obj\exception.obj'
   15E330   Module 'Obj\programcontrol.obj'
   15E340   Module 'Obj\vpi.obj'
   15E350   Module 'Obj\exe.obj'
   15E360   Module 'Obj\exe_api.obj'
   15E370   Module 'Obj\main.obj'

Frame 15F000   Size 000180.  Name=< .gcroot>, 	Chars=C0000040h. [IRW]
15F000:000000 00017C   .gcroot::.gcroot::.gcroot F=4
   15F000   Module 'Obj\formnewclientfiz.obj'
   15F010   Module 'Obj\formnewclientyur.obj'
   15F020   Module 'Obj\formclientfiz.obj'
   15F030   Module 'Obj\formclientyur.obj'
   15F040   Module 'Obj\forms.obj'
   15F060   Module 'Obj\tabcontrol.obj'
   15F068   Module 'Obj\errorpresentationdialog.obj'
   15F094   Module 'Obj\multithread.obj'
   15F0A0   Module 'Obj\vpieditor.obj'
   15F0A8   Module 'Obj\runtime_api.obj'
   15F0AC   Module 'Obj\vpitoolbar.obj'
   15F120   Module 'Obj\controls.obj'
   15F150   Module 'Obj\gui.obj'
   15F15C   Module 'Obj\stream.obj'
   15F160   Module 'Obj\vpi.obj'

	     ------- Names by value Map ---------
Frame 001000   Size 0BEC00.  Name=<   .text>, 	Chars=60000020h. [CER]
001000:000000 0BEC00   .text::CODE::<no group> F=4
--- From 'Obj\formdocs.obj'
01:00001000 ?classInfo@formDocs_class@@SAXPAPB_W0@Z  (Idle)
01:0000101C ?_display@formDocs_class@@SAXQAVwindow@@@PAPAVformDocs@@@@Z  (Idle)
01:00001044 ?new@formDocs_class@@SAXQAVformDocs@@@QAVwindow@@@@Z 
01:00001064 ?onShow@formDocs_class@@SAXQAVformDocs@@@QAVwindow@@@H@Z 
01:000010A8 ?generatedInitialize@formDocs_class@@SAXQAVformDocs@@@@Z 
01:00001384 ?generatedOnShow@formDocs_class@@SAXQAVformDocs@@@QAVwindow@@@H@Z 
--- From 'Obj\taskwindow.obj'
01:0000138C ?_new@formDocs_class@@SAXQAVwindow@@@PAPAVformDocs@@@@Z 
--- From 'Obj\formdocs.obj'
01:000038EC formDocs?_initObject@@@QAGXQAV1@H@Z 
01:00003924 ?@create_object@formDocs_class@@SGQAVformDocs@@@XZ 
01:00003940 formDocs?_InternalFinalizer@@@QAGXQAV1@@Z 
--- From 'Obj\formhelp.obj'
01:00003950 ?classInfo@formHelp_class@@SAXPAPB_W0@Z  (Idle)
01:0000396C ?_display@formHelp_class@@SAXQAVwindow@@@PAPAVformHelp@@@@Z  (Idle)
01:00003994 ?new@formHelp_class@@SAXQAVformHelp@@@QAVwindow@@@@Z 
01:000039B4 ?generatedInitialize@formHelp_class@@SAXQAVformHelp@@@@Z 
01:00003B30 ?generatedOnShow@formHelp_class@@SAXQAVformHelp@@@QAVwindow@@@H@Z 
--- From 'Obj\taskwindow.obj'
01:00003B38 ?_new@formHelp_class@@SAXQAVwindow@@@PAPAVformHelp@@@@Z 
--- From 'Obj\formhelp.obj'
01:00006098 formHelp?_initObject@@@QAGXQAV1@H@Z 
01:000060CC ?@create_object@formHelp_class@@SGQAVformHelp@@@XZ 
01:000060E8 formHelp?_InternalFinalizer@@@QAGXQAV1@@Z 
--- From 'Obj\locale_api.obj'
01:00006100 ?classInfo@locale_native_class@@SAXPAPB_W0@Z  (Idle)
01:0000611C ?classInfo@locale_api_class@@SAXPAPB_W0@Z  (Idle)
01:00006138 ?_makeLangId@locale_api_class@@SAXIIPAI@Z  (Idle)
01:00006160 ?_primaryLangId@locale_api_class@@SAXIPAI@Z  (Idle)
01:0000617C ?_subLangId@locale_api_class@@SAXIPAI@Z  (Idle)
01:00006198 ?_makeLcId@locale_api_class@@SAXIIPAI@Z  (Idle)
01:000061C0 ?_makeSortLcId@locale_api_class@@SAXIIIPAI@Z  (Idle)
01:0000620C ?_langIdFromLcId@locale_api_class@@SAXIPAI@Z  (Idle)
01:00006228 ?_sortIdFromLcId@locale_api_class@@SAXIPAI@Z  (Idle)
01:00006254 ?_sortVersionFromLcId@locale_api_class@@SAXIPAI@Z  (Idle)
--- From 'Obj\registry.obj'
01:00006270 ?classInfo@registry_exception_class@@SAXPAPB_W0@Z 
01:0000628C ?wrongValue@registry_exception_class@@SAXPAXPAPB_W1@Z 
01:000062B4 ?noPath@registry_exception_class@@SAXPAXPAPB_W1@Z 
01:000062DC ?cannotCreateKey@registry_exception_class@@SAXPAXPAPB_W1@Z 
01:00006304 ?raise_WrongValue@registry_exception_class@@SAXXPBUunsigned32@@PAUrootKey_struct@registry_class@@PB_W3@Z  (Idle)
01:00006484 ?raise_noPath@registry_exception_class@@SAXXPBUunsigned32@@PAUrootKey_struct@registry_class@@PB_W3@Z  (Idle)
01:00006604 ?raise_CannotCreateKey@registry_exception_class@@SAXXPBUunsigned32@@PAUrootKey_struct@registry_class@@PB_W@Z  (Idle)
01:00006734 ?_getSystemDescription@registry_exception_class@@SAXIPAPB_W@Z 
01:00006770 ?_getRootKeyName@registry_exception_class@@SAXPAUrootKey_struct@registry_class@@PAPB_W@Z 
01:000067DC ?classInfo@registry_class@@SAXPAPB_W0@Z 
01:000067F8 ?createKey@registry_class@@SAXPAUrootKey_struct@1@PB_W@Z  (Idle)
01:00006844 ?existKey@registry_class@@SAXPAUrootKey_struct@1@PB_W@Z  (Idle)
01:00006888 ?deleteKey@registry_class@@SAXPAUrootKey_struct@1@PB_W@Z 
01:000068D8 ?deleteKeyList@registry_class@@SAXPAUrootKey_struct@1@PB_WPAU?$__list_struct@Ustring@@@@@Z 
01:00006938 ?setValue@registry_class@@SAXPAUrootKey_struct@1@PB_WPAU?$__list_struct@UnamedValue@@@@@Z  (Idle)
01:00006A50 ?setValuesToKey@registry_class@@SAXPBUhkey@@PAU?$__list_struct@UnamedValue@@@@@Z 
--- From 'Obj\runtime_api.obj'
01:00006AA0 ?_getValue@registry_class@@SAXPAUrootKey_struct@1@PB_W1PAPAUvalue_struct@core_class@@@Z 
01:00006B48 ?_tryGetValue@registry_class@@SAXPAUrootKey_struct@1@PB_W1PAPAUvalue_struct@core_class@@@Z 
--- From 'Obj\registry.obj'
01:00006C40 ?removeValue@registry_class@@SAXPAUrootKey_struct@1@PB_WPAU?$__list_struct@Ustring@@@@@Z  (Idle)
01:00006CE4 ?removeListValues@registry_class@@SAXPBUhkey@@PAU?$__list_struct@Ustring@@@@@Z 
01:00006D2C ?_getSubkeys@registry_class@@SAXPAUrootKey_struct@1@PB_WPAPAU?$__list_struct@Ustring@@@@@Z 
01:00006DD0 ?_getAllValues@registry_class@@SAXPAUrootKey_struct@1@PB_WPAPAU?$__list_struct@UnamedValue@@@@@Z  (Idle)
01:00006E74 ?_getRootKeyHandle@registry_class@@SAXPAUrootKey_struct@1@AAUhkey@@@Z 
--- From 'Obj\string8_api.obj'
01:00006EE0 ?classInfo@string8_api_class@@SAXPAPB_W0@Z 
--- From 'Obj\filesystem.obj'
01:00006EFC ?toWideChar@string8_api_class@@SGXPAUcodePage_struct@core_class@@PADPBUbyteCountOptional@@PB_WPBUcharCount@@@Z 
01:00006F7C ?_lenWideChar@string8_api_class@@SAXPAUcodePage_struct@core_class@@PADPBUbyteCountOptional@@AAUcharCount@@@Z 
01:00007010 ?toMultiByte@string8_api_class@@SGXPAUcodePage_struct@core_class@@PB_WPBUcharCountOptional@@PADPBUbyteCount@@@Z 
01:00007094 ?_lenMultiByte@string8_api_class@@SAXPAUcodePage_struct@core_class@@PB_WPBUcharCountOptional@@AAUbyteCount@@@Z 
--- From 'Obj\string8_api.obj'
01:0000712C ?_toApiCodePage@string8_api_class@@SAXPAUcodePage_struct@core_class@@PAI@Z 
--- From 'Obj\regexp.obj'
01:00007170 ?classInfo@regExp_exception_class@@SAXPAPB_W0@Z 
01:0000718C ?invalidPattern@regExp_exception_class@@SAXPAXPAPB_W1@Z 
01:000071B4 ?classInfo@regExp_class@@SAXPAPB_W0@Z 
01:000071D0 ?checkRes@regExp_class@@SAXHPB_W@Z 
01:000072A8 ?new@regExp_class@@SAXQAVregExp@@@PB_WPAUboolean_struct@_builtIn_class@@@Z 
01:000072EC ?searchPos@regExp_class@@SAXQAVregExp@@@PB_WPBUcharCount@@HAAU3@4@Z 
01:00007328 ?search@regExp_class@@SAXQAVregExp@@@PB_WAAUcharCount@@2@Z 
01:00007364 ?match@regExp_class@@SAXQAVregExp@@@PB_WAAUcharCount@@2PAPAU?$__list_struct@Ustring@@@@@Z 
01:000073B4 ?matchPos@regExp_class@@SAXQAVregExp@@@PB_WPBUcharCount@@HAAU3@4PAPAU?$__list_struct@Ustring@@@@@Z 
01:00007408 ?_search_and_replace@regExp_class@@SAXQAVregExp@@@PB_WPBUcharCount@@H1AAU3@5PAPB_W@Z 
01:0000745C ?searchPos@regExp_class@@SAXPB_W0PAUboolean_struct@_builtIn_class@@PBUcharCount@@HAAU4@5@Z  (Idle)
01:000074A4 ?search@regExp_class@@SAXPB_W0AAUcharCount@@2@Z  (Idle)
01:000074D8 ?_replace@regExp_class@@SAXPB_W00PAPB_W@Z  (Idle)
01:0000753C ?_processString@regExp_class@@SAXPBUinfoData@@PB_W11PAPB_W@Z 
01:0000760C ?_search_and_replace@regExp_class@@SAXPB_W0PAUboolean_struct@_builtIn_class@@PBUcharCount@@H0AAU4@6PAPB_W@Z  (Idle)
01:00007698 ?_search_compile@regExp_class@@SAXPB_W0AAUcharCount@@2PAH@Z 
01:000076D0 ?_search_nocompile@regExp_class@@SAXPBUinfoData@@PB_WAAUcharCount@@2PAH@Z 
01:00007708 ?_match_nocompile@regExp_class@@SAXPBUinfoData@@PB_WPAPAU?$__list_struct@Ustring@@@@PAH@Z 
--- From 'Obj\templateexpander.obj'
01:0000773C ?_new@regExp_class@@SAXPB_WPAUboolean_struct@_builtIn_class@@PAPAVregExp@@@@Z 
--- From 'Obj\regexp.obj'
01:00007770 regExp?_initObject@@@QAGXQAV1@H@Z 
01:00007788 ?@create_object@regExp_class@@SGQAVregExp@@@XZ 
01:000077A4 regExp?_InternalFinalizer@@@QAGXQAV1@@Z 
--- From 'Obj\registry_api.obj'
01:000077B0 ?_regOpenKeyEx@registry_api_class@@SAXPBUhkey@@PB_WIAAU2@@Z 
01:000077FC ?_regTryOpenKeyEx@registry_api_class@@SAXPBUhkey@@PB_WIAAU2@@Z 
01:00007824 ?regCloseKey@registry_api_class@@SAXPBUhkey@@@Z 
01:000078B8 ?_regCreateKeyEx@registry_api_class@@SAXPBUhkey@@PB_WIIPAUsecurityAttr_struct@registry_native_class@@PAIAAU2@@Z 
01:00007904 ?regDeleteKey@registry_api_class@@SAXPBUhkey@@PB_W@Z 
01:0000794C ?_regEnumKeyEx@registry_api_class@@SAXPBUhkey@@PAPAU?$__list_struct@Ustring@@@@@Z 
01:000079E8 ?_regEnumKeyEx1@registry_api_class@@SAXPBUhKey@@IPB_WIPAPAU?$__list_struct@Ustring@@@@@Z 
01:00007A64 ?_tryRegEnumKeyExOne@registry_api_class@@SAXPBUhKey@@IPB_WIPAPB_W@Z 
01:00007BA0 ?regSetValueEx@registry_api_class@@SAXPBUhkey@@PB_WPAUvalue_struct@core_class@@@Z 
01:00007C14 ?_regQueryValueEx@registry_api_class@@SAXPBUhkey@@PB_WPAPAUvalue_struct@core_class@@@Z 
01:00007C8C ?_regTryQueryValueEx@registry_api_class@@SAXPBUhkey@@PB_WPAPAUvalue_struct@core_class@@@Z 
01:00007CF4 ?_regQueryValueEx1@registry_api_class@@SAXPBUhKey@@PB_WPAUpUnsigned_struct@registry_native_class@@PAPAUvalue_struct@core_class@@@Z 
01:00007D94 ?regDeleteValue@registry_api_class@@SAXPBUhkey@@PB_W@Z 
01:00007DD0 ?_regEnumValue@registry_api_class@@SAXPBUhkey@@PAPAU?$__list_struct@UnamedValue@@@@@Z 
01:00007E6C ?_regEnumValue1@registry_api_class@@SAXPBUhKey@@IPB_WIPAPAU?$__list_struct@UnamedValue@@@@@Z 
01:00007EE8 ?_tryRegEnumValueOne@registry_api_class@@SAXPBUhKey@@IPB_WIPAPAUnamedValue_struct@core_class@@@Z 
01:00008254 ?_packValue@registry_api_class@@SAXIPAXIPAPAUvalue_struct@core_class@@@Z 
01:00008500 ?unpackValue@registry_api_class@@SAXPAUvalue_struct@core_class@@PAIPAPAXPAI@Z 
01:00008960 ?_convertToStringList@registry_api_class@@SAXPAXPAPAU?$__list_struct@Ustring@@@@@Z 
01:000089F4 ?_mk_pUnsigned@registry_api_class@@SAXIPAPAUpUnsigned_struct@registry_native_class@@@Z 
01:00008A18 ?_getInteger@registry_api_class@@SAXPAUpUnsigned_struct@registry_native_class@@PAH@Z 
01:00008A40 ?_getUnsigned@registry_api_class@@SAXPAUpUnsigned_struct@registry_native_class@@PAI@Z 
01:00008A54 ?check_name_value@registry_api_class@@SAXIPB_W1PAUvalue_struct@core_class@@@Z 
01:00008B04 ?check_name@registry_api_class@@SAXIPB_W1@Z 
01:00008B84 ?check@registry_api_class@@SAXIPB_WPAU?$__list_struct@UnamedValue@@@@@Z 
01:00008BAC ?classInfo@registry_api_class@@SAXPAPB_W0@Z 
--- From 'Obj\formnewclientfiz.obj'
01:00008BD0 ?classInfo@formNewClientFiz_class@@SAXPAPB_W0@Z  (Idle)
01:00008BEC ?_display@formNewClientFiz_class@@SAXQAVwindow@@@PAPAVformNewClientFiz@@@@Z  (Idle)
01:00008C14 ?new@formNewClientFiz_class@@SAXQAVformNewClientFiz@@@QAVwindow@@@@Z 
01:00008C34 ?reconsult@formNewClientFiz_class@@SAXQAVformNewClientFiz@@@PB_W@Z 
01:00008C58 ?_onRassmClick@formNewClientFiz_class@@SAXQAVformNewClientFiz@@@QAVbutton@@@PAPAUactionResponse_struct@button_class@@@Z 
01:000099E4 ?result@formNewClientFiz_class@@SAXQAVformNewClientFiz@@@HHHHHHHHHHHPAU?$__list_struct@Upositive@@@@121212PB_W16H12121212PAHPAPB_W@Z 
01:0000AA64 ?print@formNewClientFiz_class@@SAXQAVformNewClientFiz@@@PB_W11111111111@Z 
01:0000AF38 ?obnul@formNewClientFiz_class@@SAXQAVformNewClientFiz@@@@Z 
01:0000B34C ?onShow@formNewClientFiz_class@@SAXQAVformNewClientFiz@@@QAVwindow@@@H@Z 
01:0000B394 ?listAdd@formNewClientFiz_class@@SAXQAVformNewClientFiz@@@@Z 
01:0000B550 ?nomer@formNewClientFiz_class@@SAXQAVformNewClientFiz@@@PAU?$__list_struct@Ustring@@@@PB_WHPAH@Z 
01:0000B5CC ?print@formNewClientFiz_class@@SAXQAVformNewClientFiz@@@@Z 
01:0000B65C ?info@formNewClientFiz_class@@SAXQAVformNewClientFiz@@@PB_W@Z 
01:0000C0F8 ?_onÐàññìîòðåòüÇàÿâêóClick@formNewClientFiz_class@@SAXQAVformNewClientFiz@@@QAVbutton@@@PAPAUactionResponse_struct@button_class@@@Z 
01:0000C168 ?onFio1SelectionChanged@formNewClientFiz_class@@SAXQAVformNewClientFiz@@@QAVlistControl@@@@Z 
01:0000C19C ?generatedInitialize@formNewClientFiz_class@@SAXQAVformNewClientFiz@@@@Z 
01:0000ECC8 ?generatedOnShow@formNewClientFiz_class@@SAXQAVformNewClientFiz@@@QAVwindow@@@H@Z 
--- From 'Obj\taskwindow.obj'
01:0000ECD0 ?_new@formNewClientFiz_class@@SAXQAVwindow@@@PAPAVformNewClientFiz@@@@Z 
--- From 'Obj\formnewclientfiz.obj'
01:00011230 formNewClientFiz?_initObject@@@QAGXQAV1@H@Z 
01:0001126C ?@create_object@formNewClientFiz_class@@SGQAVformNewClientFiz@@@XZ 
01:00011288 formNewClientFiz?_InternalFinalizer@@@QAGXQAV1@@Z 
--- From 'Obj\formnewclientyur.obj'
01:000112A0 ?classInfo@formNewClientYur_class@@SAXPAPB_W0@Z  (Idle)
01:000112BC ?_display@formNewClientYur_class@@SAXQAVwindow@@@PAPAVformNewClientYur@@@@Z  (Idle)
01:000112E4 ?new@formNewClientYur_class@@SAXQAVformNewClientYur@@@QAVwindow@@@@Z 
01:00011304 ?reconsult@formNewClientYur_class@@SAXQAVformNewClientYur@@@PB_W@Z 
01:00011328 ?_onRassmClick@formNewClientYur_class@@SAXQAVformNewClientYur@@@QAVbutton@@@PAPAUactionResponse_struct@button_class@@@Z 
01:00011D48 ?result@formNewClientYur_class@@SAXQAVformNewClientYur@@@PAU?$__list_struct@Upositive@@@@HHHHHHHHHHHHHHHHH1PAHPAPB_W@Z 
01:0001232C ?print@formNewClientYur_class@@SAXQAVformNewClientYur@@@PB_W11111111@Z 
01:00012794 ?obnul@formNewClientYur_class@@SAXQAVformNewClientYur@@@@Z 
01:00012AE4 ?onShow@formNewClientYur_class@@SAXQAVformNewClientYur@@@QAVwindow@@@H@Z 
01:00012B2C ?listAdd@formNewClientYur_class@@SAXQAVformNewClientYur@@@@Z 
01:00012BD4 ?nomer@formNewClientYur_class@@SAXQAVformNewClientYur@@@PAU?$__list_struct@Ustring@@@@PB_WHPAH@Z 
01:00012C50 ?print@formNewClientYur_class@@SAXQAVformNewClientYur@@@@Z 
01:00012CE0 ?info@formNewClientYur_class@@SAXQAVformNewClientYur@@@PB_W@Z 
01:000133D0 ?_onEditClick@formNewClientYur_class@@SAXQAVformNewClientYur@@@QAVbutton@@@PAPAUactionResponse_struct@button_class@@@Z 
01:00013440 ?onNazv1SelectionChanged@formNewClientYur_class@@SAXQAVformNewClientYur@@@QAVlistControl@@@@Z 
01:00013474 ?generatedInitialize@formNewClientYur_class@@SAXQAVformNewClientYur@@@@Z 
01:00015A3C ?generatedOnShow@formNewClientYur_class@@SAXQAVformNewClientYur@@@QAVwindow@@@H@Z 
--- From 'Obj\taskwindow.obj'
01:00015A44 ?_new@formNewClientYur_class@@SAXQAVwindow@@@PAPAVformNewClientYur@@@@Z 
--- From 'Obj\formnewclientyur.obj'
01:00017FA4 formNewClientYur?_initObject@@@QAGXQAV1@H@Z 
01:00017FE0 ?@create_object@formNewClientYur_class@@SGQAVformNewClientYur@@@XZ 
01:00017FFC formNewClientYur?_InternalFinalizer@@@QAGXQAV1@@Z 
--- From 'Obj\formclientfiz.obj'
01:00018010 ?classInfo@formClientFiz_class@@SAXPAPB_W0@Z  (Idle)
01:0001802C ?_display@formClientFiz_class@@SAXQAVwindow@@@PAPAVformClientFiz@@@@Z  (Idle)
01:00018054 ?new@formClientFiz_class@@SAXQAVformClientFiz@@@QAVwindow@@@@Z 
01:00018074 ?reconsult@formClientFiz_class@@SAXQAVformClientFiz@@@PB_W@Z 
01:00018098 ?print@formClientFiz_class@@SAXQAVformClientFiz@@@@Z 
01:00018120 ?info@formClientFiz_class@@SAXQAVformClientFiz@@@PB_W@Z 
01:00018310 ?onShow@formClientFiz_class@@SAXQAVformClientFiz@@@QAVwindow@@@H@Z 
01:00018330 ?onClientsSelectionChanged@formClientFiz_class@@SAXQAVformClientFiz@@@QAVlistControl@@@@Z 
01:00018360 ?generatedInitialize@formClientFiz_class@@SAXQAVformClientFiz@@@@Z 
01:00018FBC ?generatedOnShow@formClientFiz_class@@SAXQAVformClientFiz@@@QAVwindow@@@H@Z 
--- From 'Obj\taskwindow.obj'
01:00018FC4 ?_new@formClientFiz_class@@SAXQAVwindow@@@PAPAVformClientFiz@@@@Z 
--- From 'Obj\formclientfiz.obj'
01:0001B524 formClientFiz?_initObject@@@QAGXQAV1@H@Z 
01:0001B560 ?@create_object@formClientFiz_class@@SGQAVformClientFiz@@@XZ 
01:0001B57C formClientFiz?_InternalFinalizer@@@QAGXQAV1@@Z 
--- From 'Obj\formclientyur.obj'
01:0001B590 ?classInfo@formClientYur_class@@SAXPAPB_W0@Z  (Idle)
01:0001B5AC ?_display@formClientYur_class@@SAXQAVwindow@@@PAPAVformClientYur@@@@Z  (Idle)
01:0001B5D4 ?new@formClientYur_class@@SAXQAVformClientYur@@@QAVwindow@@@@Z 
01:0001B5F4 ?reconsult@formClientYur_class@@SAXQAVformClientYur@@@PB_W@Z 
01:0001B618 ?print@formClientYur_class@@SAXQAVformClientYur@@@@Z 
01:0001B6A0 ?info@formClientYur_class@@SAXQAVformClientYur@@@PB_W@Z 
01:0001B7AC ?onShow@formClientYur_class@@SAXQAVformClientYur@@@QAVwindow@@@H@Z 
01:0001B7CC ?onClientsSelectionChanged@formClientYur_class@@SAXQAVformClientYur@@@QAVlistControl@@@@Z 
01:0001B7FC ?generatedInitialize@formClientYur_class@@SAXQAVformClientYur@@@@Z 
01:0001BF44 ?generatedOnShow@formClientYur_class@@SAXQAVformClientYur@@@QAVwindow@@@H@Z 
--- From 'Obj\taskwindow.obj'
01:0001BF4C ?_new@formClientYur_class@@SAXQAVwindow@@@PAPAVformClientYur@@@@Z 
--- From 'Obj\formclientyur.obj'
01:0001E4AC formClientYur?_initObject@@@QAGXQAV1@H@Z 
01:0001E4E8 ?@create_object@formClientYur_class@@SGQAVformClientYur@@@XZ 
01:0001E504 formClientYur?_InternalFinalizer@@@QAGXQAV1@@Z 
--- From 'Obj\forms.obj'
01:0001E520 ?classInfo@tabs_class@@SAXPAPB_W0@Z  (Idle)
01:0001E53C ?_display@tabs_class@@SAXQAVwindow@@@PAPAVtabs@@@@Z  (Idle)
01:0001E564 ?new@tabs_class@@SAXQAVtabs@@@QAVwindow@@@@Z 
01:0001E6A4 ?generatedInitialize@tabs_class@@SAXQAVtabs@@@@Z 
01:0001E81C ?generatedOnShow@tabs_class@@SAXQAVtabs@@@QAVwindow@@@H@Z 
--- From 'Obj\taskwindow.obj'
01:0001E824 ?_new@tabs_class@@SAXQAVwindow@@@PAPAVtabs@@@@Z 
--- From 'Obj\forms.obj'
01:0001E84C ?classInfo@yurReport_class@@SAXPAPB_W0@Z  (Idle)
01:0001E868 ?new@yurReport_class@@SAXQAVyurReport@@@QAVcontainerWindow@@@@Z 
01:0001E884 ?new@yurReport_class@@SAXQAVyurReport@@@@Z 
01:0001E8A0 ?reconsult@yurReport_class@@SAXQAVyurReport@@@PB_W@Z 
01:0001E8C4 ?print@yurReport_class@@SAXQAVyurReport@@@@Z 
01:0001EA24 ?onShow@yurReport_class@@SAXQAVyurReport@@@QAVwindow@@@H@Z 
01:0001EA44 ?generatedInitialize@yurReport_class@@SAXQAVyurReport@@@@Z 
01:0001EB90 ?_new@yurReport_class@@SAXPAPAVyurReport@@@@Z  (Idle)
01:0001EBB8 ?_new@yurReport_class@@SAXQAVcontainerWindow@@@PAPAVyurReport@@@@Z 
01:0001EBE0 ?classInfo@fizReport_class@@SAXPAPB_W0@Z  (Idle)
01:0001EBFC ?new@fizReport_class@@SAXQAVfizReport@@@QAVcontainerWindow@@@@Z 
01:0001EC18 ?new@fizReport_class@@SAXQAVfizReport@@@@Z 
01:0001EC34 ?reconsult@fizReport_class@@SAXQAVfizReport@@@PB_W@Z 
01:0001EC58 ?print@fizReport_class@@SAXQAVfizReport@@@@Z 
01:0001EDA8 ?onShow@fizReport_class@@SAXQAVfizReport@@@QAVwindow@@@H@Z 
01:0001EDC8 ?generatedInitialize@fizReport_class@@SAXQAVfizReport@@@@Z 
01:0001EF14 ?_new@fizReport_class@@SAXPAPAVfizReport@@@@Z  (Idle)
01:0001EF3C ?_new@fizReport_class@@SAXQAVcontainerWindow@@@PAPAVfizReport@@@@Z 
01:0002149C tabs?_initObject@@@QAGXQAV1@H@Z 
01:000214D8 ?@create_object@tabs_class@@SGQAVtabs@@@XZ 
01:000214F4 tabs?_InternalFinalizer@@@QAGXQAV1@@Z 
01:0002379C yurReport?_initObject@@@QAGXQAV1@H@Z 
01:000237CC ?@create_object@yurReport_class@@SGQAVyurReport@@@XZ 
01:000237E8 yurReport?_InternalFinalizer@@@QAGXQAV1@@Z 
01:00025A90 fizReport?_initObject@@@QAGXQAV1@H@Z 
01:00025AC0 ?@create_object@fizReport_class@@SGQAVfizReport@@@XZ 
01:00025ADC fizReport?_InternalFinalizer@@@QAGXQAV1@@Z 
--- From 'Obj\tabcontrol.obj'
01:00025AF0 ?classInfo@tabPageWindowExtension_class@@SAXPAPB_W0@Z  (Idle)
01:00025B0C ?new@tabPageWindowExtension_class@@SAXQAVtabPageWindowExtension@@@QAVwindowExtension@@@@Z 
01:00025B20 ?handleSize@tabPageWindowExtension_class@@SAXQAVwindowExtension@@@QAVwindow@@@HH@Z 
01:00025B28 ?handleShow@tabPageWindowExtension_class@@SAXQAVwindowExtension@@@QAVwindow@@@H@Z 
01:00025B30 ?_new@tabPageWindowExtension_class@@SAXQAVwindowExtension@@@PAPAV2@@@Z 
01:00025B58 ?handleDestroy@tabPageWindowExtension_class@@SAXQAVwindowExtension@@@QAVwindow@@@@Z 
01:00025B74 ?handleMove@tabPageWindowExtension_class@@SAXQAVwindowExtension@@@QAVwindow@@@HH@Z 
01:00025B90 ?handleFocus@tabPageWindowExtension_class@@SAXQAVwindowExtension@@@QAVwindow@@@@Z 
01:00025BAC ?handleLoseFocus@tabPageWindowExtension_class@@SAXQAVwindowExtension@@@QAVwindow@@@@Z 
01:00025BC8 ?handleMenuCommand@tabPageWindowExtension_class@@SAXQAVwindowExtension@@@QAVwindow@@@PBUmenuTag@vpiDomains@@@Z 
01:00025BE4 ?handleTimer@tabPageWindowExtension_class@@SAXQAVwindowExtension@@@QAVwindow@@@PBUtimerId@vpiDomains@@@Z 
01:00025C00 ?_handleNative@tabPageWindowExtension_class@@SAXQAVwindowExtension@@@QAVwindow@@@IIHPAPAUnativeResponse_struct@window_class@@@Z 
01:00025C1C ?handleUser@tabPageWindowExtension_class@@SAXQAVwindowExtension@@@QAVwindow@@@HH@Z 
01:00025C38 ?handleStateChange@tabPageWindowExtension_class@@SAXQAVwindowExtension@@@QAVwindow@@@PAUstateInfo_struct@vpiDomains_class@@@Z 
01:00025C54 ?classInfo@tabPageContainer_class@@SAXPAPB_W0@Z  (Idle)
01:00025C70 ?new@tabPageContainer_class@@SAXQAVtabPageContainer@@@QAVcontainerWindow@@@QAVtabControl@@@@Z 
01:00025CA8 ?setVpiWindow@tabPageContainer_class@@SAXQAVtabPageContainer@@@PBUwindowHandle@vpiDomains@@@Z 
01:00025CD0 ?_getTabControl@tabPageContainer_class@@SAXQAVtabPageContainer@@@PAPAVtabControl@@@@Z 
01:00025CE4 ?_addControl@tabPageContainer_class@@SAXQAVcontainerWindow@@@QAVcontrol@@@PAH@Z 
01:00025D00 ?_addContainerControl@tabPageContainer_class@@SAXQAVcontainerWindow@@@QAVcontainerControl@@@PAH@Z 
01:00025D1C ?addControl@tabPageContainer_class@@SAXQAVcontainerWindow@@@QAVcontrol@@@H@Z 
01:00025D38 ?delControl@tabPageContainer_class@@SAXQAVcontainerWindow@@@QAVcontrol@@@@Z 
01:00025D54 ?_lookupControl_dt@tabPageContainer_class@@SAXQAVcontainerWindow@@@HPAPAVcontrol@@@@Z 
01:00025D70 ?_lookupNestedControl_dt@tabPageContainer_class@@SAXQAVcontainerWindow@@@HPAPAVcontrol@@@@Z 
01:00025D8C ?_getControl_nd@tabPageContainer_class@@SAXQAVcontainerWindow@@@PAPAVcontrol@@@@Z 
01:00025DA8 ?getControl_nd@tabPageContainer_class@@SAXQAVcontainerWindow@@@PAPAVcontrol@@@PAH@Z 
01:00025DC4 ?_getContainerControl_nd@tabPageContainer_class@@SAXQAVcontainerWindow@@@PAPAVcontainerControl@@@@Z 
01:00025DE0 ?_getNestedControl_nd@tabPageContainer_class@@SAXQAVcontainerWindow@@@PAPAVcontrol@@@@Z 
01:00025DFC ?_tryGetPreviousControl@tabPageContainer_class@@SAXQAVcontainerWindow@@@QAVcontrol@@@PAPAV3@@@Z 
01:00025E18 ?_tryGetNextControl@tabPageContainer_class@@SAXQAVcontainerWindow@@@QAVcontrol@@@PAPAV3@@@Z 
01:00025E34 ?_getRadioButtonGroup@tabPageContainer_class@@SAXQAVcontainerWindow@@@PAPAVradioButtonGroup@@@@Z 
01:00025E50 ?_tryGetControl@tabPageContainer_class@@SAXQAVcontainerWindow@@@PAPAVcontrol@@@@Z 
01:00025E6C ?show@tabPageContainer_class@@SAXQAVwindow@@@@Z 
01:00025E74 ?_new@tabPageContainer_class@@SAXQAVcontainerWindow@@@QAVtabControl@@@PAPAVtabPageContainer@@@@Z 
01:00025EA0 ?addShowListener@tabPageContainer_class@@SAXQAVwindow@@@X@Z 
01:00025EBC ?removeShowListener@tabPageContainer_class@@SAXQAVwindow@@@X@Z 
01:00025ED8 ?isShown@tabPageContainer_class@@SAXQAVwindow@@@@Z 
01:00025EF4 ?initialize@tabPageContainer_class@@SAXQAVwindow@@@@Z 
01:00025F10 ?isInitializing@tabPageContainer_class@@SAXQAVwindow@@@@Z 
01:00025F2C ?destroy@tabPageContainer_class@@SAXQAVwindow@@@@Z 
01:00025F48 ?isDestroying@tabPageContainer_class@@SAXQAVwindow@@@@Z 
01:00025F64 ?addDestroyListener@tabPageContainer_class@@SAXQAVwindow@@@X@Z 
01:00025F80 ?removeDestroyListener@tabPageContainer_class@@SAXQAVwindow@@@X@Z 
01:00025F9C ?close@tabPageContainer_class@@SAXQAVwindow@@@@Z 
01:00025FB8 ?_getParent@tabPageContainer_class@@SAXQAVwindow@@@PAPAV2@@@Z 
01:00025FD4 ?setParent@tabPageContainer_class@@SAXQAVwindow@@@0@Z 
01:00025FF0 ?_getDialogParent@tabPageContainer_class@@SAXQAVwindow@@@PAPAVdialog@@@@Z 
01:0002600C $getDialogs$tabPageContainer$predicate$(i,o)$c$_m15 
01:00026028 $getChildWindows$tabPageContainer$predicate$(i,o)$c$_m16 
01:00026044 ?isChild@tabPageContainer_class@@SAXQAVwindow@@@0@Z 
01:00026060 ?_getText@tabPageContainer_class@@SAXQAVwindow@@@PAPB_W@Z 
01:0002607C ?setText@tabPageContainer_class@@SAXQAVwindow@@@PB_W@Z 
01:00026098 ?_getOuterRect@tabPageContainer_class@@SAXQAVwindow@@@PAPAUrct_struct@vpiDomains_class@@@Z 
01:000260B4 ?setOuterRect@tabPageContainer_class@@SAXQAVwindow@@@PAUrct_struct@vpiDomains_class@@@Z 
01:000260D0 ?setClientRect@tabPageContainer_class@@SAXQAVwindow@@@PAUrct_struct@vpiDomains_class@@@Z 
01:000260EC ?_getClientRect@tabPageContainer_class@@SAXQAVwindow@@@PAPAUrct_struct@vpiDomains_class@@@Z 
01:00026108 ?getClientSize@tabPageContainer_class@@SAXQAVwindow@@@PAHPAH@Z 
01:00026124 ?_adjustRectEx@tabPageContainer_class@@SAXQAVwindow@@@PAUrct_struct@vpiDomains_class@@PAPAU34@@Z 
01:00026140 ?center@tabPageContainer_class@@SAXQAVwindow@@@@Z 
01:0002615C ?center@tabPageContainer_class@@SAXQAVwindow@@@PAUrct_struct@vpiDomains_class@@@Z 
01:00026178 ?centerTo@tabPageContainer_class@@SAXQAVwindow@@@0@Z 
01:00026194 ?addSizeListener@tabPageContainer_class@@SAXQAVwindow@@@X@Z 
01:000261B0 ?removeSizeListener@tabPageContainer_class@@SAXQAVwindow@@@X@Z 
01:000261CC ?addMoveListener@tabPageContainer_class@@SAXQAVwindow@@@X@Z 
01:000261E8 ?removeMoveListener@tabPageContainer_class@@SAXQAVwindow@@@X@Z 
01:00026204 ?_mapPointsTo@tabPageContainer_class@@SAXQAVwindow@@@0PAU?$__list_struct@Upnt@@@@PAPAU?$__list_struct@U4@@@@Z 
01:00026220 ?_mapPointTo@tabPageContainer_class@@SAXQAVwindow@@@0PAUpnt_struct@vpiDomains_class@@PAPAU45@@Z 
01:0002623C ?setFocus@tabPageContainer_class@@SAXQAVwindow@@@@Z 
01:00026258 ?addGetFocusListener@tabPageContainer_class@@SAXQAVwindow@@@X@Z 
01:00026274 ?removeGetFocusListener@tabPageContainer_class@@SAXQAVwindow@@@X@Z 
01:00026290 ?addLoseFocusListener@tabPageContainer_class@@SAXQAVwindow@@@X@Z 
01:000262AC ?removeLoseFocusListener@tabPageContainer_class@@SAXQAVwindow@@@X@Z 
01:000262C8 ?setActive@tabPageContainer_class@@SAXQAVwindow@@@@Z 
01:000262E4 ?bringToTop@tabPageContainer_class@@SAXQAVwindow@@@@Z 
01:00026300 ?setIcon@tabPageContainer_class@@SAXQAVwindow@@@PBUresid@vpiDomains@@@Z 
01:0002631C ?setFont@tabPageContainer_class@@SAXQAVwindow@@@PBUfont@vpiDomains@@@Z 
01:00026338 ?_getFont@tabPageContainer_class@@SAXQAVwindow@@@AAUfont@vpiDomains@@@Z 
01:00026354 ?getFontMetrics@tabPageContainer_class@@SAXQAVwindow@@@AAUpositive@@11@Z 
01:00026370 ?menuPopUp@tabPageContainer_class@@SAXQAVwindow@@@PAUmenu_struct@vpiDomains_class@@PAUpnt_struct@4@PBUmenuAlign@vpiDomains@@@Z 
01:0002638C ?addMenuItemListener@tabPageContainer_class@@SAXQAVwindow@@@X@Z 
01:000263A8 ?addMenuItemListener@tabPageContainer_class@@SAXQAVwindow@@@PBUmenuTag@vpiDomains@@X@Z 
01:000263C4 ?removeMenuItemListener@tabPageContainer_class@@SAXQAVwindow@@@X@Z 
01:000263E0 ?setContextMenuResponder@tabPageContainer_class@@SAXQAVwindow@@@X@Z 
01:000263FC ?_getContextMenuResponder@tabPageContainer_class@@SAXQAVwindow@@@PAX@Z 
01:00026418 ?resetContextMenuResponder@tabPageContainer_class@@SAXQAVwindow@@@@Z 
01:00026434 ?cursorSet@tabPageContainer_class@@SAXQAVwindow@@@PBUcursor@vpiDomains@@@Z 
01:00026450 ?cursorSet@tabPageContainer_class@@SAXQAVwindow@@@PBUcursor@vpiDomains@@PAUboolean_struct@_builtIn_class@@@Z 
01:0002646C ?cursorSet@tabPageContainer_class@@SAXQAVwindow@@@PBUhModule@@PBUcursor@vpiDomains@@PAUboolean_struct@_builtIn_class@@@Z 
01:00026488 ?_cursorGetPos@tabPageContainer_class@@SAXQAVwindow@@@PAPAUpnt_struct@vpiDomains_class@@@Z 
01:000264A4 ?_cursorGet@tabPageContainer_class@@SAXQAVwindow@@@AAUcursor@vpiDomains@@@Z 
01:000264C0 ?_getState@tabPageContainer_class@@SAXQAVwindow@@@PAPAU?$__list_struct@Uwsflag@@@@@Z 
01:000264DC ?isFlagSet@tabPageContainer_class@@SAXQAVwindow@@@PBUwsflag@vpiDomains@@@Z 
01:000264F8 ?setState@tabPageContainer_class@@SAXQAVwindow@@@PAU?$__list_struct@Uwsflag@@@@@Z 
01:00026514 ?setEnabled@tabPageContainer_class@@SAXQAVwindow@@@@Z 
01:00026530 ?setEnabled@tabPageContainer_class@@SAXQAVwindow@@@PAUboolean_struct@_builtIn_class@@@Z 
01:0002654C ?_getEnabled@tabPageContainer_class@@SAXQAVwindow@@@PAPAUboolean_struct@_builtIn_class@@@Z 
01:00026568 ?setVisible@tabPageContainer_class@@SAXQAVwindow@@@@Z 
01:00026584 ?setVisible@tabPageContainer_class@@SAXQAVwindow@@@PAUboolean_struct@_builtIn_class@@@Z 
01:000265A0 ?_getVisible@tabPageContainer_class@@SAXQAVwindow@@@PAPAUboolean_struct@_builtIn_class@@@Z 
01:000265BC ?clearState@tabPageContainer_class@@SAXQAVwindow@@@PAU?$__list_struct@Uwsflag@@@@@Z 
01:000265D8 ?setMinimizeSize@tabPageContainer_class@@SAXQAVwindow@@@HH@Z 
01:000265F4 ?clearMinimizeSize@tabPageContainer_class@@SAXQAVwindow@@@@Z 
01:00026610 ?_timerSet@tabPageContainer_class@@SAXQAVwindow@@@PBUpositive@@AAUtimerId@vpiDomains@@@Z 
01:0002662C ?timerKill@tabPageContainer_class@@SAXQAVwindow@@@PBUtimerId@vpiDomains@@@Z 
01:00026648 ?addTimerListener@tabPageContainer_class@@SAXQAVwindow@@@X@Z 
01:00026664 ?removeTimerListener@tabPageContainer_class@@SAXQAVwindow@@@X@Z 
01:00026680 ?delayCall@tabPageContainer_class@@SAXQAVwindow@@@PBUpositive@@X@Z 
01:0002669C ?addNativeMessageHandler@tabPageContainer_class@@SAXQAVwindow@@@X@Z 
01:000266B8 ?removeNativeMessageHandler@tabPageContainer_class@@SAXQAVwindow@@@X@Z 
01:000266D4 ?addUserListener@tabPageContainer_class@@SAXQAVwindow@@@X@Z 
01:000266F0 ?removeUserListener@tabPageContainer_class@@SAXQAVwindow@@@X@Z 
01:0002670C ?postAction@tabPageContainer_class@@SAXQAVwindow@@@X@Z 
01:00026728 ?addStateListener@tabPageContainer_class@@SAXQAVwindow@@@X@Z 
01:00026744 ?removeStateListener@tabPageContainer_class@@SAXQAVwindow@@@X@Z 
01:00026760 ?_tryGetVpiWindow@tabPageContainer_class@@SAXQAVwindow@@@AAUwindowHandle@vpiDomains@@@Z 
01:0002677C ?_getVpiWindow@tabPageContainer_class@@SAXQAVwindow@@@AAUwindowHandle@vpiDomains@@@Z 
01:00026798 ?_getData@tabPageContainer_class@@SAXQAVwindow@@@PAH@Z 
01:000267B4 ?setData@tabPageContainer_class@@SAXQAVwindow@@@H@Z 
01:000267D0 ?_getClassName@tabPageContainer_class@@SAXQAVwindow@@@PAPB_W@Z 
01:000267EC ?_getAttrVal@tabPageContainer_class@@SAXQAVwindow@@@HPAH@Z 
01:00026808 ?addHandler@tabPageContainer_class@@SAXQAVwindow@@@X@Z 
01:00026824 ?removeHandler@tabPageContainer_class@@SAXQAVwindow@@@X@Z 
01:00026840 ?setSubClassHandler@tabPageContainer_class@@SAXQAVwindow@@@XPAUboolean_struct@_builtIn_class@@@Z 
01:0002685C ?_sendEvent@tabPageContainer_class@@SAXQAVwindow@@@PAUevent_struct@vpiDomains_class@@PAH@Z 
01:00026878 ?_sendEvent@tabPageContainer_class@@SAXQAVwindow@@@PAUevent_struct@vpiDomains_class@@PAUboolean_struct@_builtIn_class@@PAH@Z 
01:00026894 ?postEvent@tabPageContainer_class@@SAXQAVwindow@@@PAUevent_struct@vpiDomains_class@@@Z 
01:000268B0 ?postUserEvent@tabPageContainer_class@@SAXQAVwindow@@@HH@Z 
01:000268CC ?_getEventHandler@tabPageContainer_class@@SAXQAVwindow@@@PAX@Z 
01:000268E8 ?unwrapVPIWin@tabPageContainer_class@@SAXQAVwindow@@@@Z 
01:00026904 ?_getDefaultWindowExtension@tabPageContainer_class@@SAXQAVwindow@@@PAPAVwindowExtension@@@@Z 
01:00026920 ?_getWindowExtension@tabPageContainer_class@@SAXQAVwindow@@@PAPAVwindowExtension@@@@Z 
01:0002693C ?setWindowExtension@tabPageContainer_class@@SAXQAVwindow@@@QAVwindowExtension@@@@Z 
01:00026958 ?whenCreated@tabPageContainer_class@@SAXQAVwindow@@@X@Z 
01:00026974 ?classInfo@tabPage_class@@SAXPAPB_W0@Z  (Idle)
01:00026990 ?new@tabPage_class@@SAXQAVtabPage@@@@Z 
01:000269B4 ?new@tabPage_class@@SAXQAVtabPage@@@QAVcontainerControl@@@@Z 
01:000269D0 ?_getContainerControl@tabPage_class@@SAXQAVtabPage@@@PAPAVcontainerControl@@@@Z 
01:000269E4 ?setContainerControl@tabPage_class@@SAXQAVtabPage@@@QAVcontainerControl@@@@Z 
01:000269F8 ?setText@tabPage_class@@SAXQAVwindow@@@PB_W@Z 
01:00026B3C ?setParent@tabPage_class@@SAXQAVwindow@@@0@Z 
01:00026B74 ?_validate@tabPage_class@@SAXQAVtabPage@@@PAPAUvalidateResult_struct@control_class@@@Z 
01:00026BE4 ?_new@tabPage_class@@SAXPAPAVtabPage@@@@Z 
01:00026C0C ?_new@tabPage_class@@SAXQAVcontainerControl@@@PAPAVtabPage@@@@Z  (Idle)
01:00026C34 ?_object_facts_initializer@tabPage_class@@SGXQAVtabPage@@@@Z 
01:00026C50 ?_addControl@tabPage_class@@SAXQAVcontainerWindow@@@QAVcontrol@@@PAH@Z 
01:00026C6C ?addControl@tabPage_class@@SAXQAVcontainerWindow@@@QAVcontrol@@@H@Z 
01:00026C88 ?delControl@tabPage_class@@SAXQAVcontainerWindow@@@QAVcontrol@@@@Z 
01:00026CA4 ?_addContainerControl@tabPage_class@@SAXQAVcontainerWindow@@@QAVcontainerControl@@@PAH@Z 
01:00026CC0 ?_getContainerControl_nd@tabPage_class@@SAXQAVcontainerWindow@@@PAPAVcontainerControl@@@@Z 
01:00026CDC ?_tryGetControl@tabPage_class@@SAXQAVcontainerWindow@@@PAPAVcontrol@@@@Z 
01:00026CF8 ?_lookupControl_dt@tabPage_class@@SAXQAVcontainerWindow@@@HPAPAVcontrol@@@@Z 
01:00026D14 ?_lookupNestedControl_dt@tabPage_class@@SAXQAVcontainerWindow@@@HPAPAVcontrol@@@@Z 
01:00026D30 ?_getControl_nd@tabPage_class@@SAXQAVcontainerWindow@@@PAPAVcontrol@@@@Z 
01:00026D4C ?getControl_nd@tabPage_class@@SAXQAVcontainerWindow@@@PAPAVcontrol@@@PAH@Z 
01:00026D68 ?_getNestedControl_nd@tabPage_class@@SAXQAVcontainerWindow@@@PAPAVcontrol@@@@Z 
01:00026D84 ?_tryGetPreviousControl@tabPage_class@@SAXQAVcontainerWindow@@@QAVcontrol@@@PAPAV3@@@Z 
01:00026DA0 ?_tryGetNextControl@tabPage_class@@SAXQAVcontainerWindow@@@QAVcontrol@@@PAPAV3@@@Z 
01:00026DBC ?_getRadioButtonGroup@tabPage_class@@SAXQAVcontainerWindow@@@PAPAVradioButtonGroup@@@@Z 
01:00026DD8 ?show@tabPage_class@@SAXQAVwindow@@@@Z 
01:00026DF0 ?addShowListener@tabPage_class@@SAXQAVwindow@@@X@Z 
01:00026E0C ?removeShowListener@tabPage_class@@SAXQAVwindow@@@X@Z 
01:00026E28 ?isShown@tabPage_class@@SAXQAVwindow@@@@Z 
01:00026E44 ?initialize@tabPage_class@@SAXQAVwindow@@@@Z 
01:00026E60 ?isInitializing@tabPage_class@@SAXQAVwindow@@@@Z 
01:00026E7C ?destroy@tabPage_class@@SAXQAVwindow@@@@Z 
01:00026E98 ?isDestroying@tabPage_class@@SAXQAVwindow@@@@Z 
01:00026EB4 ?addDestroyListener@tabPage_class@@SAXQAVwindow@@@X@Z 
01:00026ED0 ?removeDestroyListener@tabPage_class@@SAXQAVwindow@@@X@Z 
01:00026EEC ?close@tabPage_class@@SAXQAVwindow@@@@Z 
01:00026F08 ?_getParent@tabPage_class@@SAXQAVwindow@@@PAPAV2@@@Z 
01:00026F24 ?_getDialogParent@tabPage_class@@SAXQAVwindow@@@PAPAVdialog@@@@Z 
01:00026F40 $getDialogs$tabPage$predicate$(i,o)$c$_m15 
01:00026F5C $getChildWindows$tabPage$predicate$(i,o)$c$_m16 
01:00026F78 ?isChild@tabPage_class@@SAXQAVwindow@@@0@Z 
01:00026F94 ?_getText@tabPage_class@@SAXQAVwindow@@@PAPB_W@Z 
01:00026FB0 ?_getOuterRect@tabPage_class@@SAXQAVwindow@@@PAPAUrct_struct@vpiDomains_class@@@Z 
01:00026FCC ?setOuterRect@tabPage_class@@SAXQAVwindow@@@PAUrct_struct@vpiDomains_class@@@Z 
01:00026FE8 ?setClientRect@tabPage_class@@SAXQAVwindow@@@PAUrct_struct@vpiDomains_class@@@Z 
01:00027004 ?_getClientRect@tabPage_class@@SAXQAVwindow@@@PAPAUrct_struct@vpiDomains_class@@@Z 
01:00027020 ?getClientSize@tabPage_class@@SAXQAVwindow@@@PAHPAH@Z 
01:0002703C ?_adjustRectEx@tabPage_class@@SAXQAVwindow@@@PAUrct_struct@vpiDomains_class@@PAPAU34@@Z 
01:00027058 ?center@tabPage_class@@SAXQAVwindow@@@@Z 
01:00027074 ?center@tabPage_class@@SAXQAVwindow@@@PAUrct_struct@vpiDomains_class@@@Z 
01:00027090 ?centerTo@tabPage_class@@SAXQAVwindow@@@0@Z 
01:000270AC ?addSizeListener@tabPage_class@@SAXQAVwindow@@@X@Z 
01:000270C8 ?removeSizeListener@tabPage_class@@SAXQAVwindow@@@X@Z 
01:000270E4 ?addMoveListener@tabPage_class@@SAXQAVwindow@@@X@Z 
01:00027100 ?removeMoveListener@tabPage_class@@SAXQAVwindow@@@X@Z 
01:0002711C ?_mapPointsTo@tabPage_class@@SAXQAVwindow@@@0PAU?$__list_struct@Upnt@@@@PAPAU?$__list_struct@U4@@@@Z 
01:00027138 ?_mapPointTo@tabPage_class@@SAXQAVwindow@@@0PAUpnt_struct@vpiDomains_class@@PAPAU45@@Z 
01:00027154 ?setFocus@tabPage_class@@SAXQAVwindow@@@@Z 
01:00027170 ?addGetFocusListener@tabPage_class@@SAXQAVwindow@@@X@Z 
01:0002718C ?removeGetFocusListener@tabPage_class@@SAXQAVwindow@@@X@Z 
01:000271A8 ?addLoseFocusListener@tabPage_class@@SAXQAVwindow@@@X@Z 
01:000271C4 ?removeLoseFocusListener@tabPage_class@@SAXQAVwindow@@@X@Z 
01:000271E0 ?setActive@tabPage_class@@SAXQAVwindow@@@@Z 
01:000271FC ?bringToTop@tabPage_class@@SAXQAVwindow@@@@Z 
01:00027218 ?setIcon@tabPage_class@@SAXQAVwindow@@@PBUresid@vpiDomains@@@Z 
01:00027234 ?setFont@tabPage_class@@SAXQAVwindow@@@PBUfont@vpiDomains@@@Z 
01:00027250 ?_getFont@tabPage_class@@SAXQAVwindow@@@AAUfont@vpiDomains@@@Z 
01:0002726C ?getFontMetrics@tabPage_class@@SAXQAVwindow@@@AAUpositive@@11@Z 
01:00027288 ?menuPopUp@tabPage_class@@SAXQAVwindow@@@PAUmenu_struct@vpiDomains_class@@PAUpnt_struct@4@PBUmenuAlign@vpiDomains@@@Z 
01:000272A4 ?addMenuItemListener@tabPage_class@@SAXQAVwindow@@@X@Z 
01:000272C0 ?addMenuItemListener@tabPage_class@@SAXQAVwindow@@@PBUmenuTag@vpiDomains@@X@Z 
01:000272DC ?removeMenuItemListener@tabPage_class@@SAXQAVwindow@@@X@Z 
01:000272F8 ?setContextMenuResponder@tabPage_class@@SAXQAVwindow@@@X@Z 
01:00027314 ?_getContextMenuResponder@tabPage_class@@SAXQAVwindow@@@PAX@Z 
01:00027330 ?resetContextMenuResponder@tabPage_class@@SAXQAVwindow@@@@Z 
01:0002734C ?cursorSet@tabPage_class@@SAXQAVwindow@@@PBUcursor@vpiDomains@@@Z 
01:00027368 ?cursorSet@tabPage_class@@SAXQAVwindow@@@PBUcursor@vpiDomains@@PAUboolean_struct@_builtIn_class@@@Z 
01:00027384 ?cursorSet@tabPage_class@@SAXQAVwindow@@@PBUhModule@@PBUcursor@vpiDomains@@PAUboolean_struct@_builtIn_class@@@Z 
01:000273A0 ?_cursorGetPos@tabPage_class@@SAXQAVwindow@@@PAPAUpnt_struct@vpiDomains_class@@@Z 
01:000273BC ?_cursorGet@tabPage_class@@SAXQAVwindow@@@AAUcursor@vpiDomains@@@Z 
01:000273D8 ?_getState@tabPage_class@@SAXQAVwindow@@@PAPAU?$__list_struct@Uwsflag@@@@@Z 
01:000273F4 ?isFlagSet@tabPage_class@@SAXQAVwindow@@@PBUwsflag@vpiDomains@@@Z 
01:00027410 ?setState@tabPage_class@@SAXQAVwindow@@@PAU?$__list_struct@Uwsflag@@@@@Z 
01:0002742C ?setEnabled@tabPage_class@@SAXQAVwindow@@@@Z 
01:00027448 ?setEnabled@tabPage_class@@SAXQAVwindow@@@PAUboolean_struct@_builtIn_class@@@Z 
01:00027464 ?_getEnabled@tabPage_class@@SAXQAVwindow@@@PAPAUboolean_struct@_builtIn_class@@@Z 
01:00027480 ?setVisible@tabPage_class@@SAXQAVwindow@@@@Z 
01:0002749C ?setVisible@tabPage_class@@SAXQAVwindow@@@PAUboolean_struct@_builtIn_class@@@Z 
01:000274B8 ?_getVisible@tabPage_class@@SAXQAVwindow@@@PAPAUboolean_struct@_builtIn_class@@@Z 
01:000274D4 ?clearState@tabPage_class@@SAXQAVwindow@@@PAU?$__list_struct@Uwsflag@@@@@Z 
01:000274F0 ?setMinimizeSize@tabPage_class@@SAXQAVwindow@@@HH@Z 
01:0002750C ?clearMinimizeSize@tabPage_class@@SAXQAVwindow@@@@Z 
01:00027528 ?_timerSet@tabPage_class@@SAXQAVwindow@@@PBUpositive@@AAUtimerId@vpiDomains@@@Z 
01:00027544 ?timerKill@tabPage_class@@SAXQAVwindow@@@PBUtimerId@vpiDomains@@@Z 
01:00027560 ?addTimerListener@tabPage_class@@SAXQAVwindow@@@X@Z 
01:0002757C ?removeTimerListener@tabPage_class@@SAXQAVwindow@@@X@Z 
01:00027598 ?delayCall@tabPage_class@@SAXQAVwindow@@@PBUpositive@@X@Z 
01:000275B4 ?addNativeMessageHandler@tabPage_class@@SAXQAVwindow@@@X@Z 
01:000275D0 ?removeNativeMessageHandler@tabPage_class@@SAXQAVwindow@@@X@Z 
01:000275EC ?addUserListener@tabPage_class@@SAXQAVwindow@@@X@Z 
01:00027608 ?removeUserListener@tabPage_class@@SAXQAVwindow@@@X@Z 
01:00027624 ?postAction@tabPage_class@@SAXQAVwindow@@@X@Z 
01:00027640 ?addStateListener@tabPage_class@@SAXQAVwindow@@@X@Z 
01:0002765C ?removeStateListener@tabPage_class@@SAXQAVwindow@@@X@Z 
01:00027678 ?_tryGetVpiWindow@tabPage_class@@SAXQAVwindow@@@AAUwindowHandle@vpiDomains@@@Z 
01:00027694 ?_getVpiWindow@tabPage_class@@SAXQAVwindow@@@AAUwindowHandle@vpiDomains@@@Z 
01:000276B0 ?_getData@tabPage_class@@SAXQAVwindow@@@PAH@Z 
01:000276CC ?setData@tabPage_class@@SAXQAVwindow@@@H@Z 
01:000276E8 ?_getClassName@tabPage_class@@SAXQAVwindow@@@PAPB_W@Z 
01:00027704 ?_getAttrVal@tabPage_class@@SAXQAVwindow@@@HPAH@Z 
01:00027720 ?addHandler@tabPage_class@@SAXQAVwindow@@@X@Z 
01:0002773C ?removeHandler@tabPage_class@@SAXQAVwindow@@@X@Z 
01:00027758 ?setSubClassHandler@tabPage_class@@SAXQAVwindow@@@XPAUboolean_struct@_builtIn_class@@@Z 
01:00027774 ?_sendEvent@tabPage_class@@SAXQAVwindow@@@PAUevent_struct@vpiDomains_class@@PAH@Z 
01:00027790 ?_sendEvent@tabPage_class@@SAXQAVwindow@@@PAUevent_struct@vpiDomains_class@@PAUboolean_struct@_builtIn_class@@PAH@Z 
01:000277AC ?postEvent@tabPage_class@@SAXQAVwindow@@@PAUevent_struct@vpiDomains_class@@@Z 
01:000277C8 ?postUserEvent@tabPage_class@@SAXQAVwindow@@@HH@Z 
01:000277E4 ?_getEventHandler@tabPage_class@@SAXQAVwindow@@@PAX@Z 
01:00027800 ?unwrapVPIWin@tabPage_class@@SAXQAVwindow@@@@Z 
01:0002781C ?_getDefaultWindowExtension@tabPage_class@@SAXQAVwindow@@@PAPAVwindowExtension@@@@Z 
01:00027838 ?_getWindowExtension@tabPage_class@@SAXQAVwindow@@@PAPAVwindowExtension@@@@Z 
01:00027854 ?setWindowExtension@tabPage_class@@SAXQAVwindow@@@QAVwindowExtension@@@@Z 
01:00027870 ?whenCreated@tabPage_class@@SAXQAVwindow@@@X@Z 
01:0002788C ?classInfo@tabControl_class@@SAXPAPB_W0@Z 
01:000278A8 ?new@tabControl_class@@SAXQAVtabControl@@@@Z 
01:000279EC ?new@tabControl_class@@SAXQAVtabControl@@@QAVcontainerWindow@@@@Z 
01:00027A08 ?show@tabControl_class@@SAXQAVwindow@@@@Z 
01:00027CE4 ?registerHotKeys@tabControl_class@@SAXQAVtabControl@@@QAVwindow@@@PAUboolean_struct@_builtIn_class@@@Z 
01:00027DC8 ?onControlDestroy@tabControl_class@@SAXQAVtabControl@@@QAVwindow@@@@Z 
01:00027F1C ?_onParentDialogNative@tabControl_class@@SAXQAVtabControl@@@QAVwindow@@@IIHPAPAUnativeResponse_struct@window_class@@@Z 
01:00027FBC ?tryPageChanging@tabControl_class@@SAXQAVtabControl@@@@Z 
01:0002801C ?onControlUser@tabControl_class@@SAXQAVtabControl@@@QAVwindow@@@HH@Z 
01:00028104 ?shiftToNextPage@tabControl_class@@SAXQAVtabControl@@@@Z 
01:000281C0 ?shiftToPreviousPage@tabControl_class@@SAXQAVtabControl@@@@Z 
01:00028280 ?initialResizeControls@tabControl_class@@SAXQAVtabControl@@@@Z 
01:000283FC ?onControlSize@tabControl_class@@SAXQAVtabControl@@@QAVwindow@@@@Z 
01:000284DC ?_onControlNative@tabControl_class@@SAXQAVtabControl@@@QAVwindow@@@IIHPAPAUnativeResponse_struct@window_class@@@Z 
01:000285E0 ?_onControlNotify@tabControl_class@@SAXQAVtabControl@@@IPAPAUnativeResponse_struct@window_class@@@Z 
01:000286C8 ?_tryLookupParentTabControl@tabControl_class@@SAXPBUwindowHandle@@PAPAVtabControl@@@@Z 
01:00028770 ?addPage@tabControl_class@@SAXQAVtabControl@@@QAVtabPage@@@@Z 
01:000288A0 ?removePage@tabControl_class@@SAXQAVtabControl@@@QAVtabPage@@@@Z 
01:00028AF4 ?setPageContainer@tabControl_class@@SAXQAVtabControl@@@QAVtabPage@@@@Z 
01:00028BE0 ?showPage@tabControl_class@@SAXQAVtabControl@@@QAVtabPage@@@@Z 
01:00028CB8 ?setCurrentPage@tabControl_class@@SAXQAVtabControl@@@QAVtabPage@@@@Z 
01:00028D28 ?getCurrentPage@tabControl_class@@SAXQAVtabControl@@@PAPAVtabPage@@@@Z 
01:00028D6C ?changePage@tabControl_class@@SAXQAVtabControl@@@H@Z 
01:00028E3C ?dispatchPageChanged@tabControl_class@@SAXQAVtabControl@@@QAVtabPage@@@@Z 
01:00028EC4 ?addPageChangedListener@tabControl_class@@SAXQAVtabControl@@@X@Z 
01:00028EE4 ?removePageChangedListener@tabControl_class@@SAXQAVtabControl@@@X@Z 
01:00028FB0 ?setPageChangeResponder@tabControl_class@@SAXQAVtabControl@@@X@Z 
01:00028FC4 ?_getPageChangeResponder@tabControl_class@@SAXQAVtabControl@@@PAX@Z 
01:00028FD8 ?resetPageChangeResponder@tabControl_class@@SAXQAVtabControl@@@@Z 
01:00029008 ?_defaultPageChangeResponder@tabControl_class@@SAXQAVtabControl@@@0QAVtabPage@@@PAPAUpageChangeResponse_struct@1@@Z 
01:0002901C ?getPageCount@tabControl_class@@SAXQAVtabControl@@@PAH@Z 
01:000290C4 ?_getTabPageIndex@tabControl_class@@SAXQAVtabControl@@@QAVtabPage@@@PAH@Z 
01:000290CC ?_getPage_nd@tabControl_class@@SAXQAVtabControl@@@PAPAVtabPage@@@@Z 
01:00029118 ?page_index@tabControl_class@@SAXQAVtabControl@@@QAVtabPage@@@PAH@Z 
01:000291CC ?raise_InvalidTabPageException@tabControl_class@@SAXXZ 
01:000291E4 ?invalidTabPage_exception@tabControl_class@@SAXPAXPAPB_W1@Z 
01:0002920C ?_validate@tabControl_class@@SAXQAVcontrol@@@PAPAUvalidateResult_struct@control_class@@@Z 
01:0002929C ?tabsLocation@tabControl_class@@SAXQAVtabControl@@@PAUlocation_struct@1@@Z 
01:00029340 ?_tabsLocation@tabControl_class@@SAXQAVtabControl@@@PAPAUlocation_struct@1@@Z 
01:00029354 ?_getLocationFlag@tabControl_class@@SAXPAUlocation_struct@1@PAH@Z 
01:00029390 ?_new@tabControl_class@@SAXPAPAVtabControl@@@@Z  (Idle)
01:000293B8 ?_new@tabControl_class@@SAXQAVcontainerWindow@@@PAPAVtabControl@@@@Z 
01:000293E0 ?page_index@tabControl_class@@SAXQAVtabControl@@@PAPAVtabPage@@@H@Z 
01:00029494 ?_object_facts_initializer@tabControl_class@@SGXQAVtabControl@@@@Z 
01:000294F0 $pageList_index$tabControl$predicate$(i,i,i,i,o)$c$_m48 
01:00029578 $pageList_index$tabControl$predicate$(i,o,i,i,i)$c$_m48 
01:00029600 tabPageWindowExtension?_initObject@@@QAGXQAV1@H@Z 
01:00029618 ?@create_object@tabPageWindowExtension_class@@SGQAVtabPageWindowExtension@@@XZ 
01:00029634 tabPageWindowExtension?_InternalFinalizer@@@QAGXQAV1@@Z 
01:00029648 tabPageContainer?_initObject@@@QAGXQAV1@H@Z 
01:00029660 ?@create_object@tabPageContainer_class@@SGQAVtabPageContainer@@@XZ 
01:0002967C tabPageContainer?_InternalFinalizer@@@QAGXQAV1@@Z 
01:00029690 tabPage?_initObject@@@QAGXQAV1@H@Z 
01:000296B4 ?@create_object@tabPage_class@@SGQAVtabPage@@@XZ 
01:000296D0 tabPage?_InternalFinalizer@@@QAGXQAV1@@Z 
01:0002BA78 tabControl?_initObject@@@QAGXQAV1@H@Z 
01:0002BAB8 ?@create_object@tabControl_class@@SGQAVtabControl@@@XZ 
01:0002BAD4 tabControl?_InternalFinalizer@@@QAGXQAV1@@Z 
--- From 'Obj\controlsupport.obj'
01:0002BAF0 ?classInfo@userControlSupport_class@@SAXPAPB_W0@Z 
01:0002BB0C ?new@userControlSupport_class@@SAXQAVuserControlSupport@@@@Z 
01:0002BC14 ?new@userControlSupport_class@@SAXQAVuserControlSupport@@@QAVcontainerWindow@@@@Z 
01:0002BC30 ?setDrawWindowExtension@userControlSupport_class@@SAXQAVdrawWindow@@@QAVdrawWindowExtension@@@@Z 
01:0002BC48 ?show@userControlSupport_class@@SAXQAVwindow@@@@Z 
01:0002BE60 ?onBackgroundGetFocus@userControlSupport_class@@SAXQAVuserControlSupport@@@QAVwindow@@@@Z 
01:0002BE6C ?_getDrawWindow@userControlSupport_class@@SAXQAVuserControlSupport@@@PAPAVdrawWindow@@@@Z 
01:0002BE80 ?setContainer@userControlSupport_class@@SAXQAVcontrolSupport@@@QAVcontainerWindow@@@@Z 
01:0002BF24 ?addToParentContainer@userControlSupport_class@@SAXQAVuserControlSupport@@@QAVcontainerWindow@@@@Z 
01:0002BF60 ?_tryGetControl@userControlSupport_class@@SAXQAVcontainerWindow@@@PAPAVcontrol@@@@Z 
01:0002BF84 ?_validate@userControlSupport_class@@SAXQAVcontrolSupport@@@PAPAUvalidateResult_struct@control_class@@@Z 
01:0002BFE4 ?_onControlEraseBackground@userControlSupport_class@@SAXQAVuserControlSupport@@@QAVdrawWindow@@@QAVwindowGDI@@@PAPAUeraseBackgroundResponse_struct@drawWindow_class@@@Z 
01:0002BFF8 ?onPaint@userControlSupport_class@@SAXQAVuserControlSupport@@@QAVdrawWindow@@@PAUrct_struct@vpiDomains_class@@QAVwindowGDI@@@@Z 
01:0002C024 ?setHorizontalScroll@userControlSupport_class@@SAXQAVuserControlSupport@@@@Z 
01:0002C04C ?setHorizontalScroll@userControlSupport_class@@SAXQAVuserControlSupport@@@PAUboolean_struct@_builtIn_class@@@Z 
01:0002C0B0 ?_getHorizontalScroll@userControlSupport_class@@SAXQAVuserControlSupport@@@PAPAUboolean_struct@_builtIn_class@@@Z 
01:0002C0C4 ?setVerticalScroll@userControlSupport_class@@SAXQAVuserControlSupport@@@@Z 
01:0002C0EC ?setVerticalScroll@userControlSupport_class@@SAXQAVuserControlSupport@@@PAUboolean_struct@_builtIn_class@@@Z 
01:0002C150 ?_getVerticalScroll@userControlSupport_class@@SAXQAVuserControlSupport@@@PAPAUboolean_struct@_builtIn_class@@@Z 
01:0002C164 ?setTransparent@userControlSupport_class@@SAXQAVuserControlSupport@@@@Z 
01:0002C18C ?setTransparent@userControlSupport_class@@SAXQAVuserControlSupport@@@PAUboolean_struct@_builtIn_class@@@Z 
01:0002C1F0 ?_getTransparent@userControlSupport_class@@SAXQAVuserControlSupport@@@PAPAUboolean_struct@_builtIn_class@@@Z 
01:0002C204 ?setBorder@userControlSupport_class@@SAXQAVuserControlSupport@@@@Z 
01:0002C22C ?setBorder@userControlSupport_class@@SAXQAVuserControlSupport@@@PAUboolean_struct@_builtIn_class@@@Z 
01:0002C290 ?_getBorder@userControlSupport_class@@SAXQAVuserControlSupport@@@PAPAUboolean_struct@_builtIn_class@@@Z 
01:0002C2A4 ?_new@userControlSupport_class@@SAXQAVcontainerWindow@@@PAPAVuserControlSupport@@@@Z  (Idle)
01:0002C2CC ?_new@userControlSupport_class@@SAXPAPAVuserControlSupport@@@@Z  (Idle)
01:0002C2F4 ?_object_facts_initializer@userControlSupport_class@@SGXQAVuserControlSupport@@@@Z 
01:0002C338 ?handlePaint@userControlSupport_class@@SAXQAVdrawWindowExtension@@@QAVdrawWindow@@@PAUrct_struct@vpiDomains_class@@QAVwindowGDI@@@@Z 
01:0002C354 ?_handleEraseBackground@userControlSupport_class@@SAXQAVdrawWindowExtension@@@QAVdrawWindow@@@PAPAUeraseBackgroundResponse_struct@drawWindow_class@@@Z 
01:0002C370 ?handleMouseDown@userControlSupport_class@@SAXQAVdrawWindowExtension@@@QAVdrawWindow@@@PAUpnt_struct@vpiDomains_class@@PBUkeyModifier@vpiDomains@@H@Z 
01:0002C38C ?handleMouseUp@userControlSupport_class@@SAXQAVdrawWindowExtension@@@QAVdrawWindow@@@PAUpnt_struct@vpiDomains_class@@PBUkeyModifier@vpiDomains@@H@Z 
01:0002C3A8 ?handleMouseMove@userControlSupport_class@@SAXQAVdrawWindowExtension@@@QAVdrawWindow@@@PAUpnt_struct@vpiDomains_class@@PBUkeyModifier@vpiDomains@@PAU?$__list_struct@Uinteger@@@@@Z 
01:0002C3C4 ?handleMouseDbl@userControlSupport_class@@SAXQAVdrawWindowExtension@@@QAVdrawWindow@@@PAUpnt_struct@vpiDomains_class@@PBUkeyModifier@vpiDomains@@H@Z 
01:0002C3E0 ?_handleChar@userControlSupport_class@@SAXQAVdrawWindowExtension@@@QAVdrawWindow@@@HPBUkeyModifier@vpiDomains@@PAPAUcharResponse_struct@drawWindow_class@@@Z 
01:0002C3FC ?_handleKeyDown@userControlSupport_class@@SAXQAVdrawWindowExtension@@@QAVdrawWindow@@@HPBUkeyModifier@vpiDomains@@PAPAUkeyDownResponse_struct@drawWindow_class@@@Z 
01:0002C418 ?_handleKeyUp@userControlSupport_class@@SAXQAVdrawWindowExtension@@@QAVdrawWindow@@@HPBUkeyModifier@vpiDomains@@PAPAUkeyUpResponse_struct@drawWindow_class@@@Z 
01:0002C434 ?handleVScroll@userControlSupport_class@@SAXQAVdrawWindowExtension@@@QAVdrawWindow@@@PBUscrollCode@vpiDomains@@H@Z 
01:0002C450 ?handleHScroll@userControlSupport_class@@SAXQAVdrawWindowExtension@@@QAVdrawWindow@@@PBUscrollCode@vpiDomains@@H@Z 
01:0002C46C ?handleShow@userControlSupport_class@@SAXQAVwindowExtension@@@QAVwindow@@@H@Z 
01:0002C484 ?handleDestroy@userControlSupport_class@@SAXQAVwindowExtension@@@QAVwindow@@@@Z 
01:0002C4A0 ?handleSize@userControlSupport_class@@SAXQAVwindowExtension@@@QAVwindow@@@HH@Z 
01:0002C4BC ?handleMove@userControlSupport_class@@SAXQAVwindowExtension@@@QAVwindow@@@HH@Z 
01:0002C4D8 ?handleFocus@userControlSupport_class@@SAXQAVwindowExtension@@@QAVwindow@@@@Z 
01:0002C4F4 ?handleLoseFocus@userControlSupport_class@@SAXQAVwindowExtension@@@QAVwindow@@@@Z 
01:0002C510 ?handleMenuCommand@userControlSupport_class@@SAXQAVwindowExtension@@@QAVwindow@@@PBUmenuTag@vpiDomains@@@Z 
01:0002C52C ?handleTimer@userControlSupport_class@@SAXQAVwindowExtension@@@QAVwindow@@@PBUtimerId@vpiDomains@@@Z 
01:0002C548 ?_handleNative@userControlSupport_class@@SAXQAVwindowExtension@@@QAVwindow@@@IIHPAPAUnativeResponse_struct@window_class@@@Z 
01:0002C564 ?handleUser@userControlSupport_class@@SAXQAVwindowExtension@@@QAVwindow@@@HH@Z 
01:0002C580 ?handleStateChange@userControlSupport_class@@SAXQAVwindowExtension@@@QAVwindow@@@PAUstateInfo_struct@vpiDomains_class@@@Z 
01:0002C59C ?classInfo@standardControlSupport_class@@SAXPAPB_W0@Z  (Idle)
--- From 'Obj\controls.obj'
01:0002C5B8 ?new@standardControlSupport_class@@SAXQAVstandardControlSupport@@@PBUwintype@vpiDomains@@@Z 
--- From 'Obj\controlsupport.obj'
01:0002C638 ?show@standardControlSupport_class@@SAXQAVwindow@@@@Z 
01:0002C7F8 ?_new@standardControlSupport_class@@SAXPBUwintype@vpiDomains@@PAPAVcontrol@@@@Z  (Idle)
01:0002C820 ?classInfo@nullControlSupport_class@@SAXPAPB_W0@Z  (Idle)
01:0002C83C ?new@nullControlSupport_class@@SAXQAVnullControlSupport@@@QAVcontainerWindow@@@@Z 
01:0002C858 ?new@nullControlSupport_class@@SAXQAVnullControlSupport@@@@Z 
--- From 'Obj\guisupport.obj'
01:0002C8A8 ?_new@nullControlSupport_class@@SAXQAVcontainerWindow@@@PAPAVnullControlSupport@@@@Z 
--- From 'Obj\controlsupport.obj'
01:0002C8D0 ?_new@nullControlSupport_class@@SAXPAPAVnullControlSupport@@@@Z  (Idle)
01:0002C8F8 ?classInfo@drawControlSupport_class@@SAXPAPB_W0@Z 
01:0002C914 ?new@drawControlSupport_class@@SAXQAVdrawControlSupport@@@@Z 
01:0002CA4C ?new@drawControlSupport_class@@SAXQAVdrawControlSupport@@@QAVcontainerWindow@@@@Z 
01:0002CA68 ?_getDefaultUserControlExtension@drawControlSupport_class@@SAXQAVdrawControlSupport@@@PAPAVdrawControlExtension@@@@Z 
01:0002CA7C ?_getUserControlExtension@drawControlSupport_class@@SAXQAVdrawControlSupport@@@PAPAVdrawControlExtension@@@@Z 
01:0002CA90 ?setUserControlExtension@drawControlSupport_class@@SAXQAVdrawControlSupport@@@QAVdrawControlExtension@@@@Z 
01:0002CABC ?setDrawWindowExtension@drawControlSupport_class@@SAXQAVdrawWindow@@@QAVdrawWindowExtension@@@@Z 
01:0002CAD4 ?show@drawControlSupport_class@@SAXQAVwindow@@@@Z 
01:0002CBC8 ?setContainer@drawControlSupport_class@@SAXQAVcontrolSupport@@@QAVcontainerWindow@@@@Z 
01:0002CC6C ?addToParentContainer@drawControlSupport_class@@SAXQAVdrawControlSupport@@@QAVcontainerWindow@@@@Z 
01:0002CCA8 ?redirectEditEvents@drawControlSupport_class@@SAXQAVdrawControlSupport@@@QAVcontrol@@@@Z 
01:0002CCF4 ?redirectTextEvents@drawControlSupport_class@@SAXQAVdrawControlSupport@@@QAVcontrol@@@@Z 
01:0002CD40 ?_onControlEraseBackground@drawControlSupport_class@@SAXQAVdrawControlSupport@@@QAVdrawWindow@@@QAVwindowGDI@@@PAPAUeraseBackgroundResponse_struct@drawWindow_class@@@Z 
01:0002CD54 ?onPaint@drawControlSupport_class@@SAXQAVdrawControlSupport@@@QAVdrawWindow@@@PAUrct_struct@vpiDomains_class@@QAVwindowGDI@@@@Z 
01:0002CD80 ?_onControlNative@drawControlSupport_class@@SAXQAVdrawControlSupport@@@QAVwindow@@@IIHPAPAUnativeResponse_struct@window_class@@@Z 
01:0002CEF0 ?setHorizontalScroll@drawControlSupport_class@@SAXQAVdrawControlSupport@@@@Z 
01:0002CF18 ?setHorizontalScroll@drawControlSupport_class@@SAXQAVdrawControlSupport@@@PAUboolean_struct@_builtIn_class@@@Z 
01:0002CF8C ?_getHorizontalScroll@drawControlSupport_class@@SAXQAVdrawControlSupport@@@PAPAUboolean_struct@_builtIn_class@@@Z 
01:0002CFA0 ?setVerticalScroll@drawControlSupport_class@@SAXQAVdrawControlSupport@@@@Z 
01:0002CFC8 ?setVerticalScroll@drawControlSupport_class@@SAXQAVdrawControlSupport@@@PAUboolean_struct@_builtIn_class@@@Z 
01:0002D03C ?_getVerticalScroll@drawControlSupport_class@@SAXQAVdrawControlSupport@@@PAPAUboolean_struct@_builtIn_class@@@Z 
01:0002D050 ?setTransparent@drawControlSupport_class@@SAXQAVdrawControlSupport@@@@Z 
01:0002D078 ?setTransparent@drawControlSupport_class@@SAXQAVdrawControlSupport@@@PAUboolean_struct@_builtIn_class@@@Z 
01:0002D0EC ?_getTransparent@drawControlSupport_class@@SAXQAVdrawControlSupport@@@PAPAUboolean_struct@_builtIn_class@@@Z 
01:0002D100 ?setBorder@drawControlSupport_class@@SAXQAVdrawControlSupport@@@@Z 
01:0002D128 ?setBorder@drawControlSupport_class@@SAXQAVdrawControlSupport@@@PAUboolean_struct@_builtIn_class@@@Z 
01:0002D19C ?_getBorder@drawControlSupport_class@@SAXQAVdrawControlSupport@@@PAPAUboolean_struct@_builtIn_class@@@Z 
01:0002D1B0 ?_new@drawControlSupport_class@@SAXQAVcontainerWindow@@@PAPAVdrawControlSupport@@@@Z  (Idle)
01:0002D1D8 ?_new@drawControlSupport_class@@SAXPAPAVdrawControlSupport@@@@Z  (Idle)
01:0002D200 ?_object_facts_initializer@drawControlSupport_class@@SGXQAVdrawControlSupport@@@@Z 
01:0002D23C ?handlePaint@drawControlSupport_class@@SAXQAVdrawWindowExtension@@@QAVdrawWindow@@@PAUrct_struct@vpiDomains_class@@QAVwindowGDI@@@@Z 
01:0002D258 ?_handleEraseBackground@drawControlSupport_class@@SAXQAVdrawWindowExtension@@@QAVdrawWindow@@@PAPAUeraseBackgroundResponse_struct@drawWindow_class@@@Z 
01:0002D274 ?handleMouseDown@drawControlSupport_class@@SAXQAVdrawWindowExtension@@@QAVdrawWindow@@@PAUpnt_struct@vpiDomains_class@@PBUkeyModifier@vpiDomains@@H@Z 
01:0002D290 ?handleMouseUp@drawControlSupport_class@@SAXQAVdrawWindowExtension@@@QAVdrawWindow@@@PAUpnt_struct@vpiDomains_class@@PBUkeyModifier@vpiDomains@@H@Z 
01:0002D2AC ?handleMouseMove@drawControlSupport_class@@SAXQAVdrawWindowExtension@@@QAVdrawWindow@@@PAUpnt_struct@vpiDomains_class@@PBUkeyModifier@vpiDomains@@PAU?$__list_struct@Uinteger@@@@@Z 
01:0002D2C8 ?handleMouseDbl@drawControlSupport_class@@SAXQAVdrawWindowExtension@@@QAVdrawWindow@@@PAUpnt_struct@vpiDomains_class@@PBUkeyModifier@vpiDomains@@H@Z 
01:0002D2E4 ?_handleChar@drawControlSupport_class@@SAXQAVdrawWindowExtension@@@QAVdrawWindow@@@HPBUkeyModifier@vpiDomains@@PAPAUcharResponse_struct@drawWindow_class@@@Z 
01:0002D300 ?_handleKeyDown@drawControlSupport_class@@SAXQAVdrawWindowExtension@@@QAVdrawWindow@@@HPBUkeyModifier@vpiDomains@@PAPAUkeyDownResponse_struct@drawWindow_class@@@Z 
01:0002D31C ?_handleKeyUp@drawControlSupport_class@@SAXQAVdrawWindowExtension@@@QAVdrawWindow@@@HPBUkeyModifier@vpiDomains@@PAPAUkeyUpResponse_struct@drawWindow_class@@@Z 
01:0002D338 ?handleVScroll@drawControlSupport_class@@SAXQAVdrawWindowExtension@@@QAVdrawWindow@@@PBUscrollCode@vpiDomains@@H@Z 
01:0002D354 ?handleHScroll@drawControlSupport_class@@SAXQAVdrawWindowExtension@@@QAVdrawWindow@@@PBUscrollCode@vpiDomains@@H@Z 
01:0002D370 ?handleShow@drawControlSupport_class@@SAXQAVwindowExtension@@@QAVwindow@@@H@Z 
01:0002D388 ?handleDestroy@drawControlSupport_class@@SAXQAVwindowExtension@@@QAVwindow@@@@Z 
01:0002D3A4 ?handleSize@drawControlSupport_class@@SAXQAVwindowExtension@@@QAVwindow@@@HH@Z 
01:0002D3C0 ?handleMove@drawControlSupport_class@@SAXQAVwindowExtension@@@QAVwindow@@@HH@Z 
01:0002D3DC ?handleFocus@drawControlSupport_class@@SAXQAVwindowExtension@@@QAVwindow@@@@Z 
01:0002D3F8 ?handleLoseFocus@drawControlSupport_class@@SAXQAVwindowExtension@@@QAVwindow@@@@Z 
01:0002D414 ?handleMenuCommand@drawControlSupport_class@@SAXQAVwindowExtension@@@QAVwindow@@@PBUmenuTag@vpiDomains@@@Z 
01:0002D430 ?handleTimer@drawControlSupport_class@@SAXQAVwindowExtension@@@QAVwindow@@@PBUtimerId@vpiDomains@@@Z 
01:0002D44C ?_handleNative@drawControlSupport_class@@SAXQAVwindowExtension@@@QAVwindow@@@IIHPAPAUnativeResponse_struct@window_class@@@Z 
01:0002D468 ?handleUser@drawControlSupport_class@@SAXQAVwindowExtension@@@QAVwindow@@@HH@Z 
01:0002D484 ?handleStateChange@drawControlSupport_class@@SAXQAVwindowExtension@@@QAVwindow@@@PAUstateInfo_struct@vpiDomains_class@@@Z 
01:0002D4A0 ?classInfo@controlSupport_class@@SAXPAPB_W0@Z 
--- From 'Obj\messagecontrol.obj'
01:0002D4BC ?new@controlSupport_class@@SAXQAVcontrolSupport@@@QAVcontrol@@@@Z 
--- From 'Obj\controlsupport.obj'
01:0002D5D4 ?newId@controlSupport_class@@SAXQAVcontrolSupport@@@QAVcontrol@@@H@Z 
01:0002D5F8 ?_getDefaultControlExtension@controlSupport_class@@SAXQAVcontrolSupport@@@PAPAVcontrolExtension@@@@Z 
01:0002D60C ?_getControlExtension@controlSupport_class@@SAXQAVcontrolSupport@@@PAPAVcontrolExtension@@@@Z 
01:0002D620 ?setControlExtension@controlSupport_class@@SAXQAVcontrolSupport@@@QAVcontrolExtension@@@@Z 
01:0002D660 ?dispatchEvent@controlSupport_class@@SAXQAVcontrolSupport@@@PAUcontrolInfo_struct@vpiDomains_class@@@Z 
01:0002D668 ?dispatchNotification@controlSupport_class@@SAXQAVcontrolSupport@@@PBUunsigned16@@@Z 
01:0002D670 ?_getContainer@controlSupport_class@@SAXQAVcontrolSupport@@@PAPAVcontainerWindow@@@@Z 
01:0002D6C8 ?_tryGetContainer@controlSupport_class@@SAXQAVcontrolSupport@@@PAPAVcontainerWindow@@@@Z 
01:0002D6F0 ?setContainer@controlSupport_class@@SAXQAVcontrolSupport@@@QAVcontainerWindow@@@@Z 
01:0002D80C ?resetContainer@controlSupport_class@@SAXQAVcontrolSupport@@@@Z 
01:0002D960 ?_getCtrlId@controlSupport_class@@SAXQAVcontrolSupport@@@PAH@Z 
01:0002D974 ?setCtrlId@controlSupport_class@@SAXQAVcontrolSupport@@@H@Z 
01:0002D9C0 ?setRect@controlSupport_class@@SAXQAVcontrolSupport@@@PAUrct_struct@vpiDomains_class@@@Z 
01:0002DA34 ?_getRect@controlSupport_class@@SAXQAVcontrolSupport@@@PAPAUrct_struct@vpiDomains_class@@@Z 
01:0002DA48 ?setPosition@controlSupport_class@@SAXQAVcontrolSupport@@@PAUpnt_struct@vpiDomains_class@@@Z 
01:0002DAC4 ?setPosition@controlSupport_class@@SAXQAVcontrolSupport@@@HH@Z 
01:0002DAF0 ?_getPosition@controlSupport_class@@SAXQAVcontrolSupport@@@PAPAUpnt_struct@vpiDomains_class@@@Z 
01:0002DB3C ?getPosition@controlSupport_class@@SAXQAVcontrolSupport@@@PAHPAH@Z 
01:0002DB6C ?setSize@controlSupport_class@@SAXQAVcontrolSupport@@@HH@Z 
01:0002DBE0 ?getSize@controlSupport_class@@SAXQAVcontrolSupport@@@PAHPAH@Z 
01:0002DC30 ?setWidth@controlSupport_class@@SAXQAVcontrolSupport@@@H@Z 
01:0002DC6C ?_getWidth@controlSupport_class@@SAXQAVcontrolSupport@@@PAH@Z 
01:0002DC8C ?setHeight@controlSupport_class@@SAXQAVcontrolSupport@@@H@Z 
01:0002DCC8 ?getHeight@controlSupport_class@@SAXQAVcontrolSupport@@@PAH@Z 
01:0002DCE8 ?setFocus@controlSupport_class@@SAXQAVcontrolSupport@@@@Z 
01:0002DD94 ?onControlSize@controlSupport_class@@SAXQAVcontrolSupport@@@QAVwindow@@@@Z 
01:0002DDA0 ?onControlMove@controlSupport_class@@SAXQAVcontrolSupport@@@QAVwindow@@@@Z 
01:0002DDAC ?onDestroy@controlSupport_class@@SAXQAVcontrolSupport@@@QAVwindow@@@@Z 
01:0002DDC8 ?updateControlUnitRect@controlSupport_class@@SAXQAVcontrolSupport@@@@Z 
01:0002DE74 ?updateLayout@controlSupport_class@@SAXQAVcontrolSupport@@@@Z 
01:0002DF3C ?setTabStop@controlSupport_class@@SAXQAVcontrolSupport@@@@Z 
01:0002DF64 ?setTabStop@controlSupport_class@@SAXQAVcontrolSupport@@@PAUboolean_struct@_builtIn_class@@@Z 
01:0002E020 ?_getTabStop@controlSupport_class@@SAXQAVcontrolSupport@@@PAPAUboolean_struct@_builtIn_class@@@Z 
01:0002E088 ?addValidateResponder@controlSupport_class@@SAXQAVcontrolSupport@@@X@Z 
01:0002E0A8 ?removeValidateResponder@controlSupport_class@@SAXQAVcontrolSupport@@@X@Z 
01:0002E174 ?_validate@controlSupport_class@@SAXQAVcontrolSupport@@@PAPAUvalidateResult_struct@control_class@@@Z 
01:0002E214 ?tryValidateWithErrorDialog@controlSupport_class@@SAXQAVcontrolSupport@@@@Z 
01:0002E294 ?setLabel@controlSupport_class@@SAXQAVcontrolSupport@@@PB_W@Z 
01:0002E2CC ?_getLabel@controlSupport_class@@SAXQAVcontrolSupport@@@PAPB_W@Z 
01:0002E320 ?setAnchors@controlSupport_class@@SAXQAVcontrolSupport@@@PAU?$__list_struct@UanchorEdge@@@@@Z 
01:0002E3D8 ?checkSizeListenerSet@controlSupport_class@@SAXQAVcontrolSupport@@@@Z 
01:0002E4B0 ?removeSizeListener@controlSupport_class@@SAXQAVcontrolSupport@@@@Z 
01:0002E520 ?resetAnchorSize@controlSupport_class@@SAXQAVcontrolSupport@@@@Z 
01:0002E57C ?onAnchoredControlShow@controlSupport_class@@SAXQAVcontrolSupport@@@QAVwindow@@@H@Z 
01:0002E588 ?_determineUnitSize@controlSupport_class@@SAXQAVcontrolSupport@@@QAVdialog@@@QAVcontainerWindow@@@PAPAUpnt_struct@vpiDomains_class@@@Z 
01:0002E630 ?onParentContainerSize@controlSupport_class@@SAXQAVcontrolSupport@@@QAVwindow@@@@Z 
01:0002E818 ?anchorToContainer@controlSupport_class@@SAXQAVcontrolSupport@@@PAUboolean_struct@_builtIn_class@@1PAUanchorDimension_struct@1@HHHPAHPAH@Z 
01:0002E910 ?_getPreviousReminder@controlSupport_class@@SAXQAVcontrolSupport@@@PAUanchorDimension_struct@1@PAH@Z 
01:0002E938 ?fixPreviousReminder@controlSupport_class@@SAXQAVcontrolSupport@@@PAUanchorDimension_struct@1@H@Z 
01:0002E960 ?exploreAnchorList@controlSupport_class@@SAXPAU?$__list_struct@UanchorEdge@@@@PAUboolean_struct@_builtIn_class@@111PAPAU34@555@Z 
01:0002EA14 ?_getAnchors@controlSupport_class@@SAXQAVcontrolSupport@@@PAPAU?$__list_struct@UanchorEdge@@@@@Z 
01:0002EA28 ?_new@controlSupport_class@@SAXQAVcontrol@@@PAPAVcontrolSupport@@@@Z  (Idle)
01:0002EA50 ?_newId@controlSupport_class@@SAXQAVcontrol@@@HPAPAVcontrolSupport@@@@Z  (Idle)
01:0002EA7C ?_class_facts_initializer@controlSupport_class@@SGXXZ 
01:0002EA94 ?_object_facts_initializer@controlSupport_class@@SGXQAVcontrolSupport@@@@Z 
01:0002EAF8 ?handleShow@controlSupport_class@@SAXQAVwindowExtension@@@QAVwindow@@@H@Z 
01:0002EB10 ?handleDestroy@controlSupport_class@@SAXQAVwindowExtension@@@QAVwindow@@@@Z 
01:0002EB2C ?handleSize@controlSupport_class@@SAXQAVwindowExtension@@@QAVwindow@@@HH@Z 
01:0002EB48 ?handleMove@controlSupport_class@@SAXQAVwindowExtension@@@QAVwindow@@@HH@Z 
01:0002EB64 ?handleFocus@controlSupport_class@@SAXQAVwindowExtension@@@QAVwindow@@@@Z 
01:0002EB80 ?handleLoseFocus@controlSupport_class@@SAXQAVwindowExtension@@@QAVwindow@@@@Z 
01:0002EB9C ?handleMenuCommand@controlSupport_class@@SAXQAVwindowExtension@@@QAVwindow@@@PBUmenuTag@vpiDomains@@@Z 
01:0002EBB8 ?handleTimer@controlSupport_class@@SAXQAVwindowExtension@@@QAVwindow@@@PBUtimerId@vpiDomains@@@Z 
01:0002EBD4 ?_handleNative@controlSupport_class@@SAXQAVwindowExtension@@@QAVwindow@@@IIHPAPAUnativeResponse_struct@window_class@@@Z 
01:0002EBF0 ?handleUser@controlSupport_class@@SAXQAVwindowExtension@@@QAVwindow@@@HH@Z 
01:0002EC0C ?handleStateChange@controlSupport_class@@SAXQAVwindowExtension@@@QAVwindow@@@PAUstateInfo_struct@vpiDomains_class@@@Z 
01:0002EC28 ?new@commonControlSupport_class@@SAXQAVcommonControlSupport@@@QAVcontrol@@@PB_W@Z 
01:0002EC8C ?show@commonControlSupport_class@@SAXQAVwindow@@@@Z 
01:0002EDE0 ?_sendMessageIfShown@commonControlSupport_class@@SAXQAVcommonControlSupport@@@IIIPAH@Z 
01:0002EE44 ?setOrClearStyleBits@commonControlSupport_class@@SAXQAVcommonControlSupport@@@PAUboolean_struct@_builtIn_class@@I@Z 
01:0002EF20 ?_areStyleBitsSet@commonControlSupport_class@@SAXQAVcommonControlSupport@@@IPAPAUboolean_struct@_builtIn_class@@@Z 
01:0002EF64 ?classInfo@commonControlSupport_class@@SAXPAPB_W0@Z 
01:0002EF80 ?_new@commonControlSupport_class@@SAXQAVcontrol@@@PB_WPAPAVcommonControlSupport@@@@Z  (Idle)
01:0002EFAC ?_object_facts_initializer@commonControlSupport_class@@SGXQAVcommonControlSupport@@@@Z 
01:00032144 userControlSupport?_initObject@@@QAGXQAV1@H@Z 
01:000321A0 ?@create_object@userControlSupport_class@@SGQAVuserControlSupport@@@XZ 
01:000321BC userControlSupport?_InternalFinalizer@@@QAGXQAV1@@Z 
--- From 'Obj\controls.obj'
01:0003356C standardControlSupport?_initObject@@@QAGXQAV1@H@Z 
--- From 'Obj\controlsupport.obj'
01:000335B4 ?@create_object@standardControlSupport_class@@SGQAVstandardControlSupport@@@XZ 
--- From 'Obj\controls.obj'
01:000335D0 standardControlSupport?_InternalFinalizer@@@QAGXQAV1@@Z 
--- From 'Obj\controlsupport.obj'
01:00035060 nullControlSupport?_initObject@@@QAGXQAV1@H@Z 
01:00035084 ?@create_object@nullControlSupport_class@@SGQAVnullControlSupport@@@XZ 
01:000350A0 nullControlSupport?_InternalFinalizer@@@QAGXQAV1@@Z 
01:00038270 drawControlSupport?_initObject@@@QAGXQAV1@H@Z 
01:000382C8 ?@create_object@drawControlSupport_class@@SGQAVdrawControlSupport@@@XZ 
01:000382E4 drawControlSupport?_InternalFinalizer@@@QAGXQAV1@@Z 
--- From 'Obj\messagecontrol.obj'
01:00038544 controlSupport?_initObject@@@QAGXQAV1@H@Z 
--- From 'Obj\controlsupport.obj'
01:00038574 ?@create_object@controlSupport_class@@SGQAVcontrolSupport@@@XZ 
--- From 'Obj\messagecontrol.obj'
01:00038590 controlSupport?_InternalFinalizer@@@QAGXQAV1@@Z 
--- From 'Obj\controlsupport.obj'
01:00039934 commonControlSupport?_initObject@@@QAGXQAV1@H@Z 
01:00039980 ?@create_object@commonControlSupport_class@@SGQAVcommonControlSupport@@@XZ 
01:0003999C commonControlSupport?_InternalFinalizer@@@QAGXQAV1@@Z 
--- From 'Obj\templateexpander.obj'
01:000399C0 ?substitute@templateExpander_class@@SAXQAVinputStream@@@QAVoutputStream@@@PB_WX@Z  (Idle)
--- From 'Obj\controls.obj'
01:000399E8 ?substitute_string@templateExpander_class@@SAXPB_WQAVoutputStream@@@0X@Z 
--- From 'Obj\templateexpander.obj'
01:00039A10 ?substitute_regExp@templateExpander_class@@SAXQAVinputStream@@@QAVoutputStream@@@QAV4@@X@Z 
01:00039A78 ?substitute_line@templateExpander_class@@SAXPB_WQAVoutputStream@@@QAVregExp@@@X@Z 
01:00039B78 ?classInfo@templateExpander_class@@SAXPAPB_W0@Z  (Idle)
--- From 'Obj\errorpresentationdialog.obj'
01:00039BA0 ?classInfo@errorPresentationDialog_class@@SAXPAPB_W0@Z  (Idle)
01:00039BBC ?copyErrorReport@errorPresentationDialog_class@@SAXQAVwindow@@@PAUoptional_struct@core_class@@PAUtraceInfo_struct@exception_class@@PB_W2@Z 
01:00039C04 ?nullExtraInfoWriter@errorPresentationDialog_class@@SAXQAVoutputStream@@@@Z 
01:00039C0C ?_formatTraceAndExtra@errorPresentationDialog_class@@SAXPB_WPAUoptional_struct@core_class@@PAUtraceInfo_struct@exception_class@@0PAPB_W@Z 
01:00039CC8 ?_extraInfo@errorPresentationDialog_class@@SAXQAVerrorPresentationDialog@@@PAPB_W@Z 
01:00039D84 ?displayDefiniteUserError@errorPresentationDialog_class@@SAXPB_W@Z  (Idle)
01:00039DC4 ?displayDefiniteUserError@errorPresentationDialog_class@@SAXQAVwindow@@@PB_W@Z 
01:00039E00 ?displayUserError@errorPresentationDialog_class@@SAXPB_WPAUtraceInfo_struct@exception_class@@@Z  (Idle)
01:00039E48 ?displayUserError@errorPresentationDialog_class@@SAXQAVwindow@@@PB_WPAUtraceInfo_struct@exception_class@@@Z 
01:00039E74 ?displayInternalError@errorPresentationDialog_class@@SAXPAUtraceInfo_struct@exception_class@@@Z  (Idle)
01:00039EB4 ?displayInternalError@errorPresentationDialog_class@@SAXQAVwindow@@@PAUtraceInfo_struct@exception_class@@@Z 
01:00039EDC ?displayError@errorPresentationDialog_class@@SAXPAUtraceInfo_struct@exception_class@@@Z  (Idle)
01:00039F1C ?displayError@errorPresentationDialog_class@@SAXQAVwindow@@@PAUtraceInfo_struct@exception_class@@@Z 
01:00039F74 ?displayFeedback@errorPresentationDialog_class@@SAXXZ  (Idle)
01:00039FA8 ?displayFeedback@errorPresentationDialog_class@@SAXQAVwindow@@@@Z 
01:00039FCC ?_getPrettyUserMsg@errorPresentationDialog_class@@SAXPAU?$__list_struct@Udescriptor@exception@@@@PAPB_W@Z 
01:0003A07C ?getPrettyUserMsg_dt@errorPresentationDialog_class@@SAXPAUdescriptor_struct@exception_class@@PAPB_W@Z 
01:0003A098 ?getPrettyUserMsgFromNV_dt@errorPresentationDialog_class@@SAXPAU?$__list_struct@UnamedValue@@@@PAPB_W@Z 
01:0003A13C ?_fillUsrMsgTags@errorPresentationDialog_class@@SAXPB_WPAU?$__list_struct@UnamedValue@@@@PAPB_W@Z 
01:0003A218 ?_substituteTag@errorPresentationDialog_class@@SAXPB_WPAU?$__list_struct@UnamedValue@@@@PAPB_W@Z 
01:0003A264 ?_lookupValue_dt@errorPresentationDialog_class@@SAXPAU?$__list_struct@UnamedValue@@@@PB_WPAPAUvalue_struct@core_class@@@Z 
01:0003A2C8 ?_value2String@errorPresentationDialog_class@@SAXPAUvalue_struct@core_class@@PAPB_W@Z 
01:0003A4DC ?newUserError@errorPresentationDialog_class@@SAXQAVerrorPresentationDialog@@@QAVwindow@@@PB_WPAUtraceInfo_struct@exception_class@@@Z 
01:0003A528 ?newInternalError@errorPresentationDialog_class@@SAXQAVerrorPresentationDialog@@@QAVwindow@@@PAUtraceInfo_struct@exception_class@@@Z 
01:0003A5C8 ?newFeedback@errorPresentationDialog_class@@SAXQAVerrorPresentationDialog@@@QAVwindow@@@@Z 
01:0003A624 ?commonNew@errorPresentationDialog_class@@SAXQAVerrorPresentationDialog@@@QAVwindow@@@PBUresid@vpiDomains@@PB_WPAUoptional_struct@core_class@@PAUtraceInfo_struct@exception_class@@@Z 
01:0003A728 ?_onShowDetails@errorPresentationDialog_class@@SAXQAVerrorPresentationDialog@@@QAVbutton@@@PAPAUactionResponse_struct@button_class@@@Z 
01:0003A740 ?_onHideDetails@errorPresentationDialog_class@@SAXQAVerrorPresentationDialog@@@QAVbutton@@@PAPAUactionResponse_struct@button_class@@@Z 
01:0003A758 ?showDetails@errorPresentationDialog_class@@SAXQAVerrorPresentationDialog@@@@Z 
01:0003A8A4 ?hideDetails@errorPresentationDialog_class@@SAXQAVerrorPresentationDialog@@@@Z 
01:0003A93C ?makeRoomForDetails@errorPresentationDialog_class@@SAXQAVerrorPresentationDialog@@@H@Z 
01:0003A9B4 ?present@errorPresentationDialog_class@@SAXPBUtraceId@exception@@@Z 
--- From 'Obj\gui.obj'
01:0003A9E4 ?present@errorPresentationDialog_class@@SAXQAVapplicationWindow@@@PBUtraceId@exception@@@Z 
--- From 'Obj\errorpresentationdialog.obj'
01:0003AB00 ?anonymous$1$presentasynchronously/1@errorPresentationDialog_class@@SAXPAUanonymous$1$presentasynchronously/1c_struct@1@@Z 
01:0003AB18 ?presentAsynchronously@errorPresentationDialog_class@@SAXPBUtraceId@exception@@@Z  (Idle)
01:0003AB74 ?_onReportErrorClick@errorPresentationDialog_class@@SAXQAVerrorPresentationDialog@@@QAVbutton@@@PAPAUactionResponse_struct@button_class@@@Z 
01:0003AC90 ?_onCloseAppClick@errorPresentationDialog_class@@SAXQAVerrorPresentationDialog@@@QAVbutton@@@PAPAUactionResponse_struct@button_class@@@Z 
01:0003ACBC ?generatedInitialize@errorPresentationDialog_class@@SAXQAVerrorPresentationDialog@@@@Z 
01:0003B518 ?_newUserError@errorPresentationDialog_class@@SAXQAVwindow@@@PB_WPAUtraceInfo_struct@exception_class@@PAPAVerrorPresentationDialog@@@@Z 
01:0003B548 ?_newInternalError@errorPresentationDialog_class@@SAXQAVwindow@@@PAUtraceInfo_struct@exception_class@@PAPAVerrorPresentationDialog@@@@Z 
01:0003B574 ?_newFeedback@errorPresentationDialog_class@@SAXQAVwindow@@@PAPAVerrorPresentationDialog@@@@Z 
01:0003B59C ?_commonNew@errorPresentationDialog_class@@SAXQAVwindow@@@PBUresid@vpiDomains@@PB_WPAUoptional_struct@core_class@@PAUtraceInfo_struct@exception_class@@PAPAVerrorPresentationDialog@@@@Z  (Idle)
01:0003B5D0 ?_class_facts_initializer@errorPresentationDialog_class@@SGXXZ 
01:0003B668 ?title@errorPresentationDialog_class@@SAXPB_W@Z  (Idle)
01:0003B678 ?_title@errorPresentationDialog_class@@SAXPAPB_W@Z  (Idle)
01:0003B68C ?internalErrorMessage@errorPresentationDialog_class@@SAXPB_W@Z  (Idle)
01:0003B69C ?_internalErrorMessage@errorPresentationDialog_class@@SAXPAPB_W@Z  (Idle)
01:0003B6B0 ?commentTextPromt@errorPresentationDialog_class@@SAXPB_W@Z  (Idle)
01:0003B6C0 ?_commentTextPromt@errorPresentationDialog_class@@SAXPAPB_W@Z  (Idle)
01:0003B6D4 ?feedbackMessage@errorPresentationDialog_class@@SAXPB_W@Z  (Idle)
01:0003B6E4 ?_feedbackMessage@errorPresentationDialog_class@@SAXPAPB_W@Z  (Idle)
01:0003B6F8 ?callBackBtnText@errorPresentationDialog_class@@SAXPB_W@Z  (Idle)
01:0003B708 ?_callBackBtnText@errorPresentationDialog_class@@SAXPAPB_W@Z  (Idle)
01:0003B71C ?dontCallBackBtnText@errorPresentationDialog_class@@SAXPB_W@Z  (Idle)
01:0003B72C ?_dontCallBackBtnText@errorPresentationDialog_class@@SAXPAPB_W@Z  (Idle)
01:0003B740 ?showDetailsBtnText@errorPresentationDialog_class@@SAXPB_W@Z  (Idle)
01:0003B750 ?_showDetailsBtnText@errorPresentationDialog_class@@SAXPAPB_W@Z  (Idle)
01:0003B764 ?hideDetailsBtnText@errorPresentationDialog_class@@SAXPB_W@Z  (Idle)
01:0003B774 ?_hideDetailsBtnText@errorPresentationDialog_class@@SAXPAPB_W@Z  (Idle)
01:0003B788 ?closeApplicationBtnText@errorPresentationDialog_class@@SAXPB_W@Z  (Idle)
01:0003B798 ?_closeApplicationBtnText@errorPresentationDialog_class@@SAXPAPB_W@Z  (Idle)
01:0003B7AC ?definiteUserErrorIcon@errorPresentationDialog_class@@SAXPBUresid@vpiDomains@@@Z  (Idle)
01:0003B7BC ?_definiteUserErrorIcon@errorPresentationDialog_class@@SAXAAUresid@vpiDomains@@@Z  (Idle)
01:0003B7D0 ?userErrorIcon@errorPresentationDialog_class@@SAXPBUresid@vpiDomains@@@Z  (Idle)
01:0003B7E0 ?_userErrorIcon@errorPresentationDialog_class@@SAXAAUresid@vpiDomains@@@Z  (Idle)
01:0003B7F4 ?internalErrorIcon@errorPresentationDialog_class@@SAXPBUresid@vpiDomains@@@Z  (Idle)
01:0003B804 ?_internalErrorIcon@errorPresentationDialog_class@@SAXAAUresid@vpiDomains@@@Z  (Idle)
01:0003B818 ?reportErrorDelegate@errorPresentationDialog_class@@SAXX@Z  (Idle)
01:0003B828 ?_reportErrorDelegate@errorPresentationDialog_class@@SAXPAX@Z  (Idle)
01:0003B83C ?extraInfoWriter@errorPresentationDialog_class@@SAXX@Z  (Idle)
01:0003B84C ?_extraInfoWriter@errorPresentationDialog_class@@SAXPAX@Z  (Idle)
01:0003D088 errorPresentationDialog?_initObject@@@QAGXQAV1@H@Z 
01:0003D0C4 ?@create_object@errorPresentationDialog_class@@SGQAVerrorPresentationDialog@@@XZ 
01:0003D0E0 errorPresentationDialog?_InternalFinalizer@@@QAGXQAV1@@Z 
--- From 'Obj\multithread.obj'
01:0003D0F0 ?classInfo@waitableTimer_class@@SAXPAPB_W0@Z  (Idle)
01:0003D10C ?create@waitableTimer_class@@SAXQAVwaitableTimer@@@PAUboolean_struct@_builtIn_class@@@Z 
01:0003D138 ?createNamed@waitableTimer_class@@SAXQAVwaitableTimer@@@PB_WPAUboolean_struct@_builtIn_class@@@Z 
01:0003D168 ?openTimer@waitableTimer_class@@SAXQAVwaitableTimer@@@PB_W@Z 
01:0003D1A8 ?setTimer@waitableTimer_class@@SAXQAVwaitableTimer@@@PAPBUtimeIntervalValue@@HPAUboolean_struct@_builtIn_class@@@Z 
01:0003D1D0 ?setTimer@waitableTimer_class@@SAXQAVwaitableTimer@@@PAPBUtimeIntervalValue@@HXPAXPAUboolean_struct@_builtIn_class@@@Z 
01:0003D1F8 ?freeze@waitableTimer_class@@SAXQAVwaitableTimer@@@@Z 
01:0003D220 ?_create@waitableTimer_class@@SAXPAUboolean_struct@_builtIn_class@@PAPAVwaitableTimer@@@@Z  (Idle)
01:0003D248 ?_createNamed@waitableTimer_class@@SAXPB_WPAUboolean_struct@_builtIn_class@@PAPAVwaitableTimer@@@@Z  (Idle)
01:0003D274 ?_openTimer@waitableTimer_class@@SAXPB_WPAPAVwaitableTimer@@@@Z  (Idle)
01:0003D29C ?classInfo@thread_class@@SAXPAPB_W0@Z 
01:0003D2B8 ?start@thread_class@@SAXQAVthread@@@X@Z 
01:0003D2F0 ?start@thread_class@@SAXQAVthread@@@XPBUbyteCount@@@Z 
01:0003D324 ?createSuspended@thread_class@@SAXQAVthread@@@X@Z 
01:0003D35C ?createSuspended@thread_class@@SAXQAVthread@@@XPBUbyteCount@@@Z 
01:0003D394 ?_getThreadId@thread_class@@SAXQAVthread@@@PAI@Z 
01:0003D3A8 ?threadEntry@thread_class@@SGIPAX@Z 
01:0003D3DC ?create@thread_class@@SAXQAVthread@@@XPBUbyteCount@@I@Z 
01:0003D454 ?attach@thread_class@@SAXQAVthread@@@PBUthreadHandle@multiThread_native@@@Z 
01:0003D480 ?attach@thread_class@@SAXQAVthread@@@PBUthreadHandle@multiThread_native@@I@Z 
01:0003D4A0 ?_getPriority@thread_class@@SAXQAVthread@@@AAUthreadPriority@multiThread_native@@@Z 
01:0003D4EC ?setPriority@thread_class@@SAXQAVthread@@@PBUthreadPriority@multiThread_native@@@Z 
01:0003D534 ?_suspend@thread_class@@SAXQAVthread@@@AAUunsigned32@@@Z 
01:0003D57C ?_resume@thread_class@@SAXQAVthread@@@AAUunsigned32@@@Z 
01:0003D5C4 ?isActive@thread_class@@SAXQAVthread@@@@Z 
01:0003D5F0 ?getExitCode@thread_class@@SAXQAVthread@@@AAUunsigned32@@@Z 
01:0003D638 ?terminate@thread_class@@SAXQAVthread@@@PBUunsigned32@@@Z 
01:0003D680 ?getTimes@thread_class@@SAXQAVthread@@@PAAAUgmtTimeValue@@111@Z 
01:0003D764 ?assertKeepAlive@thread_class@@SAXX@Z 
01:0003D848 ?retractKeepAlive@thread_class@@SAXX@Z 
01:0003D9BC ?raise_@thread_class@@SAXPB_W@Z 
01:0003D9E4 ?_start@thread_class@@SAXXPAPAVthread@@@@Z  (Idle)
01:0003DA0C ?_start@thread_class@@SAXXPBUbyteCount@@PAPAVthread@@@@Z  (Idle)
01:0003DA38 ?_createSuspended@thread_class@@SAXXPAPAVthread@@@@Z  (Idle)
01:0003DA60 ?_createSuspended@thread_class@@SAXXPBUbyteCount@@PAPAVthread@@@@Z  (Idle)
01:0003DA8C ?_attach@thread_class@@SAXPBUthreadHandle@multiThread_native@@PAPAVthread@@@@Z  (Idle)
01:0003DAB4 ?_attach@thread_class@@SAXPBUthreadHandle@multiThread_native@@IPAPAVthread@@@@Z  (Idle)
01:0003DAE0 ?_create@thread_class@@SAXXPBUbyteCount@@IPAPAVthread@@@@Z  (Idle)
01:0003DB10 ?_class_facts_initializer@thread_class@@SGXXZ 
01:0003DB28 ?classInfo@syncObject_class@@SAXPAPB_W0@Z 
01:0003DB44 ?new@syncObject_class@@SAXQAVsyncObject@@@PBUsyncHandle@windowsAPI@@PAUboolean_struct@_builtIn_class@@@Z 
01:0003DB88 ?_getHandle@syncObject_class@@SAXQAVsyncObject@@@AAUsyncHandle@windowsAPI@@@Z 
01:0003DB9C ?_wait@syncObject_class@@SAXQAVsyncObject@@@PAI@Z 
01:0003DBC8 ?wait@syncObject_class@@SAXQAVsyncObject@@@IPAI@Z 
01:0003DCC0 $waitAny$syncObject$predicate$(i,o)$b$_c2  (Idle)
01:0003DCEC $waitAll$syncObject$predicate$(i,o)$b$_c4  (Idle)
01:0003DD18 $waitAll$syncObject$predicate$(i,i,o)$b$_c5 
01:0003DD50 $waitAny$syncObject$predicate$(i,i,o)$b$_c3 
01:0003DD84 ?close@syncObject_class@@SAXQAVsyncObject@@@@Z 
01:0003DE28 ?finalize@syncObject_class@@SGXQAVsyncObject@@@@Z 
01:0003DE5C $waitList$syncObject$predicate$(i,i,i,o)$c$_m6 
01:0003DF30 $copyHandles$syncObject$predicate$(i,i)$c$_m8 
01:0003DFA4 ?_new@syncObject_class@@SAXPBUsyncHandle@windowsAPI@@PAUboolean_struct@_builtIn_class@@PAPAVsyncObject@@@@Z  (Idle)
01:0003DFD0 ?_object_facts_initializer@syncObject_class@@SGXQAVsyncObject@@@@Z 
01:0003DFE8 ?classInfo@semaphore_class@@SAXPAPB_W0@Z  (Idle)
01:0003E004 ?create@semaphore_class@@SAXQAVsemaphore@@@II@Z 
01:0003E038 ?createNamed@semaphore_class@@SAXQAVsemaphore@@@PB_WII@Z 
01:0003E06C ?openSemaphore@semaphore_class@@SAXQAVsemaphore@@@PB_W@Z 
01:0003E0AC ?_release@semaphore_class@@SAXQAVsemaphore@@@IPAI@Z 
01:0003E0D4 ?_create@semaphore_class@@SAXIIPAPAVsemaphore@@@@Z  (Idle)
01:0003E100 ?_createNamed@semaphore_class@@SAXPB_WIIPAPAVsemaphore@@@@Z  (Idle)
01:0003E130 ?_openSemaphore@semaphore_class@@SAXPB_WPAPAVsemaphore@@@@Z  (Idle)
01:0003E158 ?classInfo@mutex_class@@SAXPAPB_W0@Z 
01:0003E174 ?create@mutex_class@@SAXQAVmutex@@@PAUboolean_struct@_builtIn_class@@@Z 
01:0003E1A0 ?createNamed@mutex_class@@SAXQAVmutex@@@PB_WPAUboolean_struct@_builtIn_class@@@Z 
01:0003E1E0 ?createOrOpenNamed@mutex_class@@SAXQAVmutex@@@PB_W@Z 
01:0003E224 ?openMutex@mutex_class@@SAXQAVmutex@@@PB_W@Z 
01:0003E264 ?release@mutex_class@@SAXQAVmutex@@@@Z 
01:0003E28C ?checkAlreadyExist@mutex_class@@SAXPBUsyncHandle@windowsAPI@@PB_W@Z 
01:0003E34C ?_handlingNullString@mutex_class@@SAXPB_WPAPB_W@Z 
--- From 'Obj\guisupport.obj'
01:0003E374 ?_create@mutex_class@@SAXPAUboolean_struct@_builtIn_class@@PAPAVmutex@@@@Z 
--- From 'Obj\multithread.obj'
01:0003E39C ?_createNamed@mutex_class@@SAXPB_WPAUboolean_struct@_builtIn_class@@PAPAVmutex@@@@Z  (Idle)
01:0003E3C8 ?_createOrOpenNamed@mutex_class@@SAXPB_WPAPAVmutex@@@@Z  (Idle)
01:0003E3F0 ?_openMutex@mutex_class@@SAXPB_WPAPAVmutex@@@@Z  (Idle)
01:0003E418 ?classInfo@event_class@@SAXPAPB_W0@Z  (Idle)
01:0003E434 ?create@event_class@@SAXQAVevent@@@PAUboolean_struct@_builtIn_class@@1@Z 
01:0003E468 ?createNamed@event_class@@SAXQAVevent@@@PB_WPAUboolean_struct@_builtIn_class@@2@Z 
01:0003E49C ?openEvent@event_class@@SAXQAVevent@@@PB_W@Z 
01:0003E4DC ?setSignaled@event_class@@SAXQAVevent@@@PAUboolean_struct@_builtIn_class@@@Z 
01:0003E534 ?pulse@event_class@@SAXQAVevent@@@@Z 
01:0003E55C ?_create@event_class@@SAXPAUboolean_struct@_builtIn_class@@0PAPAVevent@@@@Z  (Idle)
01:0003E588 ?_createNamed@event_class@@SAXPB_WPAUboolean_struct@_builtIn_class@@1PAPAVevent@@@@Z  (Idle)
01:0003E5B8 ?_openEvent@event_class@@SAXPB_WPAPAVevent@@@@Z  (Idle)
01:0003E5E0 ?classInfo@consoleSync_class@@SAXPAPB_W0@Z 
01:0003E5FC ?create@consoleSync_class@@SAXQAVconsoleSync@@@@Z 
01:0003E658 ?checkHandle@consoleSync_class@@SAXPBUfileHandle@@@Z 
01:0003E690 ?_create@consoleSync_class@@SAXPAPAVsyncObject@@@@Z  (Idle)
01:0003E6B8 ?classInfo@criticalSection_class@@SAXPAPB_W0@Z 
01:0003E6D4 ?new@criticalSection_class@@SAXQAVcriticalSection@@@@Z 
01:0003E724 ?new@criticalSection_class@@SAXQAVcriticalSection@@@I@Z 
01:0003E7A8 ?enter@criticalSection_class@@SAXQAVcriticalSection@@@@Z 
01:0003E7D4 ?tryEnter@criticalSection_class@@SAXQAVcriticalSection@@@@Z 
01:0003E810 ?leave@criticalSection_class@@SAXQAVcriticalSection@@@@Z 
01:0003E83C ?_setSpinCount@criticalSection_class@@SAXQAVcriticalSection@@@IPAI@Z 
01:0003E870 ?delete@criticalSection_class@@SAXQAVcriticalSection@@@@Z 
01:0003E8AC ?finalize@criticalSection_class@@SGXQAVcriticalSection@@@@Z 
--- From 'Obj\gui.obj'
01:0003E8D8 ?_new@criticalSection_class@@SAXPAPAVcriticalSection@@@@Z 
--- From 'Obj\multithread.obj'
01:0003E900 ?_new@criticalSection_class@@SAXIPAPAVcriticalSection@@@@Z  (Idle)
01:0003E928 ?_object_facts_initializer@criticalSection_class@@SGXQAVcriticalSection@@@@Z 
01:0003E99C waitableTimer?_initObject@@@QAGXQAV1@H@Z 
01:0003E9C4 ?@create_object@waitableTimer_class@@SGQAVwaitableTimer@@@XZ 
01:0003E9E0 waitableTimer?_InternalFinalizer@@@QAGXQAV1@@Z 
01:0003EA48 thread?_initObject@@@QAGXQAV1@H@Z 
01:0003EA78 ?@create_object@thread_class@@SGQAVthread@@@XZ 
01:0003EA94 thread?_InternalFinalizer@@@QAGXQAV1@@Z 
01:0003EAAC syncObject?_initObject@@@QAGXQAV1@H@Z 
01:0003EACC ?@create_object@syncObject_class@@SGQAVsyncObject@@@XZ 
01:0003EAE8 syncObject?_InternalFinalizer@@@QAGXQAV1@@Z 
01:0003EB88 semaphore?_initObject@@@QAGXQAV1@H@Z 
01:0003EBB0 ?@create_object@semaphore_class@@SGQAVsemaphore@@@XZ 
01:0003EBCC semaphore?_InternalFinalizer@@@QAGXQAV1@@Z 
01:0003EC34 mutex?_initObject@@@QAGXQAV1@H@Z 
01:0003EC5C ?@create_object@mutex_class@@SGQAVmutex@@@XZ 
01:0003EC78 mutex?_InternalFinalizer@@@QAGXQAV1@@Z 
01:0003ECE0 event?_initObject@@@QAGXQAV1@H@Z 
01:0003ED08 ?@create_object@event_class@@SGQAVevent@@@XZ 
01:0003ED24 event?_InternalFinalizer@@@QAGXQAV1@@Z 
01:0003ED8C consoleSync?_initObject@@@QAGXQAV1@H@Z 
01:0003EDB4 ?@create_object@consoleSync_class@@SGQAVconsoleSync@@@XZ 
01:0003EDD0 consoleSync?_InternalFinalizer@@@QAGXQAV1@@Z 
01:0003EDE8 criticalSection?_initObject@@@QAGXQAV1@H@Z 
01:0003EE0C ?@create_object@criticalSection_class@@SGQAVcriticalSection@@@XZ 
01:0003EE28 criticalSection?_InternalFinalizer@@@QAGXQAV1@@Z 
--- From 'Obj\multithread_api.obj'
01:0003EE70 ?classInfo@multiThread_api_class@@SAXPAPB_W0@Z 
01:0003EE8C ?_createEvent@multiThread_api_class@@SAXPB_WPAUboolean_struct@_builtIn_class@@1AAUsyncHandle@windowsAPI@@@Z 
01:0003EFB8 ?_openEvent@multiThread_api_class@@SAXPB_WAAUsyncHandle@windowsAPI@@@Z 
01:0003F008 ?setEvent@multiThread_api_class@@SAXPBUsyncHandle@@@Z 
01:0003F09C ?error@multiThread_api_class@@SAXPBUsyncHandle@windowsAPI@@PB_W@Z 
01:0003F114 ?resetEvent@multiThread_api_class@@SAXPBUsyncHandle@@@Z 
01:0003F140 ?pulseEvent@multiThread_api_class@@SAXPBUsyncHandle@windowsAPI@@@Z 
01:0003F1D4 ?_createMutex@multiThread_api_class@@SAXPB_WPAUboolean_struct@_builtIn_class@@AAUsyncHandle@@@Z 
01:0003F290 ?_openMutex@multiThread_api_class@@SAXPB_WAAUsyncHandle@windowsAPI@@@Z 
01:0003F2E0 ?releaseMutex@multiThread_api_class@@SAXPBUsyncHandle@windowsAPI@@@Z 
01:0003F30C ?_createSemaphore@multiThread_api_class@@SAXPB_WIIAAUsyncHandle@windowsAPI@@@Z 
01:0003F414 ?_openSemaphore@multiThread_api_class@@SAXPB_WAAUsyncHandle@@@Z 
01:0003F464 ?_releaseSemaphore@multiThread_api_class@@SAXPBUsyncHandle@@IPAI@Z 
01:0003F548 ?_createWaitableTimer@multiThread_api_class@@SAXPB_WPAUboolean_struct@_builtIn_class@@AAUsyncHandle@@@Z 
01:0003F618 ?_openWaitableTimer@multiThread_api_class@@SAXPB_WAAUsyncHandle@@@Z 
01:0003F668 ?setWaitableTimer@multiThread_api_class@@SAXPBUsyncHandle@@PAPBUtimeIntervalValue@@HPAUboolean_struct@_builtIn_class@@@Z 
01:0003F6B0 ?setWaitableTimer@multiThread_api_class@@SAXPBUsyncHandle@@PAPBUtimeIntervalValue@@HXPAXPAUboolean_struct@_builtIn_class@@@Z 
01:0003F864 ?cancelWaitableTimer@multiThread_api_class@@SAXPBUsyncHandle@@@Z 
01:0003F890 ?_handlingNullString@multiThread_api_class@@SAXPB_WPAPB_W@Z 
01:0003F8B8 ?checkHandle@multiThread_api_class@@SAXPBUsyncHandle@windowsAPI@@PB_W1PAU?$__list_struct@UnamedValue@@@@@Z 
01:0003F950 ?checkAlreadyExist@multiThread_api_class@@SAXPBUhandle@@PB_W@Z 
--- From 'Obj\outputstreamsupport.obj'
01:0003FA10 ?classInfo@outputSupport_class@@SAXPAPB_W0@Z 
--- From 'Obj\binary.obj'
01:0003FA2C ?new@outputSupport_class@@SAXQAVoutputSupport@@@QAVoutputBuffer@@@PAUmode_struct@stream_class@@PAUboolean_struct@_builtIn_class@@@Z 
--- From 'Obj\outputstreamsupport.obj'
01:0003FA6C ?setMode@outputSupport_class@@SGXQAVstream@@@PAUmode_struct@stream_class@@@Z 
01:0003FAA4 ?getMode@outputSupport_class@@SGPAUmode_struct@stream_class@@QAVstream@@@@Z 
01:0003FAD0 ?flush@outputSupport_class@@SGXQAVoutputStream@@@@Z 
01:0003FAF0 ?getPosition@outputSupport_class@@SG_KQAVstream@@@@Z 
01:0003FB08 ?setPosition@outputSupport_class@@SGXQAVstream@@@_K@Z 
01:0003FB20 ?getCRLFconversion@outputSupport_class@@SGPAUboolean_struct@_builtIn_class@@QAVstream@@@@Z 
01:0003FB34 ?setCRLFconversion@outputSupport_class@@SGXQAVstream@@@PAUboolean_struct@_builtIn_class@@@Z 
01:0003FB5C ?close@outputSupport_class@@SGXQAVstream@@@@Z 
01:0003FB6C ?_getFlushProcedure@outputSupport_class@@SAXQAVoutputSupport@@@PAUboolean_struct@_builtIn_class@@PAX@Z 
01:0003FBD4 ?doFlush@outputSupport_class@@SAXQAVoutputSupport@@@@Z 
01:0003FBE4 ?doNotFlush@outputSupport_class@@SAXQAVoutputSupport@@@@Z 
01:0003FBEC ?write@outputSupport_class@@SAXQAVoutputStream@@@@Z 
01:0003FC44 ?writeQuoted@outputSupport_class@@SAXQAVoutputStream@@@@Z 
01:0003FCAC ?writef@outputSupport_class@@SAXQAVoutputStream@@@PB_W@Z 
01:0003FD50 ?nl@outputSupport_class@@SGXQAVoutputStream@@@@Z 
01:0003FD90 ?save@outputSupport_class@@SGXQAVoutputStream@@@PBUfactDB@@@Z 
01:0003FDF8 ?writeBytes@outputSupport_class@@SGXQAVoutputStream@@@PAXPBUbyteCount@@@Z 
01:0003FEB4 ?checkMode_text@outputSupport_class@@SAXQAVoutputSupport@@@PB_W@Z 
--- From 'Obj\messagecontrol.obj'
01:0003FEF8 ?_new@outputSupport_class@@SAXQAVoutputBuffer@@@PAUmode_struct@stream_class@@PAUboolean_struct@_builtIn_class@@PAPAVoutputSupport@@@@Z 
--- From 'Obj\binary.obj'
01:0003FF30 outputSupport?_initObject@@@QAGXQAV1@H@Z 
--- From 'Obj\outputstreamsupport.obj'
01:0003FF48 ?@create_object@outputSupport_class@@SGQAVoutputSupport@@@XZ 
--- From 'Obj\binary.obj'
01:0003FF64 outputSupport?_InternalFinalizer@@@QAGXQAV1@@Z 
--- From 'Obj\vpieditor.obj'
01:0003FF70 ?setOptionsByList@vpiEditor_class@@SAXPAU?$__list_struct@UcolorOption@@@@@Z 
01:0003FFC8 ?getColorType@vpiEditor_class@@SAXPAHPAPAUcolorType_struct@1@@Z 
01:000402AC ?getFtype@vpiEditor_class@@SAXPAH@Z 
01:00040320 ?getOption@vpiEditor_class@@SAXPAPAUcolorOption_struct@1@@Z 
01:0004038C ?getOptions@vpiEditor_class@@SAXPAPAU?$__list_struct@UcolorOption@@@@PAIPAIAAUbooleanInt@@33@Z  (Idle)
01:00040410 ?setOptions@vpiEditor_class@@SAXPAU?$__list_struct@UcolorOption@@@@IIPBUbooleanInt@@33@Z  (Idle)
01:00040444 ?setTabsize@vpiEditor_class@@SAXPBUwindowHandle@@I@Z  (Idle)
01:00040460 ?index_FontStyle@vpiEditor_class@@SAXHAAUfs@vpiDomains@@@Z 
01:0004049C ?_get_CorrectBackColor@vpiEditor_class@@SAXPBUcolor@vpiDomains@@AAU23@@Z 
01:00040504 ?_get_CorrectForeColor@vpiEditor_class@@SAXPBUcolor@vpiDomains@@AAU23@@Z 
01:0004056C ?_convertIndexToColorType@vpiEditor_class@@SAXHPAPAUcolorType_struct@1@@Z 
01:000405B8 ?_convertColorTypeToIndex@vpiEditor_class@@SAXPAUcolorType_struct@1@PAH@Z 
01:00040608 ?_get_ColorFromColorOption@vpiEditor_class@@SAXPAPAUcolorSettings_struct@1@@Z 
01:000406DC ?set_NewColorSettings@vpiEditor_class@@SAXPAUcolorSettings_struct@1@@Z 
01:0004084C ?_get_ColorForControl@vpiEditor_class@@SAXHAAUcolor@vpiDomains@@@Z 
01:000408BC ?checkFocus@vpiEditor_class@@SAXPAU?$__list_struct@Ustate@@@@@Z 
01:000408FC ?update_preview@vpiEditor_class@@SAXPBUwindowHandle@vpiDomains@@PAUrct_struct@vpiDomains_class@@@Z 
01:000409E0 ?_toStyleFlags@vpiEditor_class@@SAXPBUfs@vpiDomains@@PAPAU?$__list_struct@U2@@@@Z 
01:00040A18 ?update_button@vpiEditor_class@@SAXPBUwindowHandle@vpiDomains@@PAUrct_struct@vpiDomains_class@@HPAU?$__list_struct@Ustate@@@@@Z 
01:00040AD4 ?_get_DefaultBackColor@vpiEditor_class@@SAXPBUbooleanInt@core@@AAUcolor@vpiDomains@@@Z 
01:00040B00 ?_get_DefaultForeColor@vpiEditor_class@@SAXPBUbooleanInt@core@@AAUcolor@vpiDomains@@@Z 
01:00040B2C ?on_DefaultBackground@vpiEditor_class@@SAXPBUwindowHandle@vpiDomains@@0@Z 
01:00040BE8 ?on_DefaultForeground@vpiEditor_class@@SAXPBUwindowHandle@vpiDomains@@0@Z 
01:00040CA8 ?on_BackgroundColor@vpiEditor_class@@SAXPBUwindowHandle@vpiDomains@@0@Z 
01:00040D84 ?on_ForegroundColor@vpiEditor_class@@SAXPBUwindowHandle@vpiDomains@@0@Z 
01:00040E60 ?on_FontStyle@vpiEditor_class@@SAXPBUwindowHandle@vpiDomains@@@Z 
01:00040F24 ?show_color@vpiEditor_class@@SAXPBUwindowHandle@vpiDomains@@@Z 
01:00040F8C ?_getDefaultForColor@vpiEditor_class@@SAXPBUcolor@vpiDomains@@AAUbooleanInt@core@@@Z 
01:00040FB0 ?show_Forecolor@vpiEditor_class@@SAXPBUwindowHandle@vpiDomains@@PBU43@@Z 
01:00041038 ?show_Backcolor@vpiEditor_class@@SAXPBUwindowHandle@vpiDomains@@PBU43@@Z 
01:000410C0 ?show_BoldItalic@vpiEditor_class@@SAXPBUwindowHandle@vpiDomains@@PBUfs@3@@Z 
01:00041120 ?on_OK@vpiEditor_class@@SAXPBUwindowHandle@vpiDomains@@@Z 
01:000411A4 ?init_tokenColoring@vpiEditor_class@@SAXPBUwindowHandle@vpiDomains@@H@Z 
01:00041260 ?_dlg_token_coloring_eh@vpiEditor_class@@SAXPBUwindowHandle@@PAUevent_struct@vpiDomains_class@@PAH@Z 
01:000415F8 ?optionsDialog@vpiEditor_class@@SAXPBUwindowHandle@@H@Z  (Idle)
01:00041630 ?index_FontStyle@vpiEditor_class@@SAXPAHPBUfs@vpiDomains@@@Z 
01:0004166C ?_class_facts_initializer@vpiEditor_class@@SGXXZ 
--- From 'Obj\inputstreamsupport.obj'
01:00041690 ?classInfo@inputSupport_class@@SAXPAPB_W0@Z 
--- From 'Obj\binary.obj'
01:000416AC ?new@inputSupport_class@@SAXQAVinputSupport@@@QAVinputBuffer@@@PAUmode_struct@stream_class@@@Z 
--- From 'Obj\inputstreamsupport.obj'
01:000416E8 ?setMode@inputSupport_class@@SGXQAVinputSupport@@@PAUmode_struct@stream_class@@@Z 
01:00041720 ?getMode@inputSupport_class@@SGPAUmode_struct@stream_class@@QAVinputSupport@@@@Z 
01:0004173C ?_readChar@inputSupport_class@@SAXQAVinputSupport@@@PA_W@Z 
01:00041770 ?ungetChar@inputSupport_class@@SAXQAVinputSupport@@@@Z 
01:0004179C ?_readLine@inputSupport_class@@SAXQAVinputSupport@@@PAPB_W@Z 
01:000417CC ?_read@inputSupport_class@@SAXQAVinputSupport@@@QAVrTypeLibrary@TypeLibraries@RunTime@VIP@@PAPAX@Z 
01:000417F8 ?consult@inputSupport_class@@SAXQAVinputSupport@@@PBUfactDB@@@Z 
01:00041828 ?reconsult@inputSupport_class@@SAXQAVinputSupport@@@PBUfactDB@@@Z 
01:0004183C ?_readBytes@inputSupport_class@@SAXQAVinputSupport@@@PBUbyteCount@@QAPAE@Z 
01:000418A4 ?_readString@inputSupport_class@@SAXQAVinputSupport@@@PBUcharCount@@PAPB_W@Z 
01:000418D8 ?checkMode_text@inputSupport_class@@SAXQAVinputSupport@@@PB_W@Z 
01:0004190C ?_convertMode@inputSupport_class@@SAXPAUmode_struct@stream_class@@AAUbooleanInt@core@@@Z 
01:00041934 ?_new@inputSupport_class@@SAXQAVinputBuffer@@@PAUmode_struct@stream_class@@PAPAVinputSupport@@@@Z  (Idle)
--- From 'Obj\binary.obj'
01:00041968 inputSupport?_initObject@@@QAGXQAV1@H@Z 
--- From 'Obj\inputstreamsupport.obj'
01:00041980 ?@create_object@inputSupport_class@@SGQAVinputSupport@@@XZ 
--- From 'Obj\binary.obj'
01:0004199C inputSupport?_InternalFinalizer@@@QAGXQAV1@@Z 
--- From 'Obj\string8.obj'
01:000419B0 ?classInfo@string8_class@@SAXPAPB_W0@Z  (Idle)
01:000419CC ?isValidCodePage@string8_class@@SAXI@Z  (Idle)
01:000419EC ?isValidToRead@string8_class@@SAXPAD@Z  (Idle)
--- From 'Obj\runtime_api.obj'
01:00041A0C ?_mapFromString@string8_class@@SAXPB_WPAPAD@Z 
--- From 'Obj\string8.obj'
01:00041A3C ?_mapFromString@string8_class@@SAXPB_WPAUcodePage_struct@core_class@@PAPAD@Z 
--- From 'Obj\binary.obj'
01:00041A90 ?_mapToString@string8_class@@SAXPADPAPB_W@Z 
--- From 'Obj\string8.obj'
01:00041AC0 ?_mapToString@string8_class@@SAXPADPAUcodePage_struct@core_class@@PAPB_W@Z 
01:00041B0C ?_mapFromChar@string8_class@@SAX_WAAUchar8@@@Z  (Idle)
01:00041B40 ?_mapFromChar@string8_class@@SAX_WPAUcodePage_struct@core_class@@AAUchar8@@@Z 
01:00041BB8 ?_mapToChar@string8_class@@SAXPBUchar8@@PA_W@Z  (Idle)
01:00041BE8 ?_mapToChar@string8_class@@SAXPBUchar8@@PAUcodePage_struct@core_class@@PA_W@Z 
01:00041C58 ?_createCopy@string8_class@@SAXPADPAPAD@Z  (Idle)
--- From 'Obj\string.obj'
01:00041CE0 ?classInfo@string_exception_class@@SAXPAPB_W0@Z 
01:00041CFC ?emptyString@string_exception_class@@SAXPAXPAPB_W1@Z 
--- From 'Obj\exception.obj'
01:00041D24 ?format_exceptionHandler@string_exception_class@@SAXPBUtraceId@exception@@PB_W@Z 
--- From 'Obj\string.obj'
01:00041E10 ?outOfBoundaries@string_exception_class@@SAXPAXPAPB_W1@Z 
01:00041E38 ?oddOffset@string_exception_class@@SAXPAXPAPB_W1@Z 
01:00041E60 ?raise_EmptyString@string_exception_class@@SAXX@Z 
01:00041E78 ?raise_OutOfBoundaries@string_exception_class@@SAXXPBUcharCount@@1@Z 
--- From 'Obj\filesystem.obj'
01:00041F34 ?raise_OddOffset@string_exception_class@@SAXXPBUbyteCount@@@Z 
--- From 'Obj\string.obj'
01:00041FA4 isWhiteSpace_C 
01:00041FE4 isWhiteSpace_S 
01:00042040 ?classInfo@string_class@@SAXPAPB_W0@Z 
--- From 'Obj\filesystem.obj'
01:0004205C ?_create@string_class@@SAXPBUcharCount@@PB_WPAPB_W@Z 
--- From 'Obj\string.obj'
01:000420A4 ?_tryCreate@string_class@@SAXPBUcharCount@@PB_WPAPB_W@Z 
--- From 'Obj\exe_api.obj'
01:000420FC ?_createCopy@string_class@@SAXPB_WPAPB_W@Z 
--- From 'Obj\string.obj'
01:0004214C ?hasPrefix@string_class@@SAXPB_W0PAPB_W@Z  (Idle)
01:0004217C ?hasSuffix@string_class@@SAXPB_W0PAPB_W@Z  (Idle)
01:000421E4 ?_hasPrefixPtr@string_class@@SAXPAUcharPtr_struct@1@0PAPAU21@@Z 
--- From 'Obj\exception.obj'
01:00042290 ?_concat@string_class@@SAXPB_W0PAPB_W@Z 
--- From 'Obj\controls.obj'
01:00042310 ?_concat@string_class@@SAXPB_W00PAPB_W@Z 
01:000423BC ?_concat@string_class@@SAXPB_W000PAPB_W@Z 
--- From 'Obj\string.obj'
01:00042414 ?_concat@string_class@@SAXPB_W0000PAPB_W@Z 
01:0004246C ?_concat@string_class@@SAXPB_W00000PAPB_W@Z 
--- From 'Obj\filesystem.obj'
01:000425C8 ?_concatList@string_class@@SAXPAU?$__list_struct@Ustring@@@@PAPB_W@Z 
--- From 'Obj\controls.obj'
01:00042680 ?_concatWithDelimiter@string_class@@SAXPAU?$__list_struct@Ustring@@@@PB_WPAPB_W@Z 
--- From 'Obj\string.obj'
01:000427DC ?concatListWithDelimiter@string_class@@SAXPAXPAU?$__list_struct@Ustring@@@@PAXPBUbyteCount@@PAU?$__list_struct@UcharCount@@@@@Z 
01:0004288C ?_copyDelimiterIfNeeded@string_class@@SAXPAXPAU?$__list_struct@Ustring@@@@PAXPBUbyteCount@@PAPAX@Z 
01:000428C4 ?getStringListInfo@string_class@@SAXPAU?$__list_struct@Ustring@@@@IIPAIPAIPAPAU?$__list_struct@UcharCount@@@@@Z 
01:0004297C ?concatStringList@string_class@@SAXPAXPAU?$__list_struct@Ustring@@@@PAU?$__list_struct@UcharCount@@@@@Z 
--- From 'Obj\exception.obj'
01:00042A3C ?equalIgnoreCase@string_class@@SAXPB_W0@Z 
--- From 'Obj\string.obj'
01:00042A70 ?equalIgnoreCase@string_class@@SAXPB_W0I@Z  (Idle)
01:00042A9C ?_compareIgnoreCase@string_class@@SAXPB_W0PAPAUcompareResult_struct@_builtIn_class@@@Z  (Idle)
01:00042BE8 ?_compareIgnoreCase@string_class@@SAXPB_W0IPAPAUcompareResult_struct@_builtIn_class@@@Z  (Idle)
01:00042D2C ?_adjustRight@string_class@@SAXPB_WPBUcharCount@@PAPB_W@Z 
01:00042D64 ?_adjustRight@string_class@@SAXPB_WPBUcharCount@@0PAPB_W@Z 
01:00042DA4 ?_adjustRight@string_class@@SAXPB_WPBUcharCount@@0PAUadjustBehaviour_struct@1@PAPB_W@Z 
01:00042E18 ?_adjustLeft@string_class@@SAXPB_WPBUcharCount@@PAPB_W@Z 
01:00042E50 ?_adjustLeft@string_class@@SAXPB_WPBUcharCount@@0PAPB_W@Z 
01:00042E90 ?_adjust@string_class@@SAXPB_WPBUcharCount@@PAUadjustSide_struct@1@PAPB_W@Z  (Idle)
01:00042EB8 ?_adjust@string_class@@SAXPB_WPBUcharCount@@0PAUadjustSide_struct@1@PAPB_W@Z  (Idle)
01:00042EE0 ?_adjust@string_class@@SAXPB_WPBUcharCount@@0PAUadjustBehaviour_struct@1@PAUadjustSide_struct@1@PAPB_W@Z  (Idle)
01:00042F08 ?_crop@string_class@@SAXPB_WPBUcharCount@@PAUadjustSide_struct@1@PAUadjustBehaviour_struct@1@PAPB_W@Z 
01:00042FA4 ?_adjustLeft@string_class@@SAXPB_WPBUcharCount@@0PAUadjustBehaviour_struct@1@PAPB_W@Z 
01:0004300C ?_split@string_class@@SAXPB_W0PAPAU?$__list_struct@Ustring@@@@@Z 
--- From 'Obj\gui.obj'
01:000430A8 ?format@string_class@@SAPB_W0@Z 
--- From 'Obj\exceptiondump.obj'
01:00043104 ?write@string_class@@SAPB_WXZ 
--- From 'Obj\string.obj'
01:0004311C ?_last@string_class@@SAXPB_WPBUcharCount@@PAPB_W@Z  (Idle)
--- From 'Obj\exe.obj'
01:00043170 ?front@string_class@@SAXPB_WPBUcharCount@@PAPB_W2@Z 
--- From 'Obj\string.obj'
01:000431D8 ?tryFront@string_class@@SAXPB_WPBUcharCount@@PAPB_W2@Z  (Idle)
01:0004323C ?checkPosition@string_class@@SAXPBUcharCount@@0@Z 
01:00043260 ?trycheckPosition@string_class@@SAXPBUcharCount@@0@Z 
--- From 'Obj\exe.obj'
01:00043278 ?frontChar@string_class@@SAXPB_WPA_WPAPB_W@Z 
--- From 'Obj\filesystem.obj'
01:000432B0 ?lastChar@string_class@@SAXPB_WPAPB_WPA_W@Z 
--- From 'Obj\string.obj'
01:00043328 ?_toCharList@string_class@@SAXPB_WPAPAU?$__list_struct@Uchar@@@@@Z 
--- From 'Obj\exceptiondump.obj'
01:00043394 ?frontToken@string_class@@SAXPB_WPAPB_W1@Z 
--- From 'Obj\string.obj'
01:000433CC ?isValidToRead@string_class@@SAXPB_W@Z  (Idle)
01:000433F0 ?_replaceFirst@string_class@@SAXPB_W00PAUcaseSensitivity_struct@1@PAPB_W@Z 
01:00043424 ?_replaceAll@string_class@@SAXPB_W00PAPB_W@Z 
01:00043464 ?_replaceAll@string_class@@SAXPB_W00PAUcaseSensitivity_struct@1@PAPB_W@Z 
01:00043498 ?_replaceAll@string_class@@SAXPB_W00PAUcaseSensitivity_struct@1@PAIPAPB_W@Z  (Idle)
01:000434D0 ?_caseToInteger@string_class@@SAXPAUcaseSensitivity_struct@1@PAH@Z 
01:00043500 ?_replacePart@string_class@@SAXPB_WPBUcharCount@@10PAPB_W@Z  (Idle)
01:000435F0 ?_tryReplacePart@string_class@@SAXPB_WPBUcharCount@@10PAPB_W@Z  (Idle)
01:000436E0 ?_search@string_class@@SAXPB_W0AAUcharCount@@@Z  (Idle)
--- From 'Obj\exe.obj'
01:00043718 ?_search@string_class@@SAXPB_W0PAUcaseSensitivity_struct@1@AAUcharCount@@@Z 
--- From 'Obj\filesystem.obj'
01:00043794 ?_searchLast@string_class@@SAXPB_W0PAUcaseSensitivity_struct@1@AAUcharCount@@@Z 
--- From 'Obj\string.obj'
01:00043810 ?caseHandling@string_class@@SAXPAUcaseSensitivity_struct@1@PB_W1PAPB_W3@Z 
--- From 'Obj\controls.obj'
01:0004385C ?_subString@string_class@@SAXPB_WPBUcharCount@@1PAPB_W@Z 
--- From 'Obj\string.obj'
01:000438C8 ?_trySubString@string_class@@SAXPB_WPBUcharCount@@1PAPB_W@Z  (Idle)
01:00043934 ?_toUpperCase@string_class@@SAXPB_WPAPB_W@Z 
01:0004395C ?_toLowerCase@string_class@@SAXPB_WPAPB_W@Z 
01:00043984 ?isUpperCase@string_class@@SAXPB_W@Z 
01:000439BC ?isLowerCase@string_class@@SAXPB_W@Z 
01:000439F4 ?hasDecimalDigits@string_class@@SAXPB_W@Z 
01:00043A10 ?isDecimalDigits@string_class@@SAXPB_W@Z 
01:00043A64 ?decimalDigit@string_class@@SAX_W@Z 
01:00043AD4 ?hasAlpha@string_class@@SAXPB_W@Z 
01:00043B14 ?isWhiteSpace@string_class@@SAXPB_W@Z  (Idle)
--- From 'Obj\controls.obj'
01:00043B1C ?_split_delimiter@string_class@@SAXPB_W0PAPAU?$__list_struct@Ustring@@@@@Z 
--- From 'Obj\string.obj'
01:00043B60 ?_splitByString@string_class@@SAXPB_W0PBUcharCount@@PAPAU?$__list_struct@Ustring@@@@@Z 
01:00043C14 ?_split_length@string_class@@SAXPB_WPAU?$__list_struct@UcharCount@@@@PAPAU?$__list_struct@Ustring@@@@@Z  (Idle)
01:00043C50 ?_splitByList@string_class@@SAXPB_WPBUcharCount@@PAU?$__list_struct@U2@@@PAPAU?$__list_struct@Ustring@@@@@Z 
--- From 'Obj\controls.obj'
01:00043D10 ?_trim@string_class@@SAXPB_WPAPB_W@Z 
--- From 'Obj\string.obj'
01:00043D38 ?_charToString@string_class@@SAX_WPAPB_W@Z 
01:00043D64 ?_charUpper@string_class@@SAX_WPA_W@Z  (Idle)
01:00043DA8 ?_charLower@string_class@@SAX_WPA_W@Z  (Idle)
01:00043DEC ?splitStringBySeparators@string_class@@SAXPB_W0PAPB_WPA_W2@Z 
01:00043E4C ?_getMinPosition@string_class@@SAXPB_W0PBUcharCount@@AAU2@@Z 
01:00043EF4 ?isName@string_class@@SAXPB_W@Z  (Idle)
01:00043F48 ?isLegalFrontCharOfName@string_class@@SAXPB_W@Z 
01:00043F68 ?isCorrectRemainderOfName@string_class@@SAXPB_W@Z 
01:00043FBC ?isCorrectRemainderCharOfName@string_class@@SAXPB_W@Z 
01:00043FF0 ?isClassIdentifier@string_class@@SAXPB_W0@Z  (Idle)
01:0004405C ?isObjectIdentifier@string_class@@SAXPB_W0@Z  (Idle)
01:000440CC ?isCorrectMemberName@string_class@@SAXPB_W@Z 
01:00044160 ?keywordString@string_class@@SAXPB_WPAPAUboolean_struct@_builtIn_class@@@Z 
01:000449E8 ?isCorrectClassFrontChar@string_class@@SAXPB_W@Z 
01:00044A04 ?_searchChar@string_class@@SAXPB_W_WAAUcharCount@@@Z  (Idle)
--- From 'Obj\filesystem.obj'
01:00044A40 ?_searchChar@string_class@@SAXPB_W_WPAUcaseSensitivity_struct@1@AAUcharCount@@@Z 
01:00044A68 ?_subchar@string_class@@SAXPB_WPBUcharCount@@PA_W@Z 
--- From 'Obj\string.obj'
01:00044AD0 ?_trySubchar@string_class@@SAXPB_WPBUcharCount@@PA_W@Z  (Idle)
01:00044B34 ?_getCharValue@string_class@@SAX_WAAUunsigned16@@@Z  (Idle)
01:00044B48 ?_getCharFromValue@string_class@@SAXPBUunsigned16@@PA_W@Z  (Idle)
01:00044B5C ?listToArray@string_class@@SAXPAU?$__list_struct@Ustring@@@@PAPAXPAI@Z  (Idle)
01:00044BE0 ?_arrayToList@string_class@@SAXPAXIPAPAU?$__list_struct@Ustring@@@@@Z  (Idle)
01:00044BF8 ?fillArray@string_class@@SAXPAXPAU?$__list_struct@Ustring@@@@@Z 
01:00044C5C ?_fillList@string_class@@SAXIIPAPAU?$__list_struct@Ustring@@@@@Z 
--- From 'Obj\systeminformation_api.obj'
01:00044CC4 ?_createFromCharList@string_class@@SAXPAU?$__list_struct@Uchar@@@@PAPB_W@Z 
--- From 'Obj\string.obj'
01:00044D0C ?fillString@string_class@@SAXPB_WPAU?$__list_struct@Uchar@@@@@Z 
01:00044D7C ?_replace@string_class@@SAXPB_W00PAUcaseSensitivity_struct@1@PAPB_W@Z  (Idle)
01:00044D84 ?isWhiteSpace@string_class@@SAX_W@Z  (Idle)
01:00044D8C ?keywordString@string_class@@SAXPB_WPAUboolean_struct@_builtIn_class@@@Z  (Idle)
01:000456E8 ?keywordString@string_class@@SAXPAPB_WPAPAUboolean_struct@_builtIn_class@@@Z  (Idle)
01:00045DFC ?classInfo@outputStream_string_class@@SAXPAPB_W0@Z 
01:00045E18 ?new@outputStream_string_class@@SAXQAVoutputStream_string@@@@Z 
01:00045ED0 ?setMode@outputStream_string_class@@SGXQAVstream@@@PAUmode_struct@stream_class@@@Z 
01:00045F14 ?flush@outputStream_string_class@@SGXQAVoutputStream@@@@Z 
01:00045F24 ?close@outputStream_string_class@@SGXQAVstream@@@@Z 
01:00045FC8 ?bufferFullCallBack@outputStream_string_class@@SAXQAVoutputStream_string@@@PAPAXAAUbyteCount@@@Z 
01:00046060 ?get_buffer_from_db@outputStream_string_class@@SAXQAVoutputStream_string@@@IPAPAXAAUbyteCount@@@Z 
01:000460DC ?_getString@outputStream_string_class@@SAXQAVoutputStream_string@@@PAPB_W@Z 
01:000461F0 ?writeBuffersToString@outputStream_string_class@@SAXQAVoutputStream_string@@@I@Z 
01:00046280 ?getPosition@outputStream_string_class@@SG_KQAVstream@@@@Z 
01:0004633C ?setPosition@outputStream_string_class@@SGXQAVstream@@@_K@Z 
01:000463BC ?checkOddness@outputStream_string_class@@SAXPAUmode_struct@stream_class@@PBUbyteCount@@@Z 
01:00046400 ?handleSetOffset@outputStream_string_class@@SAXQAVoutputStream_string@@@PBUbyteCount@@@Z 
01:00046494 ?updateCurrentBuffer@outputStream_string_class@@SAXQAVoutputStream_string@@@@Z 
01:000465FC ?findBufferForOffset@outputStream_string_class@@SAXQAVoutputStream_string@@@PBUbyteCount@@PAIPAPAXAAU3@4@Z 
01:0004668C ?handleBiggerOffset@outputStream_string_class@@SAXQAVoutputStream_string@@@PBUbyteCount@@@Z 
01:00046828 ?_newBuffer@outputStream_string_class@@SAXQAVoutputStream_string@@@PBUbyteCount@@PAPAX@Z 
01:000468C0 ?_getSizeBefore@outputStream_string_class@@SAXQAVoutputStream_string@@@AAUbyteCount@@@Z 
01:00046954 ?bufferNotFound_exception@outputStream_string_class@@SAXI@Z 
01:00046998 ?checkUsePrevBuff@outputStream_string_class@@SAXQAVoutputStream_string@@@@Z 
01:000469F8 ?getBuffer@outputStream_string_class@@SGXQAVbufferSupport@@@PAPAXAAUbyteCount@@@Z 
01:00046A98 ?getBufferLocked@outputStream_string_class@@SGXQAVbufferSupport@@@PAPAXAAUbyteCount@@@Z 
--- From 'Obj\vpi.obj'
01:00046AB4 ?_new@outputStream_string_class@@SAXPAPAVoutputStream_string@@@@Z 
--- From 'Obj\string.obj'
01:00046ADC ?_object_facts_initializer@outputStream_string_class@@SGXQAVoutputStream_string@@@@Z 
01:00046B08 ?classInfo@inputStream_string_class@@SAXPAPB_W0@Z 
01:00046B24 ?new@inputStream_string_class@@SAXQAVinputStream_string@@@PB_W@Z 
01:00046BA0 ?endOfStream@inputStream_string_class@@SAXQAVinputStream@@@@Z 
01:00046BDC ?setMode@inputStream_string_class@@SGXQAVinputSupport@@@PAUmode_struct@stream_class@@@Z 
01:00046C20 ?close@inputStream_string_class@@SGXQAVstream@@@@Z 
01:00046C3C ?getCRLFconversion@inputStream_string_class@@SGPAUboolean_struct@_builtIn_class@@QAVstream@@@@Z 
01:00046C50 ?setCRLFconversion@inputStream_string_class@@SGXQAVstream@@@PAUboolean_struct@_builtIn_class@@@Z 
01:00046C78 ?getPosition@inputStream_string_class@@SG_KQAVstream@@@@Z 
01:00046CB8 ?setPosition@inputStream_string_class@@SGXQAVstream@@@_K@Z 
01:00046D94 ?checkOddness@inputStream_string_class@@SAXPAUmode_struct@stream_class@@PBUbyteCount@@@Z 
01:00046DD8 ?getBuffer@inputStream_string_class@@SGXQAVbufferSupport@@@PAPAXAAUbyteCount@@@Z 
01:00046DF4 ?getBufferLocked@inputStream_string_class@@SGXQAVbufferSupport@@@PAPAXAAUbyteCount@@@Z 
01:00046E10 ?_new@inputStream_string_class@@SAXPB_WPAPAVinputStream@@@@Z  (Idle)
01:00046E38 ?_object_facts_initializer@inputStream_string_class@@SGXQAVinputStream_string@@@@Z 
01:000470D8 outputStream_string?_initObject@@@QAGXQAV1@H@Z 
01:00047110 ?@create_object@outputStream_string_class@@SGQAVoutputStream_string@@@XZ 
01:0004712C outputStream_string?_InternalFinalizer@@@QAGXQAV1@@Z 
01:0004739C inputStream_string?_initObject@@@QAGXQAV1@H@Z 
01:000473D4 ?@create_object@inputStream_string_class@@SGQAVinputStream_string@@@XZ 
01:000473F0 inputStream_string?_InternalFinalizer@@@QAGXQAV1@@Z 
--- From 'Obj\filesystem_api.obj'
01:00047400 ?classInfo@fileSystem_api_class@@SAXPAPB_W0@Z 
01:0004741C ?fileAttributeCorrespondence@fileSystem_api_class@@SAXPAUfileAttributeAtom_struct@1@AAUunsigned32@@@Z 
--- From 'Obj\filesystem.obj'
01:0004749C ?_toApiAttributes@fileSystem_api_class@@SAXPAU?$__list_struct@UfileAttributeAtom@@@@AAUunsigned32@@@Z 
--- From 'Obj\filesystem_api.obj'
01:000474CC ?_toApiAttributes@fileSystem_api_class@@SAXPAU?$__list_struct@UfileAttributeAtom@@@@IPAI@Z 
--- From 'Obj\filesystem.obj'
01:00047530 ?_fromApiAttributes@fileSystem_api_class@@SAXPBUunsigned32@@PAPAU?$__list_struct@UfileAttributeAtom@@@@@Z 
--- From 'Obj\filesystem_api.obj'
01:00047594 ?convertToFileAttribute_nd@fileSystem_api_class@@SAXIPAPAUfileAttributeAtom_struct@1@@Z 
--- From 'Obj\filesystem.obj'
01:000475D4 ?_createFile@fileSystem_api_class@@SAXPB_WPBUunsigned32@@PAUaccessPermit_struct@1@1PAU?$__list_struct@UfileAttributeAtom@@@@AAUfileHandle@@@Z 
--- From 'Obj\filesystem_api.obj'
01:0004764C ?_toShareModeAPI@fileSystem_api_class@@SAXPAUaccessPermit_struct@1@PAI@Z 
--- From 'Obj\filesystem.obj'
01:00047688 ?_getFileSize@fileSystem_api_class@@SAXPBUfileHandle@@PAAAUfileSize@@@Z 
--- From 'Obj\filesystem_api.obj'
01:000476E8 ?getFileSize@fileSystem_api_class@@SAXPBUfileHandle@@AAUunsigned32@@1@Z  (Idle)
--- From 'Obj\filesystem.obj'
01:00047734 ?_setFilePointer@fileSystem_api_class@@SAXPBUfileHandle@@PA_JPBUunsigned32@@PAPA_K@Z 
--- From 'Obj\filesystem_api.obj'
01:000477B0 ?_setFilePointer32@fileSystem_api_class@@SAXPBUfileHandle@@PBUinteger32@@PBUunsigned32@@AAU4@@Z  (Idle)
--- From 'Obj\filesystem.obj'
01:00047844 ?getVolumeInformation@fileSystem_api_class@@SAXPB_WPAPB_WAAUunsigned32@@1@Z 
--- From 'Obj\filesystem_api.obj'
01:00047914 ?cannotCreate@fileSystem_api_class@@SAXPAXPAPB_W1@Z 
01:0004793C ?cannotGetFileSize@fileSystem_api_class@@SAXPAXPAPB_W1@Z 
01:00047964 ?cannotSetFilePointer@fileSystem_api_class@@SAXPAXPAPB_W1@Z 
--- From 'Obj\filesystem.obj'
01:0004798C ?raise_CannotCreate@fileSystem_api_class@@SAXXPB_WI@Z 
--- From 'Obj\filesystem_api.obj'
01:00047AAC ?raise_CannotGetFileSize@fileSystem_api_class@@SAXXPBUfileHandle@@I@Z 
01:00047BCC ?raise_CannotSetFilePointer@fileSystem_api_class@@SAXXPBUfileHandle@@PA_JII@Z 
--- From 'Obj\filesystem.obj'
01:00047D88 ?crlf_lf@fileSystem_api_class@@SAXPAXHPAUboolean_struct@_builtIn_class@@PAPAXAAUbyteCount@@PAPAU?$__list_struct@U4@@@PAPAU23@@Z 
--- From 'Obj\filesystem_api.obj'
01:00047E34 ?prepareSearch@fileSystem_api_class@@SAXPAXHAAUbyteCount@@PAPAUboolean_struct@_builtIn_class@@@Z 
01:00047F18 ?searchCRLF@fileSystem_api_class@@SAXPAXPBUbyteCount@@IPAIPAPAU?$__list_struct@U2@@@AAU2@@Z 
01:00048098 ?_tryGetPositionOfCRLF@fileSystem_api_class@@SAXPAXHPBUbyteCount@@AAU2@@Z 
01:00048180 ?_convertCRLF_IfNeeded@fileSystem_api_class@@SAXPAUboolean_struct@_builtIn_class@@PAXPBUbyteCount@@PAU?$__list_struct@U4@@@2PAPAX@Z 
01:00048310 ?checkFirstPos@fileSystem_api_class@@SAXPBUbyteCount@@PAU?$__list_struct@U2@@@PAXPAPAX3PAPAU?$__list_struct@U2@@@@Z 
01:000483C8 ?_mem_move@fileSystem_api_class@@SAXPAXPAXPBUbyteCount@@PAPAX@Z 
01:0004840C ?_mem_copy@fileSystem_api_class@@SAXPAXPAXPBUbyteCount@@PAPAX@Z 
01:00048450 ?convertCRLF_LF@fileSystem_api_class@@SAXXPAXPAXPBUbyteCount@@PAU?$__list_struct@U2@@@@Z 
--- From 'Obj\filesystem.obj'
01:00048544 ?crlf_lf@fileSystem_api_class@@SAXPB_W@Z 
--- From 'Obj\filesystem_api.obj'
01:00048568 ?do_CRLF_LF@fileSystem_api_class@@SAXPAXPAX@Z 
--- From 'Obj\vpi.obj'
01:0004865C ?lf_crlf@fileSystem_api_class@@SAXPAXPBUbyteCountOptional@@PAPAXAAUbyteCount@@@Z 
--- From 'Obj\filesystem_api.obj'
01:0004870C ?_getSize@fileSystem_api_class@@SAXIHAAUbyteCount@@@Z 
01:00048774 ?searchLineFeeds@fileSystem_api_class@@SAXIPBUbyteCount@@IPAIPAPAU?$__list_struct@U2@@@AAU2@@Z 
01:000488CC ?_convertToCRLF_IfNeeded@fileSystem_api_class@@SAXPAXPBUbyteCount@@PAU?$__list_struct@U2@@@1PAPAX@Z 
01:0004892C ?convertToCRLF@fileSystem_api_class@@SAXPAXPAXPBUbyteCount@@PAU?$__list_struct@U2@@@@Z 
01:000489C8 ?_anonymous$1$removedirectory/1@fileSystem_api_class@@SAXPAUanonymous$1$removedirectory/1c_struct@1@AAUbooleanInt@@@Z 
--- From 'Obj\filesystem.obj'
01:000489E4 ?removeDirectory@fileSystem_api_class@@SAXPB_W@Z 
--- From 'Obj\filesystem_api.obj'
01:00048A88 ?_anonymous$2$createdirectory/2@fileSystem_api_class@@SAXPAUanonymous$2$createdirectory/2c_struct@1@AAUbooleanInt@@@Z 
--- From 'Obj\filesystem.obj'
01:00048AB0 ?createDirectory@fileSystem_api_class@@SAXPB_WPAX@Z 
--- From 'Obj\filesystem_api.obj'
01:00048B5C ?_anonymous$3$movefile/2@fileSystem_api_class@@SAXPAUanonymous$3$movefile/2c_struct@1@AAUbooleanInt@@@Z 
--- From 'Obj\filesystem.obj'
01:00048B84 ?moveFile@fileSystem_api_class@@SAXPB_W0@Z 
--- From 'Obj\filesystem_api.obj'
01:00048C7C ?_anonymous$4$setvolumelabel/2@fileSystem_api_class@@SAXPAUanonymous$4$setvolumelabel/2c_struct@1@AAUbooleanInt@@@Z 
--- From 'Obj\filesystem.obj'
01:00048CA4 ?setVolumeLabel@fileSystem_api_class@@SAXPB_W0@Z 
01:00048D9C ?getDiskFreeSpaceEx@fileSystem_api_class@@SAXPB_WPAAAUfileSize@@11@Z 
--- From 'Obj\filesystem_api.obj'
01:00048E94 ?_anonymous$5$getcurrentdirectory/0@fileSystem_api_class@@SAXPB_WPBUcharCount@@AAU2@@Z 
--- From 'Obj\filesystem.obj'
01:00048EAC ?_getCurrentDirectory@fileSystem_api_class@@SAXPAPB_W@Z 
--- From 'Obj\filesystem_api.obj'
01:00048EF0 ?_anonymous$6$setcurrentdirectory/1@fileSystem_api_class@@SAXPAUanonymous$6$setcurrentdirectory/1c_struct@1@AAUbooleanInt@@@Z 
--- From 'Obj\filesystem.obj'
01:00048F0C ?setCurrentDirectory@fileSystem_api_class@@SAXPB_W@Z 
--- From 'Obj\filesystem_api.obj'
01:00048F64 ?_anonymous$7$getlongpathname/1@fileSystem_api_class@@SAXPAUanonymous$7$getlongpathname/1c_struct@1@PB_WPBUcharCount@@AAU4@@Z 
01:00048F88 ?_getLongPathName@fileSystem_api_class@@SAXPB_WPAPB_W@Z  (Idle)
01:00049034 ?_anonymous$8$gettemppath/0@fileSystem_api_class@@SAXPB_WPBUcharCount@@AAU2@@Z 
--- From 'Obj\filesystem.obj'
01:0004904C ?_getTempPath@fileSystem_api_class@@SAXPAPB_W@Z 
--- From 'Obj\filesystem_api.obj'
01:00049090 ?_anonymous$9$findclose/1@fileSystem_api_class@@SAXPAUanonymous$9$findclose/1c_struct@1@AAUbooleanInt@@@Z 
--- From 'Obj\filesystem.obj'
01:000490AC ?findClose@fileSystem_api_class@@SAXPBUsearchHandle@@@Z 
--- From 'Obj\filesystem_api.obj'
01:00049104 ?doZeroFailOperation@fileSystem_api_class@@SAXPB_WPAU?$__list_struct@UnamedValue@@@@X@Z 
01:0004915C ?_firstSizeThenOperation@fileSystem_api_class@@SAXPB_WPAU?$__list_struct@UnamedValue@@@@XPAPB_W@Z 
01:0004921C ?fileAttributeCorrespondence@fileSystem_api_class@@SAXPAPAUfileAttributeAtom_struct@1@PBUunsigned32@@@Z  (Idle)
01:000492F8 ?fileAttributeCorrespondence@fileSystem_api_class@@SAXPAPAUfileAttributeAtom_struct@1@AAUunsigned32@@@Z 
01:00049424 ?fileAttributeCorrespondence@fileSystem_api_class@@SAXPAUfileAttributeAtom_struct@1@PBUunsigned32@@@Z  (Idle)
--- From 'Obj\memory_api.obj'
01:000494E0 GetProcessMemoryInfo  (Idle)
--- From 'Obj\runtime_api.obj'
01:00049510 ?classInfo@runtime_api_class@@SAXPAPB_W0@Z  (Idle)
01:0004952C ?_determineOSV5@runtime_api_class@@SAXIIPBUunsigned16@@PAPB_W@Z 
01:000497D0 ?_determineOSV4@runtime_api_class@@SAXIIPBUunsigned16@@PAPB_W@Z 
01:00049878 ?_determineOSV6@runtime_api_class@@SAXIIPBUunsigned16@@PAPB_W@Z 
01:00049940 ?_determineMajorVersion@runtime_api_class@@SAXIIIPBUunsigned16@@PAPB_W@Z 
01:00049A50 ?_determineOSFamily@runtime_api_class@@SAXIPAPB_W@Z 
--- From 'Obj\exception.obj'
01:00049BA4 ?getOSVersion@runtime_api_class@@SAXQAVoutputStream@@@@Z 
--- From 'Obj\runtime_api.obj'
01:00049CF4 ?_getSysInfoStr@runtime_api_class@@SAXPAPB_W@Z 
01:00049DA8 ?_systemInfo_native@runtime_api_class@@SAXXPAPAUsystem_Info_struct@systemInformation_native_class@@@Z 
01:00049DD8 ?_getNativeSysInfo@runtime_api_class@@SAXPAPB_W@Z 
01:00049ED4 ?_getRegInfo@runtime_api_class@@SAXPAPB_W@Z 
01:00049F78 ?_getRegInfoK@runtime_api_class@@SAXPB_WPAPB_W@Z 
01:00049FE4 ?_printString@runtime_api_class@@SAXPAUvalue_struct@core_class@@PAPB_W@Z 
01:0004A03C ?_class_facts_initializer@runtime_api_class@@SGXXZ 
--- From 'Obj\time_api.obj'
01:0004A060 _TzSpecificLocalTimeToSystemTime@12 
01:0004A084 ?classInfo@time_api_class@@SAXPAPB_W0@Z 
--- From 'Obj\exception.obj'
01:0004A0A0 ?_getSystemTimeAsFileTime@time_api_class@@SAXPAAAUgmtTimeValue@@@Z 
01:0004A0E0 ?_gmtTimeToSystemTime@time_api_class@@SAXPAPBUgmtTimeValue@@PAPAUsystemTime_struct@time_native_class@@@Z 
--- From 'Obj\time_api.obj'
01:0004A1A4 ?_systemTimeToGmtTime@time_api_class@@SAXPAUsystemTime_struct@time_native_class@@PAAAUgmtTimeValue@@@Z 
--- From 'Obj\exceptiondump.obj'
01:0004A588 ?_localTimeToSystemTime@time_api_class@@SAXPAPBUlocalTimeValue@@PAPAUsystemTime_struct@time_native_class@@@Z 
--- From 'Obj\time_api.obj'
01:0004A5D4 ?_systemTimeToLocalTime@time_api_class@@SAXPAUsystemTime_struct@time_native_class@@PAAAUlocalTimeValue@@@Z 
01:0004A630 ?_localFileTimeToFileTime@time_api_class@@SAXPAPBUgmtTimeValue@@PAAAU2@@Z 
01:0004A6F4 ?_getTimeZoneInformation@time_api_class@@SAXPAPAUtimeZoneAPI_struct@time_native_class@@@Z  (Idle)
01:0004A758 ?_systemTimeToTzSpecificLocalTime@time_api_class@@SAXPAUtimeZoneAPI_struct@time_native_class@@PAUsystemTime_struct@3@PAPAU43@@Z 
01:0004A7BC ?_tzSpecificLocalTimeToSystemTime@time_api_class@@SAXPAUtimeZoneAPI_struct@time_native_class@@PAUsystemTime_struct@3@PAPAU43@@Z 
01:0004ABE8 ?_tzSpecificLocalTimeToSystemTime2@time_api_class@@SAXPAUtimeZoneAPI_struct@time_native_class@@PAUsystemTime_struct@3@PAPAU43@@Z 
--- From 'Obj\exceptiondump.obj'
01:0004AC4C ?_gmtTimeToLocalTime@time_api_class@@SAXPAPBUgmtTimeValue@@PAAAUlocalTimeValue@@@Z 
--- From 'Obj\time_api.obj'
01:0004AC78 ?_gmtTimeToLocalTime@time_api_class@@SAXPAPBUgmtTimeValue@@PAUtimeZoneAPI_struct@time_native_class@@PAAAUlocalTimeValue@@@Z 
01:0004ACBC ?_localTimeToGmtTime@time_api_class@@SAXPAPBUlocalTimeValue@@PAAAUgmtTimeValue@@@Z  (Idle)
01:0004ACE8 ?_localTimeToGmtTime@time_api_class@@SAXPAPBUlocalTimeValue@@PAUtimeZoneAPI_struct@time_native_class@@PAAAUgmtTimeValue@@@Z 
01:0004AD2C ?_gmtTimeToFileTime@time_api_class@@SAXPAPBUgmtTimeValue@@PAPAUfileTime_struct@time_native_class@@@Z 
01:0004AD50 ?_fileTimeToGmtTime@time_api_class@@SAXPAUfileTime_struct@time_native_class@@PAAAUgmtTimeValue@@@Z 
01:0004AD68 ?_formatDate@time_api_class@@SAXPAPBUlocalTimeValue@@PB_WIPAPB_W@Z  (Idle)
01:0004ADB8 ?_formatTime@time_api_class@@SAXPAPBUlocalTimeValue@@PB_WIPAPB_W@Z  (Idle)
--- From 'Obj\exception.obj'
01:0004AE08 ?_getDateFormat@time_api_class@@SAXIIPAUsystemTime_struct@time_native_class@@PB_WPAPB_W@Z 
01:0004AFB8 ?_getTimeFormat@time_api_class@@SAXIIPAUsystemTime_struct@time_native_class@@PB_WPAPB_W@Z 
--- From 'Obj\time_api.obj'
01:0004B168 ?_getLocaleInfo@time_api_class@@SAXIIPAPB_W@Z  (Idle)
01:0004B1F0 ?isLeapYear@time_api_class@@SAXI@Z  (Idle)
01:0004B288 ?cannotGetDateTimeFormat@time_api_class@@SAXPAXPAPB_W1@Z 
01:0004B2B0 ?cannotGetLocaleInfo@time_api_class@@SAXPAXPAPB_W1@Z 
01:0004B2D8 ?raise_CannotGetDateTimeFormat@time_api_class@@SAXIIIIIIIIIIPB_WI@Z 
01:0004B6AC ?raise_CannotGetLocaleInfo@time_api_class@@SAXIII@Z 
01:0004B7BC ?_fileTimeToSystemTime@time_api_class@@SAXPAPBUgmtTimeValue@@PAPAUsystemTime_struct@time_native_class@@@Z  (Idle)
01:0004B7C4 ?_systemTimeToFileTime@time_api_class@@SAXPAUsystemTime_struct@time_native_class@@PAAAUgmtTimeValue@@@Z  (Idle)
--- From 'Obj\exceptiondump.obj'
01:0004B7D0 ?classInfo@exceptionDump_class@@SAXPAPB_W0@Z  (Idle)
--- From 'Obj\vpi.obj'
01:0004B7EC ?dump@exceptionDump_class@@SAXQAVoutputStream@@@PBUtraceId@exception@@@Z 
--- From 'Obj\exceptiondump.obj'
01:0004B814 ?dump_info@exceptionDump_class@@SAXQAVoutputStream@@@PAUtraceInfo_struct@exception_class@@@Z 
--- From 'Obj\exe.obj'
01:0004B860 ?dumpToStdOutput@exceptionDump_class@@SAXPBUtraceId@exception@@@Z 
--- From 'Obj\exceptiondump.obj'
01:0004B888 ?dumpToStdOutput_info@exceptionDump_class@@SAXPAUtraceInfo_struct@exception_class@@@Z 
01:0004B8DC ?_dumpToString@exceptionDump_class@@SAXPBUtraceId@exception@@PAPB_W@Z  (Idle)
01:0004B904 ?_dumpToString_info@exceptionDump_class@@SAXPAUtraceInfo_struct@exception_class@@PAPB_W@Z 
01:0004B95C ?dumpToStdOutputInTrap@exceptionDump_class@@SAXPAUtraceInfo_struct@exception_class@@@Z 
01:0004BA04 ?processErrorOnDumpToStdOut@exceptionDump_class@@SAXPAUtraceInfo_struct@exception_class@@@Z 
01:0004BA7C ?processErrorOnDumpToStdOutTrapped@exceptionDump_class@@SAXPBUtraceId@@@Z 
01:0004BAE0 ?_formatTraceInfo@exceptionDump_class@@SAXPAUtraceInfo_struct@exception_class@@PAPB_W@Z  (Idle)
01:0004BB8C ?_formatDescriptorList@exceptionDump_class@@SAXPAU?$__list_struct@Udescriptor@exception@@@@PAPB_W@Z  (Idle)
01:0004BBE4 ?_formatDescriptor@exceptionDump_class@@SAXPAUdescriptor_struct@exception_class@@PAPB_W@Z  (Idle)
01:0004BC8C ?_formatExtraInfo@exceptionDump_class@@SAXPAU?$__list_struct@UnamedValue@@@@PAPB_W@Z  (Idle)
01:0004BCE4 ?_formatLineInfoList@exceptionDump_class@@SAXPAU?$__list_struct@UlineInfo@exception@@@@PAPB_W@Z  (Idle)
01:0004BD3C ?_value2String@exceptionDump_class@@SAXPAUvalue_struct@core_class@@PAPB_W@Z 
01:0004BFA8 ?_fillUsrMsgTags@exceptionDump_class@@SAXPB_WPAU?$__list_struct@UnamedValue@@@@PAPB_W@Z 
01:0004C084 ?_substituteTag@exceptionDump_class@@SAXPB_WPAU?$__list_struct@UnamedValue@@@@PAPB_W@Z 
01:0004C0D0 ?getUserMsgFromNV_dt@exceptionDump_class@@SAXPAU?$__list_struct@UnamedValue@@@@PAPB_W@Z 
01:0004C174 ?getUserMsg_dt@exceptionDump_class@@SAXPAUdescriptor_struct@exception_class@@PAPB_W@Z 
01:0004C190 ?_getUserMsg@exceptionDump_class@@SAXPAU?$__list_struct@Udescriptor@exception@@@@PAPB_W@Z 
01:0004C240 ?_tryGetUserMessage@exceptionDump_class@@SAXPBUtraceId@exception@@PAPB_W@Z 
01:0004C268 ?_tryGetUserMessage_info@exceptionDump_class@@SAXPAUtraceInfo_struct@exception_class@@PAPB_W@Z 
01:0004C284 ?_tryGetUserMessageFromDescriptorList@exceptionDump_class@@SAXPAU?$__list_struct@Udescriptor@exception@@@@PAPB_W@Z 
01:0004C2B0 ?writeTraceInfo@exceptionDump_class@@SAXQAVoutputStream@@@PAUtraceInfo_struct@exception_class@@@Z 
01:0004C2FC ?writeDescriptor_list@exceptionDump_class@@SAXQAVoutputStream@@@PAU?$__list_struct@Udescriptor@@@@@Z 
01:0004C390 ?writeErrorDescriptorInformation@exceptionDump_class@@SAXQAVoutputStream@@@PAUclassInfoDescriptor_struct@exception_class@@PAUexceptionDescriptor_struct@4@PAUkind_struct@4@PAU?$__list_struct@UnamedValue@@@@PAPBUgmtTimeValue@@I@Z 
01:0004C658 ?section@exceptionDump_class@@SAXQAVoutputStream@@@PB_W@Z 
01:0004C6A0 ?writeOSInformation@exceptionDump_class@@SAXQAVoutputStream@@@PB_W@Z 
01:0004C718 ?writeLineInfo_list@exceptionDump_class@@SAXQAVoutputStream@@@PAU?$__list_struct@UlineInfo@@@@@Z 
01:0004C790 ?writeLineInfo@exceptionDump_class@@SAXQAVoutputStream@@@PAUlineInfo_struct@exception_class@@@Z 
01:0004C828 ?writeException@exceptionDump_class@@SAXQAVoutputStream@@@PAUexceptionDescriptor_struct@exception_class@@@Z 
01:0004C88C ?writeExtraInfo@exceptionDump_class@@SAXQAVoutputStream@@@PAU?$__list_struct@UnamedValue@@@@@Z 
01:0004C908 ?writeClassInfo@exceptionDump_class@@SAXQAVoutputStream@@@PB_W1@Z 
01:0004C94C ?writePosition@exceptionDump_class@@SAXQAVoutputStream@@@IPB_W@Z 
01:0004C990 ?_formatDateTime@exceptionDump_class@@SAXPAPBUgmtTimeValue@@PAPB_W@Z 
01:0004CA1C ?writeCurrentDateTime@exceptionDump_class@@SAXQAVoutputStream@@@@Z 
01:0004CA74 ?writeNamedValue@exceptionDump_class@@SAXQAVoutputStream@@@PAUnamedValue_struct@core_class@@@Z 
01:0004CB30 ?writeValue_or_NULL@exceptionDump_class@@SAXQAVoutputStream@@@PB_W@Z 
01:0004CBA8 ?writeValue@exceptionDump_class@@SAXQAVoutputStream@@@PAUvalue_struct@core_class@@@Z 
01:0004CEC0 ?writeValue_or_NULL@exceptionDump_class@@SAXQAVoutputStream@@@PAD@Z 
01:0004CF38 ?writeValue_or_NULL@exceptionDump_class@@SAXQAVoutputStream@@@QAE@Z 
01:0004CFB0 ?writeValue_or_NULL@exceptionDump_class@@SAXQAVoutputStream@@@PBUbinaryNonAtomic@@@Z 
01:0004D028 ?writeValue_or_NULL@exceptionDump_class@@SAXQAVoutputStream@@@QAVobject@@@@Z 
--- From 'Obj\math.obj'
01:0004D0A0 ?classInfo@math_exception_class@@SAXPAPB_W0@Z 
01:0004D0BC ?raise_asinOutOfBounds@math_exception_class@@SAXXPAN@Z 
01:0004D12C ?asinOutOfBounds@math_exception_class@@SAXPAXPAPB_W1@Z 
01:0004D154 ?raise_acoshOutOfBounds@math_exception_class@@SAXXPAN@Z 
01:0004D1C4 ?acoshOutOfBounds@math_exception_class@@SAXPAXPAPB_W1@Z 
01:0004D1EC ?raise_atanhOutOfBounds@math_exception_class@@SAXXPAN@Z 
01:0004D25C ?atanhOutOfBounds@math_exception_class@@SAXPAXPAPB_W1@Z 
01:0004D284 ?raise_acotanhOutOfBounds@math_exception_class@@SAXXPAN@Z 
01:0004D2F4 ?acotanhOutOfBounds@math_exception_class@@SAXPAXPAPB_W1@Z 
01:0004D31C ?raise_cotanhInfinityResult@math_exception_class@@SAXXPAN@Z 
01:0004D38C ?cotanhInfinityResult@math_exception_class@@SAXPAXPAPB_W1@Z 
01:0004D3B4 ?classInfo@math_class@@SAXPAPB_W0@Z 
01:0004D3D0 ?check_asin_nearBounds@math_class@@SAXPAPBUinCircle@@@Z 
01:0004D414 ?_getBoundsForValue@math_class@@SAXPAPBUinCircle@@PAPAN@Z 
01:0004D448 ?_arcsin@math_class@@SAXPAPBUinCircle@@PAPAN@Z 
01:0004D59C ?_sinh@math_class@@SAXPANPAPAN@Z 
01:0004D60C ?_tryToUnsigned@math_class@@SAXPB_WPAI@Z  (Idle)
01:0004D628 ?_tryToInteger@math_class@@SAXPB_WPAH@Z  (Idle)
01:0004D644 ?_tryToReal@math_class@@SAXPB_WPAPAN@Z  (Idle)
01:0004D660 ?_toUnsigned@math_class@@SAXPB_WPAI@Z  (Idle)
01:0004D67C ?_toInteger@math_class@@SAXPB_WPAH@Z  (Idle)
01:0004D698 ?_toReal@math_class@@SAXPB_WPAPAN@Z  (Idle)
01:0004D6B4 ?_prepareResultForBigValue@math_class@@SAXPANPAAAUuReal@@@Z 
01:0004D814 ?_arcsinh@math_class@@SAXPANPAPAN@Z  (Idle)
01:0004D864 ?_arccos@math_class@@SAXPAPBUinCircle@@PAPAN@Z  (Idle)
01:0004D8B0 ?_cosh@math_class@@SAXPANPAAAUuReal@@@Z 
01:0004D938 ?_prepareResultForValue@math_class@@SAXPAPBUuReal@@PAAAU2@@Z 
01:0004DA58 ?_arccosh@math_class@@SAXPAPBUuReal@@PAPAN@Z  (Idle)
01:0004DACC ?_get_tanhBoundsForValue@math_class@@SAXPANPAAAUinCircle@@@Z 
01:0004DB00 ?_tanh@math_class@@SAXPANPAAAUinCircle@@@Z  (Idle)
01:0004DBB0 ?_arctanh@math_class@@SAXPAPBUinCircle@@PAPAN@Z  (Idle)
01:0004DC64 ?_cotanh@math_class@@SAXPANPAPAN@Z  (Idle)
01:0004DD28 ?_arccotanh@math_class@@SAXPANPAPAN@Z  (Idle)
01:0004DDD4 ?_power@math_class@@SAXPAPBUuReal@@PANPAAAU2@@Z  (Idle)
01:0004DF44 ?_sqr@math_class@@SAXPANPAAAUuReal@@@Z 
--- From 'Obj\vpi.obj'
01:0004DF98 ?_round@math_class@@SAXPANPAH@Z 
--- From 'Obj\gui.obj'
01:0004DFCC ?_trunc@math_class@@SAXPANPAH@Z 
--- From 'Obj\math.obj'
01:0004E000 ?_fraction@math_class@@SAXPANPAPAN@Z  (Idle)
01:0004E04C ?_ceil@math_class@@SAXPANPAH@Z 
01:0004E084 ?_ceilToReal@math_class@@SAXPANPAPAN@Z 
01:0004E12C ?_floor@math_class@@SAXPANPAH@Z  (Idle)
01:0004E174 ?_floorToReal@math_class@@SAXPANPAPAN@Z  (Idle)
--- From 'Obj\binary.obj'
01:0004E1D4 ?_max@math_class@@SAXHHPAH@Z 
--- From 'Obj\math.obj'
01:0004E1F8 ?_max@math_class@@SAXHHHPAH@Z  (Idle)
--- From 'Obj\exe.obj'
01:0004E228 ?_min@math_class@@SAXHHPAH@Z 
--- From 'Obj\math.obj'
01:0004E24C ?_min@math_class@@SAXHHHPAH@Z  (Idle)
01:0004E27C ?_restrict@math_class@@SAXHHHPAH@Z  (Idle)
01:0004E2B0 ?divides_dt@math_class@@SAXHH@Z  (Idle)
01:0004E2F0 ?_max@math_class@@SAXIIPAI@Z 
01:0004E314 ?_max@math_class@@SAXPANPANPAPAN@Z 
01:0004E34C ?_max@math_class@@SAXIIIPAI@Z  (Idle)
01:0004E37C ?_max@math_class@@SAXPANPANPANPAPAN@Z  (Idle)
01:0004E3AC ?_min@math_class@@SAXIIPAI@Z 
01:0004E3D0 ?_min@math_class@@SAXPANPANPAPAN@Z 
01:0004E408 ?_min@math_class@@SAXIIIPAI@Z  (Idle)
01:0004E438 ?_min@math_class@@SAXPANPANPANPAPAN@Z  (Idle)
01:0004E468 ?_restrict@math_class@@SAXIIIPAI@Z  (Idle)
01:0004E49C ?_restrict@math_class@@SAXPANPANPANPAPAN@Z  (Idle)
01:0004E4D0 ?divides_dt@math_class@@SAXII@Z  (Idle)
--- From 'Obj\gui_api.obj'
01:0004E4F0 ?classInfo@gui_Native_class@@SAXPAPB_W0@Z  (Idle)
01:0004E50C ?classInfo@gui_api_class@@SAXPAPB_W0@Z 
01:0004E528 ?getScrollRange@gui_api_class@@SAXPBUwindowHandle@vpiDomains@@PBUunsigned32@@PAHPAH@Z  (Idle)
01:0004E578 ?_makePoints@gui_api_class@@SAXHPAPAUpnt_struct@vpiDomains_class@@@Z  (Idle)
01:0004E5FC ?_makeLParam@gui_api_class@@SAXPAUpnt_struct@vpiDomains_class@@PAH@Z  (Idle)
01:0004E67C ?_getWindowPlacement@gui_api_class@@SAXPBUwindowHandle@vpiDomains@@PAPAUwindowPlacement_struct@1@@Z  (Idle)
01:0004E76C ?setWindowPlacement@gui_api_class@@SAXPBUwindowHandle@vpiDomains@@PAUwindowPlacement_struct@1@@Z  (Idle)
--- From 'Obj\filesystem.obj'
01:0004E840 ?classInfo@outputStream_file_class@@SAXPAPB_W0@Z 
01:0004E85C ?create@outputStream_file_class@@SAXQAVoutputStream_file@@@PB_W@Z 
01:0004E8A4 ?create@outputStream_file_class@@SAXQAVoutputStream_file@@@PB_WPAUmode_struct@stream_class@@@Z 
01:0004E8E8 ?create@outputStream_file_class@@SAXQAVoutputStream_file@@@PB_WPAUmode_struct@stream_class@@PAUaccessPermit_struct@fileSystem_api_class@@@Z 
01:0004E928 ?create@outputStream_file_class@@SAXQAVoutputStream_file@@@PB_WPAUmode_struct@stream_class@@PAUaccessPermit_struct@fileSystem_api_class@@PAU?$__list_struct@UfileAttributeAtom@@@@@Z 
01:0004E970 ?create8@outputStream_file_class@@SAXQAVoutputStream_file@@@PB_W@Z 
01:0004E9B8 ?commonPartOfConstructors@outputStream_file_class@@SAXQAVoutputStream_file@@@PBUfileHandle@@PAUmode_struct@stream_class@@@Z 
01:0004EA38 ?handleMode_create@outputStream_file_class@@SAXQAVoutputStream_file@@@PAUmode_struct@stream_class@@@Z 
01:0004EAA0 ?openFile@outputStream_file_class@@SAXQAVoutputStream_file@@@PB_W@Z 
01:0004EADC ?openFile8@outputStream_file_class@@SAXQAVoutputStream_file@@@PB_W@Z 
01:0004EB18 ?openFile@outputStream_file_class@@SAXQAVoutputStream_file@@@PB_WPAUmode_struct@stream_class@@@Z 
01:0004EB50 ?openFile@outputStream_file_class@@SAXQAVoutputStream_file@@@PB_WPAUmode_struct@stream_class@@PAUaccessPermit_struct@fileSystem_api_class@@@Z 
01:0004EBB4 ?append@outputStream_file_class@@SAXQAVoutputStream_file@@@PB_W@Z 
01:0004EBE4 ?append8@outputStream_file_class@@SAXQAVoutputStream_file@@@PB_W@Z 
01:0004EC14 ?append@outputStream_file_class@@SAXQAVoutputStream_file@@@PB_WPAUmode_struct@stream_class@@@Z 
01:0004EC98 ?newHandleFile@outputStream_file_class@@SAXQAVoutputStream_file@@@PBUfileHandle@@PAUmode_struct@stream_class@@@Z 
01:0004ECE8 ?newHandle@outputStream_file_class@@SAXQAVoutputStream_file@@@PBUfileHandle@@PAUmode_struct@stream_class@@@Z 
01:0004ECF0 ?checkUnicodeSignature@outputStream_file_class@@SAXQAVoutputStream_file@@@PAUmode_struct@stream_class@@PAUboolean_struct@_builtIn_class@@@Z 
01:0004ED98 ?checkSign@outputStream_file_class@@SAXQAVoutputStream_file@@@PBUbyteCount@@PAUcharPtr_struct@1@PAUboolean_struct@_builtIn_class@@@Z 
01:0004EEF8 ?getCRLFconversion@outputStream_file_class@@SGPAUboolean_struct@_builtIn_class@@QAVstream@@@@Z 
01:0004EF2C ?setCRLFconversion@outputStream_file_class@@SGXQAVstream@@@PAUboolean_struct@_builtIn_class@@@Z 
01:0004EF94 ?getPosition@outputStream_file_class@@SG_KQAVstream@@@@Z 
01:0004F090 ?_handlingGetPosition@outputStream_file_class@@SAXQAVoutputStream_file@@@PA_KPAPA_K@Z 
01:0004F114 ?setPosition@outputStream_file_class@@SGXQAVstream@@@_K@Z 
01:0004F25C ?_checkMovingIsInsideBuffer@outputStream_file_class@@SAXQAVoutputStream_file@@@PA_K1PBUbyteCount@@AAU3@@Z 
01:0004F454 ?setMaxOffsetUsedInCurrentBuffer@outputStream_file_class@@SAXQAVoutputStream_file@@@PBUbyteCount@@@Z 
01:0004F47C ?_handlingSetPosition@outputStream_file_class@@SAXQAVoutputStream_file@@@PA_KPAPA_K@Z 
01:0004F50C ?checkOddness@outputStream_file_class@@SAXPA_K@Z 
01:0004F580 ?close@outputStream_file_class@@SGXQAVstream@@@@Z 
01:0004F5DC ?flush@outputStream_file_class@@SGXQAVoutputStream@@@@Z 
01:0004F638 ?bufferFullCallBack@outputStream_file_class@@SAXQAVoutputStream_file@@@PBUbyteCount@@PAPAXAAU3@@Z 
01:0004F724 ?convertLFtoCRLF_IfNeeded@outputStream_file_class@@SAXQAVoutputStream_file@@@PAXPBUbyteCount@@PAPAXAAU3@@Z 
01:0004F790 ?convertToANSI_IfNeeded@outputStream_file_class@@SAXQAVoutputStream_file@@@PAXPBUbyteCount@@PAPAXAAU3@@Z 
01:0004F854 ?getBuffer@outputStream_file_class@@SGXQAVbufferSupport@@@PAPAXAAUbyteCount@@@Z 
01:0004F8C0 ?getBufferLocked@outputStream_file_class@@SGXQAVbufferSupport@@@PAPAXAAUbyteCount@@@Z 
01:0004F8DC ?_create@outputStream_file_class@@SAXPB_WPAPAVoutputStream@@@@Z 
01:0004F904 ?_create@outputStream_file_class@@SAXPB_WPAUmode_struct@stream_class@@PAPAVoutputStream@@@@Z  (Idle)
01:0004F930 ?_create@outputStream_file_class@@SAXPB_WPAUmode_struct@stream_class@@PAUaccessPermit_struct@fileSystem_api_class@@PAPAVoutputStream@@@@Z  (Idle)
01:0004F960 ?_create@outputStream_file_class@@SAXPB_WPAUmode_struct@stream_class@@PAUaccessPermit_struct@fileSystem_api_class@@PAU?$__list_struct@UfileAttributeAtom@@@@PAPAVoutputStream@@@@Z  (Idle)
01:0004F994 ?_create8@outputStream_file_class@@SAXPB_WPAPAVoutputStream@@@@Z 
01:0004F9BC ?_openFile@outputStream_file_class@@SAXPB_WPAPAVoutputStream@@@@Z  (Idle)
01:0004F9E4 ?_openFile@outputStream_file_class@@SAXPB_WPAUmode_struct@stream_class@@PAPAVoutputStream@@@@Z  (Idle)
01:0004FA10 ?_openFile@outputStream_file_class@@SAXPB_WPAUmode_struct@stream_class@@PAUaccessPermit_struct@fileSystem_api_class@@PAPAVoutputStream@@@@Z  (Idle)
01:0004FA40 ?_openFile8@outputStream_file_class@@SAXPB_WPAPAVoutputStream@@@@Z  (Idle)
01:0004FA68 ?_append@outputStream_file_class@@SAXPB_WPAPAVoutputStream@@@@Z  (Idle)
01:0004FA90 ?_append@outputStream_file_class@@SAXPB_WPAUmode_struct@stream_class@@PAPAVoutputStream@@@@Z 
01:0004FABC ?_append8@outputStream_file_class@@SAXPB_WPAPAVoutputStream@@@@Z  (Idle)
01:0004FAE4 ?_newHandleFile@outputStream_file_class@@SAXPBUfileHandle@@PAUmode_struct@stream_class@@PAPAVoutputStream@@@@Z  (Idle)
01:0004FB10 ?_newHandle@outputStream_file_class@@SAXPBUfileHandle@@PAUmode_struct@stream_class@@PAPAVoutputStream@@@@Z  (Idle)
01:0004FB3C ?_commonPartOfConstructors@outputStream_file_class@@SAXPBUfileHandle@@PAUmode_struct@stream_class@@PAPAVoutputStream@@@@Z  (Idle)
01:0004FB68 ?_object_facts_initializer@outputStream_file_class@@SGXQAVoutputStream_file@@@@Z 
01:0004FB94 ?classInfo@messageFile_class@@SAXPAPB_W0@Z 
01:0004FBB0 ?append@messageFile_class@@SAXQAVmessageFile@@@PB_W@Z 
01:0004FBE0 ?append@messageFile_class@@SAXQAVmessageFile@@@PB_WPAUmode_struct@stream_class@@@Z 
01:0004FC00 ?flush@messageFile_class@@SGXQAVoutputStream@@@@Z 
01:0004FC10 ?write@messageFile_class@@SAXQAVoutputStream@@@@Z 
01:0004FCA8 ?writef@messageFile_class@@SAXQAVoutputStream@@@PB_W@Z 
01:0004FD44 ?writeQuoted@messageFile_class@@SAXQAVoutputStream@@@@Z 
01:0004FDDC ?nl@messageFile_class@@SGXQAVoutputStream@@@@Z 
01:0004FE70 ?writeBytes@messageFile_class@@SGXQAVoutputStream@@@PAXPBUbyteCount@@@Z 
01:0004FF0C ?save@messageFile_class@@SGXQAVoutputStream@@@PBUfactDB@@@Z 
01:0004FFA4 ?setMode@messageFile_class@@SGXQAVstream@@@PAUmode_struct@stream_class@@@Z 
01:0004FFBC ?getMode@messageFile_class@@SGPAUmode_struct@stream_class@@QAVstream@@@@Z 
01:0004FFD8 ?getCRLFconversion@messageFile_class@@SGPAUboolean_struct@_builtIn_class@@QAVstream@@@@Z 
01:0004FFEC ?setCRLFconversion@messageFile_class@@SGXQAVstream@@@PAUboolean_struct@_builtIn_class@@@Z 
01:00050014 ?close@messageFile_class@@SGXQAVstream@@@@Z 
01:00050024 ?getPosition@messageFile_class@@SG_KQAVstream@@@@Z 
01:0005003C ?setPosition@messageFile_class@@SGXQAVstream@@@_K@Z 
01:00050054 ?_append@messageFile_class@@SAXPB_WPAPAVoutputStream@@@@Z  (Idle)
01:0005007C ?_append@messageFile_class@@SAXPB_WPAUmode_struct@stream_class@@PAPAVoutputStream@@@@Z  (Idle)
01:000500A8 ?classInfo@inputStream_file_class@@SAXPAPB_W0@Z 
01:000500C4 ?openFile@inputStream_file_class@@SAXQAVinputStream_file@@@PB_W@Z 
01:00050100 ?openFile8@inputStream_file_class@@SAXQAVinputStream_file@@@PB_W@Z 
01:0005013C ?openFile@inputStream_file_class@@SAXQAVinputStream_file@@@PB_WPAUmode_struct@stream_class@@@Z 
01:00050174 ?_halfBufferSize@inputStream_file_class@@SAXQAVinputStream_file@@@AAUbyteCount@@@Z 
01:000501C4 ?commonPartOfConstructors@inputStream_file_class@@SAXQAVinputStream_file@@@PBUfileHandle@@PAUmode_struct@stream_class@@PAUboolean_struct@_builtIn_class@@@Z 
01:00050288 ?handlingMode@inputStream_file_class@@SAXQAVinputStream_file@@@PAUmode_struct@stream_class@@PAUboolean_struct@_builtIn_class@@@Z 
01:00050390 ?openFile@inputStream_file_class@@SAXQAVinputStream_file@@@PB_WPAUmode_struct@stream_class@@PAUaccessPermit_struct@fileSystem_api_class@@@Z 
01:000503CC ?openFile@inputStream_file_class@@SAXQAVinputStream_file@@@PB_WPAUmode_struct@stream_class@@PAUaccessPermit_struct@fileSystem_api_class@@PBUbyteCount@@@Z 
01:00050420 ?checkBufferSize@inputStream_file_class@@SAXPBUbyteCount@@@Z 
01:00050458 ?newHandleFile@inputStream_file_class@@SAXQAVinputStream_file@@@PBUfileHandle@@PAUmode_struct@stream_class@@@Z 
01:000504B0 ?newHandle@inputStream_file_class@@SAXQAVinputStream_file@@@PBUfileHandle@@PAUmode_struct@stream_class@@@Z 
01:000504E8 ?checkUnicodeSignature@inputStream_file_class@@SAXQAVinputStream_file@@@PAUboolean_struct@_builtIn_class@@@Z 
01:00050598 ?getPosition@inputStream_file_class@@SG_KQAVstream@@@@Z 
01:00050658 ?_handlingFileMode@inputStream_file_class@@SAXQAVinputStream_file@@@PAUmode_struct@stream_class@@PBUbyteCount@@2AAU5@@Z 
01:0005074C ?_handleTextMode@inputStream_file_class@@SAXQAVinputStream_file@@@PAUmode_struct@stream_class@@PBUbyteCount@@IAAU5@@Z 
01:00050900 ?_getPassedConv@inputStream_file_class@@SAXPAU?$__list_struct@UbyteCount@@@@IIPBU2@PAI@Z 
01:000509C4 ?setPosition@inputStream_file_class@@SGXQAVstream@@@_K@Z 
01:00050B4C ?_checkMovingIsInsideBuffer@inputStream_file_class@@SAXQAVinputStream_file@@@PA_K1PBUbyteCount@@3AAU3@@Z 
01:00050DBC ?_handlingSetPosition@inputStream_file_class@@SAXQAVinputStream_file@@@PA_KPAPA_K@Z 
01:00050E50 ?checkOddness@inputStream_file_class@@SAXQAVinputStream_file@@@PA_K@Z 
01:00050EC4 ?endOfStream@inputStream_file_class@@SAXQAVinputStream@@@@Z 
01:00050F30 ?isEndOfFile@inputStream_file_class@@SAXQAVinputStream_file@@@PA_K@Z 
01:00050F98 ?close@inputStream_file_class@@SGXQAVstream@@@@Z 
01:00050FEC ?getCRLFconversion@inputStream_file_class@@SGPAUboolean_struct@_builtIn_class@@QAVstream@@@@Z 
01:00051038 ?setCRLFconversion@inputStream_file_class@@SGXQAVstream@@@PAUboolean_struct@_builtIn_class@@@Z 
01:00051128 ?setMode@inputStream_file_class@@SGXQAVinputSupport@@@PAUmode_struct@stream_class@@@Z 
01:00051210 ?_checkModeAndPos@inputStream_file_class@@SAXQAVinputStream_file@@@PAUmode_struct@stream_class@@PA_KPAPA_K@Z 
01:00051350 ?exTextBufferCB@inputStream_file_class@@SAXQAVinputStream_file@@@PAPAXAAUbyteCount@@@Z 
01:000513B8 ?exTextLockBufferCB@inputStream_file_class@@SAXQAVinputStream_file@@@PAPAXAAUbyteCount@@@Z 
01:00051430 ?_fillBuffer@inputStream_file_class@@SAXQAVinputStream_file@@@PAUmode_struct@stream_class@@AAUbyteCount@@@Z 
01:00051524 ?_convertToUnicode@inputStream_file_class@@SAXQAVinputStream_file@@@PBUbyteCount@@PAUcodepage_struct@core_class@@PAXAAUcharCount@@@Z 
01:0005158C ?convertCRLFtoLF_ifNeeded@inputStream_file_class@@SAXQAVinputStream_file@@@PAUmode_struct@stream_class@@PBUbyteCount@@PAPAXAAU5@@Z 
01:00051688 ?handlingBufferLastChar@inputStream_file_class@@SAXQAVinputStream_file@@@PBUbyteCount@@PAPAXAAU3@@Z 
01:000516E8 ?_readFromFile@inputStream_file_class@@SAXQAVinputStream_file@@@PAXPBUbyteCount@@AAU3@@Z 
01:00051744 ?getBuffer@inputStream_file_class@@SGXQAVbufferSupport@@@PAPAXAAUbyteCount@@@Z 
01:00051768 ?getBufferLocked@inputStream_file_class@@SGXQAVbufferSupport@@@PAPAXAAUbyteCount@@@Z 
01:0005178C ?_openFile@inputStream_file_class@@SAXPB_WPAPAVinputStream@@@@Z  (Idle)
01:000517B4 ?_openFile8@inputStream_file_class@@SAXPB_WPAPAVinputStream@@@@Z  (Idle)
01:000517DC ?_openFile@inputStream_file_class@@SAXPB_WPAUmode_struct@stream_class@@PAPAVinputStream@@@@Z 
--- From 'Obj\exe_api.obj'
01:00051808 ?_openFile@inputStream_file_class@@SAXPB_WPAUmode_struct@stream_class@@PAUaccessPermit_struct@fileSystem_api_class@@PAPAVinputStream@@@@Z 
--- From 'Obj\filesystem.obj'
01:00051838 ?_openFile@inputStream_file_class@@SAXPB_WPAUmode_struct@stream_class@@PAUaccessPermit_struct@fileSystem_api_class@@PBUbyteCount@@PAPAVinputStream@@@@Z  (Idle)
01:0005186C ?_newHandleFile@inputStream_file_class@@SAXPBUfileHandle@@PAUmode_struct@stream_class@@PAPAVinputStream@@@@Z  (Idle)
01:00051898 ?_newHandle@inputStream_file_class@@SAXPBUfileHandle@@PAUmode_struct@stream_class@@PAPAVinputStream@@@@Z  (Idle)
01:000518C4 ?_commonPartOfConstructors@inputStream_file_class@@SAXPBUfileHandle@@PAUmode_struct@stream_class@@PAUboolean_struct@_builtIn_class@@PAPAVinputStream@@@@Z  (Idle)
01:000518F4 ?_object_facts_initializer@inputStream_file_class@@SGXQAVinputStream_file@@@@Z 
01:00051924 ?classInfo@fileVersion_class@@SAXPAPB_W0@Z 
01:00051940 ?_tryVerQueryValue@fileVersion_class@@SAXQAEPB_WPAPAX@Z 
01:00051990 ?_getFileVersionInformation@fileVersion_class@@SAXQAEPB_W1PAPB_W@Z 
01:00051A14 ?_loadVersionInfo@fileVersion_class@@SAXPB_WQAPAE@Z 
01:00051B68 ?_getLanguageAndCodePageKey@fileVersion_class@@SAXQAEPAPB_W@Z 
01:00051BFC ?_getVersionInfo@fileVersion_class@@SAXPB_WPAPAUversionInformation_struct@1@@Z  (Idle)
01:00051CD4 ?_getVersionBuildTime@fileVersion_class@@SAXPB_WPAPB_W@Z  (Idle)
01:00051D30 ?_getProductVersion@fileVersion_class@@SAXPB_WPAPA_K@Z  (Idle)
01:00051D8C ?_getRootKey@fileVersion_class@@SAXQAEPAPAUvs_fixedfileinfo_struct@1@@Z 
01:00051DDC ?_getFileVersionInfo@fileVersion_class@@SAXPB_WPAPAUfileVersionInformation_struct@1@@Z  (Idle)
01:00051E94 ?classInfo@fileSystem_exception_class@@SAXPAPB_W0@Z 
01:00051EB0 ?raise_FileAlreadyExists@fileSystem_exception_class@@SAXXPB_W@Z 
01:00051F20 ?raise_WrongAttribute@fileSystem_exception_class@@SAXXI@Z 
01:00051F90 ?raise_FileTooBig@fileSystem_exception_class@@SAXXPB_W@Z 
01:00052000 ?fileAlreadyExists@fileSystem_exception_class@@SAXPAXPAPB_W1@Z 
01:00052028 ?wrongAttribute@fileSystem_exception_class@@SAXPAXPAPB_W1@Z 
01:00052050 ?fileTooBig@fileSystem_exception_class@@SAXPAXPAPB_W1@Z 
01:00052078 ?checkFileReadResult@fileSystem_exception_class@@SAXXH@Z  (Idle)
01:000520B4 ?_getPath@fileName_class@@SAXPB_WPAPB_W@Z 
--- From 'Obj\exe.obj'
01:000520D4 ?getPathAndName@fileName_class@@SAXPB_WPAPB_W1@Z 
--- From 'Obj\filesystem.obj'
01:00052188 ?_getPathAndName1@fileName_class@@SAXPB_WPAPB_W@Z 
01:00052234 ?_getLastDirectory@fileName_class@@SAXPB_WPAPB_W1@Z  (Idle)
01:000522FC ?_removeLastSlash@fileName_class@@SAXPB_WPAPB_W@Z 
01:0005237C ?isSlashStr@fileName_class@@SAXPB_W@Z 
01:00052398 ?_getName@fileName_class@@SAXPB_WPAPB_W@Z  (Idle)
01:000523CC ?_charGet@fileName_class@@SAXPB_WPBUcharCount@@AAU2@@Z 
01:00052498 ?_getExtension@fileName_class@@SAXPB_WPAPB_W@Z  (Idle)
01:0005254C ?_getExtension@fileName_class@@SAXPB_WPAPB_W1@Z  (Idle)
01:00052628 ?_setPath@fileName_class@@SAXPB_W0PAPB_W@Z 
01:00052654 ?_setName@fileName_class@@SAXPB_W0PAPB_W@Z  (Idle)
01:000526B0 ?_setExtension@fileName_class@@SAXPB_W0PAPB_W@Z  (Idle)
01:0005270C ?_reduce@fileName_class@@SAXPB_W0PAPB_W@Z 
01:00052824 ?_reduceToShort@fileName_class@@SAXPB_W0PAPB_W@Z  (Idle)
01:00052870 ?getFirstDirectory@fileName_class@@SAXPB_WPAPB_W1@Z 
01:0005298C ?getNetName@fileName_class@@SAXPB_W0PAPB_W2@Z 
01:00052A00 ?_setTrailSlash@fileName_class@@SAXPB_WPAPB_W@Z 
01:00052A94 ?_tryGetLastChar@fileName_class@@SAXPB_WPA_W@Z 
01:00052AF0 ?_getSlashList@fileName_class@@SAXPB_W0HPAPAU?$__list_struct@UcharCount@@@@@Z 
01:00052BB4 ?_front2@fileName_class@@SAXPB_WPBUcharCount@@PAPB_W@Z 
01:00052BF4 ?_getOrderedList@fileName_class@@SAXPAU?$__list_struct@UcharCount@@@@0PAPAU?$__list_struct@U2@@@@Z 
01:00052CDC ?splitPathString@fileName_class@@SAXPB_WPAU?$__list_struct@UcharCount@@@@PBU2@PAPAU?$__list_struct@Ustring@@@@AAU2@@Z 
01:00052D8C ?splitOntoPathAndName@fileName_class@@SAXPB_WPAPAU?$__list_struct@Ustring@@@@PAPB_W@Z 
01:00052E60 ?splitFileName@fileName_class@@SAXPB_WPAPB_W1@Z 
01:00052ED8 ?_directoryCompare@fileName_class@@SAXPAU?$__list_struct@Ustring@@@@0PAPB_W@Z 
01:00052F64 ?_glueRest@fileName_class@@SAXPAU?$__list_struct@Ustring@@@@0PAPB_W@Z 
01:00052FB8 ?splitPath@fileName_class@@SAXPB_WPAPAU?$__list_struct@Ustring@@@@AAUcharCount@@@Z 
01:0005303C ?_nameConcat@fileName_class@@SAXPB_W0PAPB_W@Z 
01:0005308C ?_createPath@fileName_class@@SAXPB_W0PAPB_W@Z 
01:000530FC ?_reducePath@fileName_class@@SAXPB_WPAPB_W@Z 
01:0005317C ?_createPath@fileName_class@@SAX_WPB_W11PAPB_W@Z 
01:0005323C ?_concatWithSlash@fileName_class@@SAXPB_W0PAPB_W@Z 
01:000532DC ?_getTypeOfSlash@fileName_class@@SAXPB_W0PAPB_W@Z 
01:0005338C ?isSlash@fileName_class@@SAX_W@Z 
01:000533AC ?_checkSecondCharAfterSlash@fileName_class@@SAXPB_W00PAPB_W@Z 
01:00053488 ?_checkThirdCharAfterColon@fileName_class@@SAXPB_W_W00PAPB_W@Z 
01:00053564 ?_reducePath@fileName_class@@SAX_WPB_WPAPB_W@Z 
01:00053594 ?_applyFileName@fileName_class@@SAXPB_WPAU?$__list_struct@Ustring@@@@PAPAU?$__list_struct@U2@@@@Z 
01:0005369C ?stay_dir@fileName_class@@SAXPB_W@Z 
01:000536DC ?up_dir@fileName_class@@SAXPB_W@Z 
01:00053724 ?_reducePath_reversed@fileName_class@@SAXPAU?$__list_struct@Ustring@@@@PAPAU?$__list_struct@U2@@@@Z 
01:00053810 ?_upOneDir_reversed@fileName_class@@SAXPAU?$__list_struct@Ustring@@@@PAPAU?$__list_struct@U2@@@@Z 
01:0005393C ?notDriveOrNetworkVolume@fileName_class@@SAXPB_W@Z 
01:000539FC ?_findLast@fileName_class@@SAXPB_W0AAUcharCount@@@Z 
01:00053A5C ?_findLastSlash@fileName_class@@SAXPB_W0AAUcharCount@@@Z 
01:00053AC0 ?_findDirDelimPos@fileName_class@@SAXPB_WAAUcharCount@@@Z 
01:00053B10 ?up_dir@fileName_class@@SAXPAPB_W@Z 
01:00053B24 ?classInfo@file_class@@SAXPAPB_W0@Z 
01:00053B40 ?copy@file_class@@SAXPB_W0@Z  (Idle)
01:00053B70 ?copy@file_class@@SAXPB_W0PAUoverwrite_struct@1@@Z 
01:00053BE8 ?move@file_class@@SAXPB_W0@Z  (Idle)
01:00053C18 ?move@file_class@@SAXPB_W0PAUoverwrite_struct@1@@Z 
01:00053CB0 ?delete@file_class@@SAXPB_W@Z  (Idle)
01:00053D44 ?existExactFile@file_class@@SAXPB_W@Z  (Idle)
01:00053D7C ?existFile@file_class@@SAXPB_W@Z  (Idle)
01:00053E9C ?tryGetFile@file_class@@SAXPBUsearchHandle@fileSystem_api@@PAX@Z 
01:00053F30 ?_createUniqueName@file_class@@SAXPB_W0PAPB_W@Z 
01:00054030 ?_getPhysicalName@file_class@@SAXPB_WPAPB_W@Z  (Idle)
01:00054178 ?setAttributes@file_class@@SAXPB_WPAU?$__list_struct@UfileAttributeAtom@@@@PAUboolean_struct@_builtIn_class@@@Z  (Idle)
01:000543BC ?getFileProperties@file_class@@SAXPB_WPAPAU?$__list_struct@UfileAttributeAtom@@@@PAAAUfileSize@fileSystem_api@@PAAAUgmtTimeValue@@33@Z 
01:00054568 ?setFileTime@file_class@@SAXPB_WPAPBUgmtTimeValue@@11@Z  (Idle)
01:000547AC ?moveToRecycleBin@file_class@@SAXPB_W@Z  (Idle)
01:0005491C ?_readBinary@file_class@@SAXPB_WQAPAE@Z 
01:000549E8 ?_readFile@file_class@@SAXPBUfileHandle@@PAXPBUbyteCount@@AAU3@@Z 
01:00054A88 ?_readBinary@file_class@@SAXPB_WPAPBUfileSize@fileSystem_api@@PBUbyteCount@@QAPAE@Z  (Idle)
01:00054BF4 ?_readString@file_class@@SAXPB_WPAPB_W@Z  (Idle)
01:00054D3C ?checkUnicodeSignature@file_class@@SAXPB_WPBUbyteCount@@PAPB_WAAU2@@Z 
01:00054DB4 ?_readString@file_class@@SAXPB_WPAPAUboolean_struct@_builtIn_class@@PAPB_W@Z  (Idle)
01:00054E50 ?_readStringFromHandle@file_class@@SAXPBUfileHandle@@PAPAUboolean_struct@_builtIn_class@@PAPB_W@Z 
01:00054F98 ?_getUnicode@file_class@@SAXPAXPBUbyteCount@@PAPAUboolean_struct@_builtIn_class@@2@Z 
01:00055008 ?_isUnicode@file_class@@SAXPAXPBUbyteCount@@PAPAUboolean_struct@_builtIn_class@@@Z 
01:0005505C ?_getString@file_class@@SAXPBUbyteCount@@PAXPAUboolean_struct@_builtIn_class@@2PAPB_W@Z 
01:0005516C ?_getFileSize@file_class@@SAXPBUfileHandle@@PB_WAAUbyteCount@@@Z 
01:000551E4 ?writeBinary@file_class@@SAXPB_WQAE@Z  (Idle)
01:00055298 ?writeFile@file_class@@SAXPBUfileHandle@@PAXPBUbyteCount@@@Z 
01:000552E8 ?writeBinary@file_class@@SAXPB_WPAPBUfileSize@fileSystem_api@@QAE@Z  (Idle)
01:000553CC ?writeString@file_class@@SAXPB_W0@Z 
01:000554C4 ?appendString@file_class@@SAXPB_W0PAUboolean_struct@_builtIn_class@@@Z  (Idle)
01:0005575C ?writeString@file_class@@SAXPB_W0PAUboolean_struct@_builtIn_class@@@Z 
01:000558F0 ?checkResult@file_class@@SAXPBUhResult@@PB_W11PAUoverwrite_struct@1@@Z 
01:00055C24 ?fileExists_errorCode@file_class@@SAXPBUhResult@@@Z 
01:00055C40 ?hideUnicodeSignature@file_class@@SAXQAEPBUbyteCount@@PAPAXAAU2@@Z 
01:00055CD8 ?_setDestination@file_class@@SAXPB_W0PAPB_W@Z 
01:00055D30 ?_toApiAttributes@file_class@@SAXPAU?$__list_struct@UfileAttributeAtom@@@@PAI@Z 
01:00055D58 ?checkOnLegal@file_class@@SAXI@Z 
01:00055D94 ?_mixAttributes@file_class@@SAXPAUboolean_struct@_builtIn_class@@IIPAI@Z 
01:00055DE0 ?checkFileHandle@file_class@@SAXPBUfileHandle@@PB_W@Z 
01:00055E14 ?closeFileHandle@file_class@@SAXPBUfileHandle@@@Z 
01:00055E58 ?_getStreamCheckUnicode@file_class@@SAXPB_WPAUboolean_struct@_builtIn_class@@PAPAVoutputStream@@@@Z 
01:00055E80 ?save@file_class@@SAXPB_WPBUfactDB@@@Z 
01:00055EB0 ?save@file_class@@SAXPB_WPBUfactDB@@PAUboolean_struct@_builtIn_class@@@Z 
01:00055F38 ?_checkSignature@file_class@@SAXQAVinputStream@@@PAPAUboolean_struct@_builtIn_class@@@Z 
01:00056004 ?consult@file_class@@SAXPB_WPBUfactDB@@@Z 
01:00056024 ?consult@file_class@@SAXPB_WPBUfactDB@@PAPAUboolean_struct@_builtIn_class@@@Z 
01:000560C4 ?reconsult@file_class@@SAXPB_WPBUfactDB@@@Z  (Idle)
01:000560E4 ?reconsult@file_class@@SAXPB_WPBUfactDB@@PAPAUboolean_struct@_builtIn_class@@@Z 
01:000560F8 ?_trySearchFileInPath@file_class@@SAXPB_WPAPB_W@Z  (Idle)
01:00056140 ?classInfo@directory_class@@SAXPAPB_W0@Z 
01:0005615C ?deleteDirectory@directory_class@@SAXPB_W@Z  (Idle)
01:00056164 ?makeDirectory@directory_class@@SAXPB_W@Z 
01:00056188 ?makeDirectoryPath@directory_class@@SAXPB_W@Z  (Idle)
01:000561D8 ?_checkNetPath@directory_class@@SAXPAU?$__list_struct@Ustring@@@@PAPB_WPAPAU?$__list_struct@U2@@@@Z 
01:000562B4 ?createDirectory_list@directory_class@@SAXPAU?$__list_struct@Ustring@@@@PB_W@Z 
01:000563AC ?setCurrentDirectory@directory_class@@SAXPB_W@Z  (Idle)
01:000563B4 ?_getCurrentDirectory@directory_class@@SAXPAPB_W@Z 
01:000563BC ?moveDirectory@directory_class@@SAXPB_W0@Z  (Idle)
01:000563C4 ?setVolumeLabel@directory_class@@SAXPB_W0@Z  (Idle)
01:000563CC ?existDirectory@directory_class@@SAXPB_W@Z 
01:000564D8 ?_dirWithoutBackslash@directory_class@@SAXPB_WPAPB_W@Z 
01:00056524 ?getDirectoryProperties@directory_class@@SAXPB_WPAPAU?$__list_struct@UfileAttributeAtom@@@@PAAAUgmtTimeValue@@22@Z  (Idle)
01:0005654C ?getVolumeProperties@directory_class@@SAXPB_WPAPAUvolumeType_struct@1@PAAAUfileSize@fileSystem_api@@2PAPB_WPAI@Z  (Idle)
01:000565A4 ?_tryGetLogicalDirectory@directory_class@@SAXPBUdirectoryID@@PAPB_W@Z  (Idle)
01:000565D4 ?_getLogicalDirectory@directory_class@@SAXPBUdirectoryID@@PAPB_W@Z  (Idle)
01:00056604 ?_getTemporaryDirectory@directory_class@@SAXPAPB_W@Z  (Idle)
01:0005660C ?_tryCreateLogicalDirectory@directory_class@@SAXPBUdirectoryID@@PAPB_W@Z  (Idle)
01:0005663C ?_getFilesInDirectory_nd@directory_class@@SAXPB_WPAPB_W@Z  (Idle)
01:0005666C ?_getFilesInDirectory_nd@directory_class@@SAXPB_W0PAPB_W@Z 
01:000566A4 ?_getFilesInDirectory_nd@directory_class@@SAXPB_W0PAUboolean_struct@_builtIn_class@@PAPB_W@Z 
01:000566E4 ?_getSubDirectories_nd@directory_class@@SAXPB_WPAPB_W@Z 
01:00056714 ?_getSubDirectories_nd@directory_class@@SAXPB_W0PAPB_W@Z 
01:00056758 ?_getFilesInDirectoryAndSub_nd@directory_class@@SAXPB_WPAPB_W@Z  (Idle)
01:00056788 ?_getFilesInDirectoryAndSub_nd@directory_class@@SAXPB_W0PAPB_W@Z 
01:00056834 ?_find@directory_class@@SAXPB_W0IPAUboolean_struct@_builtIn_class@@PAPB_W@Z 
01:000569A8 ?_dirWithBackslash@directory_class@@SAXPB_WPAPB_W@Z 
01:00056A38 ?checkHiddenOrSystem@directory_class@@SAXPB_WPAUboolean_struct@_builtIn_class@@@Z 
01:00056A50 ?isNotHiddenOrSystem@directory_class@@SAXPB_W@Z 
01:00056AA0 ?isSlash@directory_class@@SAX_W@Z 
01:00056AC0 ?findNext@directory_class@@SAXPBUsearchHandle@fileSystem_api@@PAXI@Z 
01:00056B58 ?_findNext_nd@directory_class@@SAXPBUsearchHandle@fileSystem_api@@PAXIPAPB_W@Z 
01:00056C5C ?_createFullName@directory_class@@SAXPB_W0PAPB_W@Z 
01:00056D0C ?_tryLogicalDirectoryBuff@directory_class@@SAXPBUdirectoryId@directory@@PAUboolean_struct@_builtIn_class@@PB_WPAPB_W@Z 
01:00056F1C ?_logicalDirectoryBuff@directory_class@@SAXPBUdirectoryId@directory@@PAUboolean_struct@_builtIn_class@@PB_WPAPB_W@Z 
01:00057148 ?_tryLogicalDirectory@directory_class@@SAXPBUdirectoryId@directory@@PAUboolean_struct@_builtIn_class@@PAPB_W@Z 
01:00057194 ?_logicalDirectory@directory_class@@SAXPBUdirectoryId@directory@@PAUboolean_struct@_builtIn_class@@PAPB_W@Z 
01:000571E0 ?_addNeedCreateIfNecessary@directory_class@@SAXPBUdirectoryId@directory@@PAUboolean_struct@_builtIn_class@@AAU23@@Z 
01:0005721C ?_convertToVolumeType@directory_class@@SAXHPAPAUvolumeType_struct@1@@Z 
01:0005729C ?closeSearchHandle@directory_class@@SAXPBUsearchHandle@fileSystem_api@@@Z 
01:000572A4 ?_browseForFolder@directory_class@@SAXPBUhwnd@@PB_W1PAUboolean_struct@_builtIn_class@@PAPB_W@Z  (Idle)
01:00057350 ?_getBrowseForFolderFlags@directory_class@@SAXPAUboolean_struct@_builtIn_class@@PAI@Z 
01:00057374 ?browseForFolderCallback@directory_class@@SGHPBUhandle@@III@Z 
01:00057558 outputStream_file?_initObject@@@QAGXQAV1@H@Z 
01:00057590 ?@create_object@outputStream_file_class@@SGQAVoutputStream_file@@@XZ 
01:000575AC outputStream_file?_InternalFinalizer@@@QAGXQAV1@@Z 
01:000575C4 messageFile?_initObject@@@QAGXQAV1@H@Z 
01:000575D8 ?@create_object@messageFile_class@@SGQAVmessageFile@@@XZ 
01:000575F4 messageFile?_InternalFinalizer@@@QAGXQAV1@@Z 
01:00057860 inputStream_file?_initObject@@@QAGXQAV1@H@Z 
01:00057898 ?@create_object@inputStream_file_class@@SGQAVinputStream_file@@@XZ 
01:000578B4 inputStream_file?_InternalFinalizer@@@QAGXQAV1@@Z 
--- From 'Obj\systeminformation_api.obj'
01:000578D0 ?classInfo@systemInformation_api_class@@SAXPAPB_W0@Z 
01:000578EC ?isVersionWindows98@systemInformation_api_class@@SAXXZ  (Idle)
01:00057934 ?getVersionEx@systemInformation_api_class@@SAXPAIPAIPAIPAIPAPB_WAAUunsigned16@@55AAUunsigned8@@@Z 
01:0005A778 ?_systemInfo@systemInformation_api_class@@SAXPAPAUsystem_Info_struct@systemInformation_native_class@@@Z 
01:0005A7A8 ?_getUserName@systemInformation_api_class@@SAXPAPB_W@Z  (Idle)
01:0005A838 ?_getUserNameEx@systemInformation_api_class@@SAXIPAPB_W@Z  (Idle)
--- From 'Obj\boolean.obj'
01:0005A8C0 ?classInfo@boolean_class@@SAXPAPB_W0@Z  (Idle)
--- From 'Obj\messagecontrol.obj'
01:0005A8DC ?_toBooleanInt@boolean_class@@SAXPAUboolean_struct@_builtIn_class@@AAUbooleanInt@@@Z 
--- From 'Obj\gui.obj'
01:0005A900 ?_fromBooleanInt@boolean_class@@SAXPBUbooleanInt@@PAPAUboolean_struct@_builtIn_class@@@Z 
--- From 'Obj\controls.obj'
01:0005A924 ?_logicalNot@boolean_class@@SAXPAUboolean_struct@_builtIn_class@@PAPAU23@@Z 
01:0005A948 ?_logicalAnd@boolean_class@@SAXPAUboolean_struct@_builtIn_class@@0PAPAU23@@Z 
--- From 'Obj\boolean.obj'
01:0005A984 ?_logicalOr@boolean_class@@SAXPAUboolean_struct@_builtIn_class@@0PAPAU23@@Z  (Idle)
01:0005A9C0 ?_logicalXor@boolean_class@@SAXPAUboolean_struct@_builtIn_class@@0PAPAU23@@Z  (Idle)
--- From 'Obj\vpitoolbar.obj'
01:0005AA00 ?pictureGetSize@vpiToolbar_class@@SAXPAUbitmapId_struct@vpiDomains_class@@AAUpositive@@1@Z 
01:0005AA38 ?toolbar_set_flagMouseDown@vpiToolbar_class@@SAXPBUwindowHandle@@@Z 
01:0005AA80 ?toolbar_release_flagMouseDown@vpiToolbar_class@@SAXXZ 
01:0005AAB4 ?tooltip_firstTimeTimerHandler@vpiToolbar_class@@SAXPBUwindowHandle@@@Z 
01:0005AAE0 ?tooltip_ShowTimerHandler@vpiToolbar_class@@SAXPBUwindowHandle@@@Z 
01:0005AE78 ?tooltip_HideTimerHandler@vpiToolbar_class@@SAXPBUwindowHandle@@H@Z 
01:0005AF78 ?_tooltip_handler@vpiToolbar_class@@SAXPBUwindowHandle@@PAUevent_struct@vpiDomains_class@@PAH@Z 
01:0005B0D4 ?tooltip_create@vpiToolbar_class@@SAXPBUwindowHandle@@@Z 
01:0005B1B8 ?tooltip_register@vpiToolbar_class@@SAXPBUwindowHandle@@PAUrct_struct@vpiDomains_class@@PB_W@Z 
01:0005B2E4 ?tooltip_clean_up@vpiToolbar_class@@SAXPBUwindowHandle@@@Z 
01:0005B40C ?tooltip_validate_rect@vpiToolbar_class@@SAXPAUrct_struct@vpiDomains_class@@0PAPAU23@@Z 
01:0005B4C8 ?tooltip_validate@vpiToolbar_class@@SAXHHPAH@Z 
01:0005B4F4 ?tooltip_set_usage@vpiToolbar_class@@SAXXZ 
01:0005B550 ?tooltip_stop_usage@vpiToolbar_class@@SAXXZ 
01:0005B5E4 ?tooltip_check_first_time@vpiToolbar_class@@SAXXZ 
01:0005B634 ?tooltip_check_first_time@vpiToolbar_class@@SAXPBUwindowHandle@@@Z 
01:0005B6BC ?tooltip_check_mousemove@vpiToolbar_class@@SAXPBUwindowHandle@@PAUpnt_struct@vpiDomains_class@@@Z 
01:0005B7E4 ?tooltip_check_mousetimer@vpiToolbar_class@@SAXPBUwindowHandle@@@Z 
01:0005BA54 ?tooltip_mouse_in_TB@vpiToolbar_class@@SAXPBUwindowHandle@@PAPAUpnt_struct@vpiDomains_class@@@Z 
01:0005BB2C ?hide_tooltip@vpiToolbar_class@@SAXPBUwindowHandle@@@Z 
01:0005BC78 ?tooltip_hide@vpiToolbar_class@@SAXXZ  (Idle)
01:0005BDAC ?tooltip_change_if_not_current@vpiToolbar_class@@SAXPBUwindowHandle@@@Z 
01:0005BE64 ?tooltip_change_if_not_current@vpiToolbar_class@@SAXPBUwindowHandle@@PAUrct_struct@vpiDomains_class@@PB_WPAUpnt_struct@4@@Z 
01:0005BF74 ?tooltip_set_first_time_timer@vpiToolbar_class@@SAXPBUwindowHandle@@@Z 
01:0005BFCC ?tooltip_kill_first_time_timer@vpiToolbar_class@@SAXXZ 
01:0005C034 ?tooltip_set_show@vpiToolbar_class@@SAXPBUwindowHandle@@@Z 
01:0005C090 ?tooltip_try_show@vpiToolbar_class@@SAXPBUwindowHandle@@PBUbooleanInt@@@Z 
01:0005C1CC ?safeTimerKill@vpiToolbar_class@@SAXPBUtimerId@@@Z 
01:0005C21C ?tooltip_kill_show_timer@vpiToolbar_class@@SAXXZ 
01:0005C284 ?tooltip_set_hide_timer@vpiToolbar_class@@SAXPBUwindowHandle@@@Z 
01:0005C2E4 ?tooltip_kill_hide_timer@vpiToolbar_class@@SAXXZ 
01:0005C34C ?tooltip_get_color@vpiToolbar_class@@SAXAAU2@0@Z 
01:0005C38C ?_tooltip_child_handler@vpiToolbar_class@@SAXPBUwindowHandle@@PAUevent_struct@vpiDomains_class@@PAH@Z 
01:0005C518 ?get_flag@vpiToolbar_class@@SAXPBUbooleanInt@@AAUwsflag@@@Z 
01:0005C548 ?buttonColors@vpiToolbar_class@@SAXAAUcolor@@00@Z 
01:0005C580 ?getAddOrnamentationByStyle@vpiToolbar_class@@SAXPAUstyle_struct@1@AAUbooleanInt@@@Z 
01:0005C5C8 ?split_control_text@vpiToolbar_class@@SAXPB_WPAPB_W1@Z 
01:0005C640 ?set_ctrl_to_tb_win1@vpiToolbar_class@@SAXPBUwindowHandle@@@Z 
01:0005C6CC ?multiple_rows@vpiToolbar_class@@SAXPAUstyle_struct@1@@Z 
01:0005C6F8 ?horizontal@vpiToolbar_class@@SAXPAUstyle_struct@1@@Z 
01:0005C784 ?toolbar_retract_controls@vpiToolbar_class@@SAXPBUwindowHandle@@@Z 
01:0005C868 ?set_new_VPITBarAttr@vpiToolbar_class@@SAXPAUstyle_struct@1@HPBUwindowHandle@@@Z 
01:0005C990 ?remove_VPITBarAttr@vpiToolbar_class@@SAXPAUstyle_struct@1@PBUwindowHandle@@@Z 
01:0005CB38 ?give_flags_and_title@vpiToolbar_class@@SAXPAUstyle_struct@1@PAPAU?$__list_struct@Uwsflag@@@@PAPB_W@Z 
01:0005CB7C ?resendToParentWindow@vpiToolbar_class@@SAXPBUwindowHandle@vpiDomains@@PBUmenuTag@3@PAUvalue_struct@1@@Z 
01:0005CF7C ?set_ctrl_to_tb_win@vpiToolbar_class@@SAXPBUwindowHandle@@0@Z 
01:0005D6E0 ?create_listcontrols@vpiToolbar_class@@SAXPBUwindowHandle@@@Z 
01:0005D840 ?get_inits_for_twin@vpiToolbar_class@@SAXPBUwindowHandle@@PAHPAHPAHPAH@Z 
01:0005D8C4 ?get_inits@vpiToolbar_class@@SAXPBUwindowHandle@@PAUstyle_struct@1@HHPAHPAH@Z 
01:0005DADC ?tbar_Invalidate@vpiToolbar_class@@SAXPBUwindowHandle@@PAUstyle_struct@1@HHPAUrct_struct@vpiDomains_class@@@Z 
01:0005DBA4 ?_createToolbarFont@vpiToolbar_class@@SAXPBUfontFamily@@PAU?$__list_struct@Ufs@@@@PBUpositive@@AAUfont@@@Z 
01:0005DC28 ?getLeftOffset@vpiToolbar_class@@SAXPAUstyle_struct@1@PAH@Z 
01:0005DC50 ?getTopOffset@vpiToolbar_class@@SAXPAUstyle_struct@1@PAH@Z 
01:0005DCA4 ?getBottomOffset@vpiToolbar_class@@SAXPAUstyle_struct@1@PAH@Z 
01:0005DCF8 ?rightBottom@vpiToolbar_class@@SAXPBUwindowHandle@@PAUstyle_struct@1@HHHPAHPAH@Z 
01:0005E114 ?build_control_database8@vpiToolbar_class@@SAXPBUwindowHandle@@PAUstyle_struct@1@PAU?$__list_struct@Ucontrol@@@@HHHPAHPAH@Z 
01:0005F194 ?build_control_database@vpiToolbar_class@@SAXPBUwindowHandle@@PAUstyle_struct@1@PAU?$__list_struct@Ucontrol@@@@PAHPAH@Z 
01:0005F218 ?getControlSize@vpiToolbar_class@@SAXPBUwindowHandle@@PAUcontrol_struct@1@PAHPAH@Z 
01:0005F358 ?getMaxControlSize6@vpiToolbar_class@@SAXPBUwindowHandle@@PAU?$__list_struct@Ucontrol@@@@HHPAHPAH@Z 
01:0005F3EC ?getMaxControlSize@vpiToolbar_class@@SAXPBUwindowHandle@@PAU?$__list_struct@Ucontrol@@@@PAHPAH@Z 
01:0005F444 ?drawButtonFrame@vpiToolbar_class@@SAXPBUwindowHandle@@PAUrct_struct@vpiDomains_class@@PBUcolor@@2@Z 
01:0005F620 ?drawButtonFrame_raised@vpiToolbar_class@@SAXPBUwindowHandle@@PAUrct_struct@vpiDomains_class@@@Z 
01:0005F66C ?drawButtonFrame_sunken@vpiToolbar_class@@SAXPBUwindowHandle@@PAUrct_struct@vpiDomains_class@@@Z 
01:0005F6B8 ?drawButtonFrame_none@vpiToolbar_class@@SAXPBUwindowHandle@@PAUrct_struct@vpiDomains_class@@@Z 
01:0005F704 ?toolbar_if_draw_frame@vpiToolbar_class@@SAXPBUwindowHandle@@PAUrct_struct@vpiDomains_class@@PBUbooleanInt@@2@Z 
01:0005F77C ?imagePosition@vpiToolbar_class@@SAXPAUrct_struct@vpiDomains_class@@PBUpicture@@HPAPAUpnt_struct@3@@Z 
01:0005F868 ?drawImage_released@vpiToolbar_class@@SAXPBUwindowHandle@@PAUbitmapId_struct@vpiDomains_class@@PAUrct_struct@4@@Z 
01:0005F8B8 ?drawImage_pressed@vpiToolbar_class@@SAXPBUwindowHandle@@PAUbitmapId_struct@vpiDomains_class@@PAUrct_struct@4@@Z 
01:0005FA04 ?drawImage_monocolor@vpiToolbar_class@@SAXPBUwindowHandle@@PBUpicture@@PAUrct_struct@vpiDomains_class@@HPBU6@@Z 
01:0005FAF0 ?drawImage_gray@vpiToolbar_class@@SAXPBUwindowHandle@@PAUbitmapId_struct@vpiDomains_class@@PAUrct_struct@4@@Z 
01:0005FB78 ?drawButton@vpiToolbar_class@@SAXPBUwindowHandle@@PAUrct_struct@vpiDomains_class@@PAUbitmapId_struct@4@PBUbooleanInt@@3@Z 
01:0005FC18 ?drawTextControl@vpiToolbar_class@@SAXPBUwindowHandle@@HHHH@Z 
01:0005FE48 ?show_text@vpiToolbar_class@@SAXPBUwindowHandle@@PAUrct_struct@vpiDomains_class@@PBUfs@@PBUfontFamily@@PBUpositive@@PBUcolor@@PB_W@Z 
01:0005FF70 ?show_toolbar_controls@vpiToolbar_class@@SAXPBUwindowHandle@@@Z 
01:000601C4 ?set_button_released@vpiToolbar_class@@SAXPBUwindowHandle@@@Z 
01:00060268 ?eraseFrame@vpiToolbar_class@@SAXPBUwindowHandle@@PAUrct_struct@vpiDomains_class@@PBUbooleanInt@@@Z 
01:00060280 ?test_not_leave_ctrl@vpiToolbar_class@@SAXPBUwindowHandle@@PBUmenuTag@@PAUpnt_struct@vpiDomains_class@@@Z 
01:000604A4 ?test_enter_ctrl@vpiToolbar_class@@SAXPBUwindowHandle@@PAUpnt_struct@vpiDomains_class@@PBUbooleanInt@@@Z 
01:000605DC ?restore_pressed_button@vpiToolbar_class@@SAXPBUwindowHandle@@PBUmenuTag@@PBUbooleanInt@@2@Z 
01:000607B0 ?show_status_text@vpiToolbar_class@@SAXPBUwindowHandle@@PB_W@Z 
01:00060924 ?restore_initial_status_text@vpiToolbar_class@@SAXPBUwindowHandle@@@Z 
01:00060A04 ?_get_win_with_context@vpiToolbar_class@@SAXPBUwindowHandle@@AAU2@@Z 
01:00060B6C ?set_flagMouseDown@vpiToolbar_class@@SAXPBUwindowHandle@@PAUcontrol_style_struct@1@H@Z 
01:00060B8C ?isTopToolbarExists@vpiToolbar_class@@SAXPBUwindowHandle@@@Z 
01:00060C34 ?drawOrnamentation@vpiToolbar_class@@SAXPBUwindowHandle@@PAUstyle_struct@1@HH@Z 
01:00061010 ?tb_rect@vpiToolbar_class@@SAXPBUwindowHandle@@PAUstyle_struct@1@HHPAPAUrct_struct@vpiDomains_class@@@Z 
01:00061370 ?_tb_handler@vpiToolbar_class@@SAXPBUwindowHandle@@PAUevent_struct@vpiDomains_class@@PAH@Z 
01:000629D8 ?_is_call_user_func@vpiToolbar_class@@SAXHPAUcontrol_style_struct@1@AAUbooleanInt@@@Z 
01:00062A0C ?call_user_func@vpiToolbar_class@@SAXPBUwindowHandle@@PBUmenuTag@@PBUbooleanInt@@@Z 
01:00062CC8 ?_no_handler@vpiToolbar_class@@SAXPBUwindowHandle@@PAUevent_struct@vpiDomains_class@@PAH@Z 
--- From 'Obj\toolbars.obj'
01:00062CD4 ?_create@vpiToolbar_class@@SAXPAUstyle_struct@1@PBUwindowHandle@vpiDomains@@PAU?$__list_struct@Ucontrol@@@@AAU45@@Z 
--- From 'Obj\vpitoolbar.obj'
01:00062D14 ?_create@vpiToolbar_class@@SAXPAUstyle_struct@1@PBUwindowHandle@vpiDomains@@PAU?$__list_struct@Ucontrol@@@@XAAU45@@Z 
01:00062D6C ?_create@vpiToolbar_class@@SAXPAUstyle_struct@1@PBUwindowHandle@vpiDomains@@PAU?$__list_struct@Ucontrol@@@@XPBUbooleanInt@@AAU45@@Z 
01:00062F48 ?getPressedButton@vpiToolbar_class@@SAXPBUwindowHandle@vpiDomains@@HAAUmenuTag@3@@Z  (Idle)
01:00062FFC ?setPressedButton@vpiToolbar_class@@SAXPBUwindowHandle@vpiDomains@@HPBUmenuTag@3@@Z 
01:000630FC ?mesRedirect@vpiToolbar_class@@SAXPBUwindowHandle@vpiDomains@@0@Z  (Idle)
01:000632A0 ?noAction@vpiToolbar_class@@SAXPBUwindowHandle@vpiDomains@@PBUmenuTag@3@PAUvalue_struct@1@@Z  (Idle)
01:000632A8 ?reload@vpiToolbar_class@@SAXPBUwindowHandle@vpiDomains@@PAU?$__list_struct@Ucontrol@@@@@Z  (Idle)
--- From 'Obj\taskwindow.obj'
01:0006352C ?resize@vpiToolbar_class@@SAXPBUwindowHandle@vpiDomains@@@Z 
--- From 'Obj\vpitoolbar.obj'
01:000635C0 ?remove@vpiToolbar_class@@SAXPBUwindowHandle@vpiDomains@@@Z  (Idle)
01:000636D4 ?setValue@vpiToolbar_class@@SAXPBUwindowHandle@vpiDomains@@PBUmenuTag@3@PAUvalue_struct@1@@Z 
01:00063C8C ?getValue@vpiToolbar_class@@SAXPBUwindowHandle@vpiDomains@@PBUmenuTag@3@PAPAUvalue_struct@1@@Z  (Idle)
01:00063F14 ?getRect@vpiToolbar_class@@SAXPBUwindowHandle@vpiDomains@@PAUstyle_struct@1@PAPAUrct_struct@vpiDomains_class@@@Z  (Idle)
01:00063FAC ?groupControls@vpiToolbar_class@@SAXPBUwindowHandle@vpiDomains@@HPAU?$__list_struct@UmenuTag@@@@@Z 
01:000641D0 ?getToolbar_nd@vpiToolbar_class@@SAXPBUwindowHandle@vpiDomains@@AAU23@@Z  (Idle)
01:00064224 ?getToolbar_nd@vpiToolbar_class@@SAXPBUwindowHandle@vpiDomains@@AAU23@PAPAUstyle_struct@1@PAPAU?$__list_struct@Ucontrol@@@@@Z  (Idle)
--- From 'Obj\vpidomains.obj'
01:00064290 ?classInfo@vpiOwnerDraw_class@@SAXPAPB_W0@Z  (Idle)
--- From 'Obj\controls.obj'
01:000642B0 ?classInfo@timerControl_class@@SAXPAPB_W0@Z 
01:000642CC ?new@timerControl_class@@SAXQAVtimerControl@@@@Z 
01:00064310 ?new@timerControl_class@@SAXQAVtimerControl@@@QAVcontainerWindow@@@@Z 
01:0006432C ?show@timerControl_class@@SAXQAVwindow@@@@Z 
01:00064384 ?initialize@timerControl_class@@SAXQAVwindow@@@@Z 
01:000643A4 ?_getVpiWindow@timerControl_class@@SAXQAVwindow@@@AAUwindowHandle@vpiDomains@@@Z 
01:000643C0 ?start@timerControl_class@@SAXQAVtimerControl@@@@Z 
01:0006449C ?stop@timerControl_class@@SAXQAVtimerControl@@@@Z 
01:0006451C ?isRunning@timerControl_class@@SAXQAVtimerControl@@@@Z 
01:00064534 ?setTickDuration@timerControl_class@@SAXQAVtimerControl@@@PBUpositive@@@Z 
01:00064580 ?_getTickDuration@timerControl_class@@SAXQAVtimerControl@@@AAUpositive@@@Z 
01:00064594 ?onTickTimer@timerControl_class@@SAXQAVtimerControl@@@QAVwindow@@@PBUtimerId@vpiDomains@@@Z 
01:00064638 ?addTickListener@timerControl_class@@SAXQAVtimerControl@@@X@Z 
01:00064658 ?removeTickListener@timerControl_class@@SAXQAVtimerControl@@@X@Z 
01:00064724 ?_new@timerControl_class@@SAXPAPAVtimerControl@@@@Z  (Idle)
01:0006474C ?_new@timerControl_class@@SAXQAVcontainerWindow@@@PAPAVtimerControl@@@@Z  (Idle)
01:00064774 ?_object_facts_initializer@timerControl_class@@SGXQAVtimerControl@@@@Z 
01:0006479C ?classInfo@versionControl_class@@SAXPAPB_W0@Z  (Idle)
01:000647B8 ?parameterTemplate@versionControl_class@@SAXQAVoutputStream@@@PB_W@Z 
01:00064D6C ?setText@versionControl_class@@SAXQAVwindow@@@PB_W@Z 
01:00064DD0 ?new@versionControl_class@@SAXQAVversionControl@@@QAVcontainerWindow@@@@Z 
01:00064DF0 ?new@versionControl_class@@SAXQAVversionControl@@@@Z 
01:00064DF8 ?_getFileVersionInformation@versionControl_class@@SAXQAEPB_W1PAPB_W@Z 
01:00064E7C ?_getLanguageAndCodePageKey@versionControl_class@@SAXQAEPAPB_W@Z 
01:00064F10 ?_tryVerQueryValue@versionControl_class@@SAXQAEPB_WPAPAX@Z 
01:00064F60 ?_tryGetParameterName@versionControl_class@@SAXPB_WPAPB_W@Z 
01:00065010 ?_new@versionControl_class@@SAXPAPAVversionControl@@@@Z  (Idle)
--- From 'Obj\taskwindow.obj'
01:00065038 ?_new@versionControl_class@@SAXQAVcontainerWindow@@@PAPAVversionControl@@@@Z 
--- From 'Obj\controls.obj'
01:00065060 ?classInfo@scrollControl_class@@SAXPAPB_W0@Z 
01:0006507C ?newHorizontal@scrollControl_class@@SAXQAVscrollControl@@@QAVcontainerWindow@@@@Z 
01:0006509C ?newHorizontal@scrollControl_class@@SAXQAVscrollControl@@@@Z 
01:000650F0 ?newVertical@scrollControl_class@@SAXQAVscrollControl@@@QAVcontainerWindow@@@@Z 
01:00065110 ?newVertical@scrollControl_class@@SAXQAVscrollControl@@@@Z 
01:00065164 ?dispatchEvent@scrollControl_class@@SAXQAVcontrol@@@PAUcontrolInfo_struct@vpiDomains_class@@@Z 
01:00065220 ?setThumbIfThumbTrack@scrollControl_class@@SAXQAVscrollControl@@@PBUscrollCode@@H@Z 
01:00065254 ?isPosInvalidForCode@scrollControl_class@@SAXH@Z 
01:0006527C ?dispatchScroll@scrollControl_class@@SAXQAVscrollControl@@@PBUscrollCode@@H@Z 
01:00065308 ?addScrollListener@scrollControl_class@@SAXQAVscrollControl@@@X@Z 
01:00065328 ?removeScrollListener@scrollControl_class@@SAXQAVscrollControl@@@X@Z 
01:000653F4 ?initialize@scrollControl_class@@SAXQAVwindow@@@@Z 
01:00065460 ?initRange@scrollControl_class@@SAXQAVscrollControl@@@PBUwindowHandle@vpiDomains@@@Z 
01:000654B4 ?initPos@scrollControl_class@@SAXQAVscrollControl@@@PBUwindowHandle@vpiDomains@@@Z 
01:00065500 ?initProportion@scrollControl_class@@SAXQAVscrollControl@@@PBUwindowHandle@vpiDomains@@@Z 
01:0006554C ?getRange@scrollControl_class@@SAXQAVscrollControl@@@PAHPAH@Z 
01:000655F8 ?setRange@scrollControl_class@@SAXQAVscrollControl@@@HH@Z 
01:0006568C ?getThumbPosition@scrollControl_class@@SAXQAVscrollControl@@@PAH@Z 
01:00065730 ?setThumbPosition@scrollControl_class@@SAXQAVscrollControl@@@H@Z 
01:000657DC ?_getProportion@scrollControl_class@@SAXQAVscrollControl@@@AAUpositive@@@Z 
01:00065890 ?setProportion@scrollControl_class@@SAXQAVscrollControl@@@PBUpositive@@@Z 
01:0006592C ?_newHorizontal@scrollControl_class@@SAXQAVcontainerWindow@@@PAPAVscrollControl@@@@Z  (Idle)
01:00065954 ?_newHorizontal@scrollControl_class@@SAXPAPAVscrollControl@@@@Z  (Idle)
01:0006597C ?_newVertical@scrollControl_class@@SAXQAVcontainerWindow@@@PAPAVscrollControl@@@@Z  (Idle)
01:000659A4 ?_newVertical@scrollControl_class@@SAXPAPAVscrollControl@@@@Z  (Idle)
01:000659CC ?classInfo@realControl_class@@SAXPAPB_W0@Z 
01:000659E8 ?new@realControl_class@@SAXQAVrealControl@@@@Z 
01:00065A50 ?new@realControl_class@@SAXQAVrealControl@@@QAVcontainerWindow@@@@Z 
01:00065A70 ?_onRealValidate@realControl_class@@SAXQAVrealControl@@@QAVcontrol@@@PAPAUvalidateResult_struct@control_class@@@Z 
01:00065B1C ?setReal@realControl_class@@SAXQAVrealControl@@@PAN@Z 
01:00065B40 ?_getReal@realControl_class@@SAXQAVrealControl@@@PAPAN@Z 
01:00065B80 ?tryGetReal@realControl_class@@SAXQAVrealControl@@@PAPAN@Z 
01:00065BCC ?setMaximum@realControl_class@@SAXQAVrealControl@@@PAN@Z 
01:00065C14 ?_getMaximum@realControl_class@@SAXQAVrealControl@@@PAPAN@Z 
01:00065C28 ?setMinimum@realControl_class@@SAXQAVrealControl@@@PAN@Z 
01:00065C70 ?_getMinimum@realControl_class@@SAXQAVrealControl@@@PAPAN@Z 
01:00065C84 ?setMandatory@realControl_class@@SAXQAVrealControl@@@@Z 
01:00065CAC ?setMandatory@realControl_class@@SAXQAVrealControl@@@PAUboolean_struct@_builtIn_class@@@Z 
01:00065CC0 ?_getMandatory@realControl_class@@SAXQAVrealControl@@@PAPAUboolean_struct@_builtIn_class@@@Z 
01:00065CD4 ?_checkContent@realControl_class@@SAXQAVrealControl@@@PB_WPAPAUvalue_struct@core_class@@@Z 
01:00065DB0 ?_whetherEmptyStringAvailable@realControl_class@@SAXQAVrealControl@@@PAUboolean_struct@_builtIn_class@@PAPAUvalue_struct@core_class@@@Z 
01:00065E64 ?_checkMinMax@realControl_class@@SAXQAVrealControl@@@PANPAPAUvalue_struct@core_class@@@Z 
01:000660C8 ?setIllegalValueMessage@realControl_class@@SAXPB_W@Z  (Idle)
01:000660D8 ?setIllegalValueMandatoryMessage@realControl_class@@SAXPB_W@Z  (Idle)
01:000660E8 ?setIllegalValueMinimumMaximumMessage@realControl_class@@SAXPB_W@Z  (Idle)
01:000660F8 ?setIllegalValueMinimumMessage@realControl_class@@SAXPB_W@Z  (Idle)
01:00066108 ?setIllegalValueMaximumMessage@realControl_class@@SAXPB_W@Z  (Idle)
01:00066118 ?_new@realControl_class@@SAXQAVcontainerWindow@@@PAPAVrealControl@@@@Z  (Idle)
01:00066140 ?_new@realControl_class@@SAXPAPAVrealControl@@@@Z  (Idle)
01:00066168 ?_class_facts_initializer@realControl_class@@SGXXZ 
01:000661A8 ?_object_facts_initializer@realControl_class@@SGXQAVrealControl@@@@Z 
01:000661EC ?classInfo@radioButtonGroup_class@@SAXPAPB_W0@Z 
01:00066208 ?friendAddButton@radioButtonGroup_class@@SAXQAVradioButtonGroup@@@QAVradioButton@@@@Z 
01:0006625C ?friendDelButton@radioButtonGroup_class@@SAXQAVradioButtonGroup@@@QAVradioButton@@@@Z 
01:00066344 ?_getSelectedButton@radioButtonGroup_class@@SAXQAVradioButtonGroup@@@PAPAVradioButton@@@@Z 
01:000663D8 ?setSelectedButton@radioButtonGroup_class@@SAXQAVradioButtonGroup@@@QAVradioButton@@@@Z 
01:00066480 ?getButton_nd@radioButtonGroup_class@@SAXQAVradioButtonGroup@@@PAPAVradioButton@@@@Z 
01:000664CC ?addSelectionChangedListener@radioButtonGroup_class@@SAXQAVradioButtonGroup@@@X@Z 
01:000664EC ?removeSelectionChangedListener@radioButtonGroup_class@@SAXQAVradioButtonGroup@@@X@Z 
01:000665B8 ?addDelayedSelectionChangedListener@radioButtonGroup_class@@SAXQAVradioButtonGroup@@@PBUpositive@@X@Z 
01:00066664 ?removeDelayedSelectionChangedListener@radioButtonGroup_class@@SAXQAVradioButtonGroup@@@X@Z 
01:00066730 ?supportDelayedSelectionChangedListener@radioButtonGroup_class@@SAXQAVradioButtonGroup@@@0QAVradioButton@@@@Z 
01:000667D8 ?_firstShownRadioButton@radioButtonGroup_class@@SAXQAVradioButtonGroup@@@PAPAVwindow@@@@Z 
01:00066820 ?delayedSelectionChanged@radioButtonGroup_class@@SAXQAVradioButtonGroup@@@@Z 
01:000668A4 ?buttonStateChanged@radioButtonGroup_class@@SAXQAVradioButtonGroup@@@QAVradioButton@@@PAUstate_struct@radioButton_class@@2@Z 
01:00066944 ?new@radioButtonGroup_class@@SAXQAVradioButtonGroup@@@@Z 
--- From 'Obj\guisupport.obj'
01:0006694C ?_new@radioButtonGroup_class@@SAXPAPAVradioButtonGroup@@@@Z 
--- From 'Obj\controls.obj'
01:00066974 ?classInfo@listEdit_class@@SAXPAPB_W0@Z 
01:00066990 ?new@listEdit_class@@SAXQAVlistEdit@@@QAVcontainerWindow@@@@Z 
01:000669B0 ?new@listEdit_class@@SAXQAVlistEdit@@@@Z 
01:000669E4 ?addModifiedListener@listEdit_class@@SAXQAVeditControl@@@X@Z 
01:00066A04 ?removeModifiedListener@listEdit_class@@SAXQAVeditControl@@@X@Z 
01:00066AD0 ?dispatchModified@listEdit_class@@SAXQAVlistEdit@@@@Z 
01:00066B4C ?dispatchEvent@listEdit_class@@SAXQAVcontrol@@@PAUcontrolInfo_struct@vpiDomains_class@@@Z 
01:00066B8C ?selectText@listEdit_class@@SAXQAVeditControl@@@PBUcharCount@@1@Z 
01:00066BBC ?selectAll@listEdit_class@@SAXQAVeditControl@@@@Z 
01:00066C04 ?getTextSelection@listEdit_class@@SAXQAVeditControl@@@AAUcharCount@@1@Z 
01:00066C34 ?setAlignBaseline@listEdit_class@@SAXQAVeditControl@@@PAUboolean_struct@_builtIn_class@@@Z 
01:00066C78 ?_getAlignBaseline@listEdit_class@@SAXQAVeditControl@@@PAPAUboolean_struct@_builtIn_class@@@Z 
01:00066C8C ?setAutoHScroll@listEdit_class@@SAXQAVeditControl@@@@Z 
01:00066CB4 ?setAutoHScroll@listEdit_class@@SAXQAVeditControl@@@PAUboolean_struct@_builtIn_class@@@Z 
01:00066D54 ?_getAutoHScroll@listEdit_class@@SAXQAVeditControl@@@PAPAUboolean_struct@_builtIn_class@@@Z 
01:00066DB8 ?setBorder@listEdit_class@@SAXQAVeditControl@@@@Z 
01:00066DE0 ?setBorder@listEdit_class@@SAXQAVeditControl@@@PAUboolean_struct@_builtIn_class@@@Z 
01:00066DFC ?_getBorder@listEdit_class@@SAXQAVeditControl@@@PAPAUboolean_struct@_builtIn_class@@@Z 
01:00066E18 ?setMultiLine@listEdit_class@@SAXQAVeditControl@@@@Z 
01:00066E40 ?setMultiLine@listEdit_class@@SAXQAVeditControl@@@PAUboolean_struct@_builtIn_class@@@Z 
01:00066E5C ?_getMultiLine@listEdit_class@@SAXQAVeditControl@@@PAPAUboolean_struct@_builtIn_class@@@Z 
01:00066E78 ?setPassword@listEdit_class@@SAXQAVeditControl@@@@Z 
01:00066EA0 ?setPassword@listEdit_class@@SAXQAVeditControl@@@PAUboolean_struct@_builtIn_class@@@Z 
01:00066EBC ?_getPassword@listEdit_class@@SAXQAVeditControl@@@PAPAUboolean_struct@_builtIn_class@@@Z 
01:00066ED8 ?setHideSel@listEdit_class@@SAXQAVeditControl@@@@Z 
01:00066F00 ?setHideSel@listEdit_class@@SAXQAVeditControl@@@PAUboolean_struct@_builtIn_class@@@Z 
01:00066F1C ?_getHideSel@listEdit_class@@SAXQAVeditControl@@@PAPAUboolean_struct@_builtIn_class@@@Z 
01:00066F38 ?setReadOnly@listEdit_class@@SAXQAVeditControl@@@@Z 
01:00066F60 ?setReadOnly@listEdit_class@@SAXQAVeditControl@@@PAUboolean_struct@_builtIn_class@@@Z 
01:00066F7C ?_getReadOnly@listEdit_class@@SAXQAVeditControl@@@PAPAUboolean_struct@_builtIn_class@@@Z 
01:00066F98 ?setAlignment@listEdit_class@@SAXQAVeditControl@@@PAUalignment_struct@vpiDomains_class@@@Z 
01:00066FB4 ?_getAlignment@listEdit_class@@SAXQAVeditControl@@@PAPAUalignment_struct@vpiDomains_class@@@Z 
01:00066FD0 ?setUpperCase@listEdit_class@@SAXQAVeditControl@@@@Z 
01:00066FF8 ?setUpperCase@listEdit_class@@SAXQAVeditControl@@@PAUboolean_struct@_builtIn_class@@@Z 
01:00067014 ?_getUpperCase@listEdit_class@@SAXQAVeditControl@@@PAPAUboolean_struct@_builtIn_class@@@Z 
01:00067030 ?setLowerCase@listEdit_class@@SAXQAVeditControl@@@@Z 
01:00067058 ?setLowerCase@listEdit_class@@SAXQAVeditControl@@@PAUboolean_struct@_builtIn_class@@@Z 
01:00067074 ?_getLowerCase@listEdit_class@@SAXQAVeditControl@@@PAPAUboolean_struct@_builtIn_class@@@Z 
01:00067090 ?setAutoVScroll@listEdit_class@@SAXQAVeditControl@@@@Z 
01:000670B8 ?setAutoVScroll@listEdit_class@@SAXQAVeditControl@@@PAUboolean_struct@_builtIn_class@@@Z 
01:000670D4 ?_getAutoVScroll@listEdit_class@@SAXQAVeditControl@@@PAPAUboolean_struct@_builtIn_class@@@Z 
01:000670F0 ?setHScroll@listEdit_class@@SAXQAVeditControl@@@@Z 
01:00067118 ?setHScroll@listEdit_class@@SAXQAVeditControl@@@PAUboolean_struct@_builtIn_class@@@Z 
01:00067134 ?_getHScroll@listEdit_class@@SAXQAVeditControl@@@PAPAUboolean_struct@_builtIn_class@@@Z 
01:00067150 ?setWantReturn@listEdit_class@@SAXQAVeditControl@@@@Z 
01:00067178 ?setWantReturn@listEdit_class@@SAXQAVeditControl@@@PAUboolean_struct@_builtIn_class@@@Z 
01:00067194 ?_getWantReturn@listEdit_class@@SAXQAVeditControl@@@PAPAUboolean_struct@_builtIn_class@@@Z 
01:000671B0 ?_new@listEdit_class@@SAXQAVcontainerWindow@@@PAPAVlistEdit@@@@Z  (Idle)
01:000671D8 ?_new@listEdit_class@@SAXPAPAVlistEdit@@@@Z  (Idle)
01:00067200 ?_object_facts_initializer@listEdit_class@@SGXQAVlistEdit@@@@Z 
01:0006721C ?classInfo@listControl_class@@SAXPAPB_W0@Z 
01:00067238 ?new@listControl_class@@SAXQAVlistControl@@@QAVcontainerWindow@@@PBUwintype@vpiDomains@@@Z 
01:0006725C ?new@listControl_class@@SAXQAVlistControl@@@PBUwintype@vpiDomains@@@Z 
01:000672C4 ?initialize@listControl_class@@SAXQAVwindow@@@@Z 
01:0006732C ?initSelectAt@listControl_class@@SAXQAVlistControl@@@@Z 
01:000673EC ?setMaxDropDownRows@listControl_class@@SAXQAVlistControl@@@I@Z 
01:0006742C ?correctMaxDropDownRows@listControl_class@@SAXQAVlistControl@@@@Z 
01:00067530 ?getMaxDropDownRows@listControl_class@@SAXQAVlistControl@@@PAI@Z 
01:00067544 ?_getDroppedState@listControl_class@@SAXQAVlistControl@@@PAPAUboolean_struct@_builtIn_class@@@Z 
01:00067584 ?addRow@listControl_class@@SAXQAVlistControl@@@PAU?$__list_struct@Ustring@@@@@Z 
01:000675AC ?addRowAt@listControl_class@@SAXQAVlistControl@@@PBUpositiveOptional@@PAU?$__list_struct@Ustring@@@@@Z 
01:000675D4 $addRowList$listControl$predicate$(i,i)$c$_m5 
01:000675FC $addRowListAt$listControl$predicate$(i,i,i)$c$_m6 
01:00067624 ?add@listControl_class@@SAXQAVlistControl@@@PB_W@Z 
01:000676B0 ?addAt@listControl_class@@SAXQAVlistControl@@@PBUpositiveOptional@@PB_W@Z 
01:0006773C ?addList@listControl_class@@SAXQAVlistControl@@@PAU?$__list_struct@Ustring@@@@@Z 
01:000677B4 ?addListAt@listControl_class@@SAXQAVlistControl@@@PBUpositiveOptional@@PAU?$__list_struct@Ustring@@@@@Z 
01:0006782C ?clearAll@listControl_class@@SAXQAVlistControl@@@@Z 
01:00067970 ?delete@listControl_class@@SAXQAVlistControl@@@PBUpositive@@@Z 
01:00067A44 $getAllRows$listControl$predicate$(i,o)$c$_m13 
01:00067A6C ?getAll@listControl_class@@SAXQAVlistControl@@@PAPAU?$__list_struct@Ustring@@@@@Z 
01:00067AC0 ?_getCount@listControl_class@@SAXQAVlistControl@@@PAH@Z 
01:00067B38 ?_getRowAt@listControl_class@@SAXQAVlistControl@@@PBUpositive@@PAPAU?$__list_struct@Ustring@@@@@Z 
01:00067B68 ?getAt@listControl_class@@SAXQAVlistControl@@@PBUpositive@@PAPB_W@Z 
01:00067BD0 $getAllSelectedRows$listControl$predicate$(i,o,o)$c$_m18 
01:00067BF8 ?_toPositiveList@listControl_class@@SAXPAU?$__list_struct@Uinteger@@@@PAPAU?$__list_struct@Upositive@@@@@Z 
01:00067C70 ?getAllSelected@listControl_class@@SAXQAVlistControl@@@PAPAU?$__list_struct@Ustring@@@@PAPAU?$__list_struct@Upositive@@@@@Z 
01:00067D6C ?_getSelectedItems@listControl_class@@SAXQAVlistControl@@@PAPAU?$__list_struct@Ustring@@@@@Z 
01:00067D8C ?_getSelectedIndices@listControl_class@@SAXQAVlistControl@@@PAPAU?$__list_struct@Upositive@@@@@Z 
01:00067DAC ?indexesToItemList@listControl_class@@SAXQAVlistControl@@@PAU?$__list_struct@Upositive@@@@PAPAU?$__list_struct@Ustring@@@@@Z 
01:00067E2C ?_tryGetSelectedIndex@listControl_class@@SAXQAVlistControl@@@AAUpositive@@@Z 
01:00067EE0 ?isSelectedIndex@listControl_class@@SAXQAVlistControl@@@PBUpositive@@@Z 
01:00067F7C ?selectAt@listControl_class@@SAXQAVlistControl@@@PBUpositive@@PAUboolean_struct@_builtIn_class@@@Z 
01:000681E4 ?suspend@listControl_class@@SAXQAVlistControl@@@@Z 
01:00068210 ?resume@listControl_class@@SAXQAVlistControl@@@@Z 
01:0006823C ?_insertListAt@listControl_class@@SAXHPAU?$__list_struct@Ustring@@@@1PAPAU?$__list_struct@U2@@@@Z 
01:00068330 ?_deleteListItem@listControl_class@@SAXHPAU?$__list_struct@Ustring@@@@PAPAU?$__list_struct@U2@@@@Z 
01:000683B8 ?_getListItem@listControl_class@@SAXHPAU?$__list_struct@Ustring@@@@PAPB_W@Z 
01:00068418 ?addSelectionChangedListener@listControl_class@@SAXQAVlistControl@@@X@Z 
01:00068438 ?removeSelectionChangedListener@listControl_class@@SAXQAVlistControl@@@X@Z 
01:00068504 ?addDelayedSelectionChangedListener@listControl_class@@SAXQAVlistControl@@@PBUpositive@@X@Z 
01:00068540 ?removeDelayedSelectionChangedListener@listControl_class@@SAXQAVlistControl@@@X@Z 
01:0006860C ?dispatchSelectionChanged@listControl_class@@SAXQAVlistControl@@@PAU?$__list_struct@Upositive@@@@1@Z 
01:000686A4 ?dispatchBothKindSelectionChanged@listControl_class@@SAXQAVlistControl@@@@Z 
01:000687C8 ?delayedDispatchSelectionChanged@listControl_class@@SAXQAVlistControl@@@@Z 
01:0006884C ?addCloseUpListener@listControl_class@@SAXQAVlistControl@@@X@Z 
01:0006886C ?removeCloseUpListener@listControl_class@@SAXQAVlistControl@@@X@Z 
01:00068938 ?dispatchCloseUp@listControl_class@@SAXQAVlistControl@@@@Z 
01:000689BC ?addDropDownListener@listControl_class@@SAXQAVlistControl@@@X@Z 
01:000689DC ?removeDropDownListener@listControl_class@@SAXQAVlistControl@@@X@Z 
01:00068AA8 ?dispatchDropDown@listControl_class@@SAXQAVlistControl@@@@Z 
01:00068B30 ?dispatchEvent@listControl_class@@SAXQAVcontrol@@@PAUcontrolInfo_struct@vpiDomains_class@@@Z 
01:00068BB8 ?setVScroll@listControl_class@@SAXQAVlistControl@@@@Z 
01:00068BE0 ?setVScroll@listControl_class@@SAXQAVlistControl@@@PAUboolean_struct@_builtIn_class@@@Z 
01:00068C80 ?_getVScroll@listControl_class@@SAXQAVlistControl@@@PAPAUboolean_struct@_builtIn_class@@@Z 
01:00068CE4 ?setStaticScrollbar@listControl_class@@SAXQAVlistControl@@@@Z 
01:00068D0C ?setStaticScrollbar@listControl_class@@SAXQAVlistControl@@@PAUboolean_struct@_builtIn_class@@@Z 
01:00068D78 ?_getStaticScrollbar@listControl_class@@SAXQAVlistControl@@@PAPAUboolean_struct@_builtIn_class@@@Z 
01:00068DDC ?setAllowPartialRows@listControl_class@@SAXQAVlistControl@@@@Z 
01:00068E04 ?setAllowPartialRows@listControl_class@@SAXQAVlistControl@@@PAUboolean_struct@_builtIn_class@@@Z 
01:00068EA4 ?_getAllowPartialRows@listControl_class@@SAXQAVlistControl@@@PAPAUboolean_struct@_builtIn_class@@@Z 
01:00068F08 ?setSort@listControl_class@@SAXQAVlistControl@@@@Z 
01:00068F30 ?setSort@listControl_class@@SAXQAVlistControl@@@PAUboolean_struct@_builtIn_class@@@Z 
01:00068FD0 ?_getSort@listControl_class@@SAXQAVlistControl@@@PAPAUboolean_struct@_builtIn_class@@@Z 
01:00069034 ?_stringList2tabbedString@listControl_class@@SAXPAU?$__list_struct@Ustring@@@@PAPB_W@Z 
01:00069064 ?_tabbedString2stringList@listControl_class@@SAXPB_WPAPAU?$__list_struct@Ustring@@@@@Z 
01:00069094 $stringListList2stringList$listControl$predicate$(i,o)$b$_c5 
01:00069108 $stringList2stringListList$listControl$predicate$(i,o)$b$_c6 
01:0006917C ?_new@listControl_class@@SAXQAVcontainerWindow@@@PBUwintype@vpiDomains@@PAPAVlistControl@@@@Z  (Idle)
01:000691A8 ?_new@listControl_class@@SAXPBUwintype@vpiDomains@@PAPAVlistControl@@@@Z  (Idle)
01:000691D0 ?_object_facts_initializer@listControl_class@@SGXQAVlistControl@@@@Z 
01:00069204 ?classInfo@listButton_class@@SAXPAPB_W0@Z 
01:00069220 ?new@listButton_class@@SAXQAVlistButton@@@@Z 
01:00069248 ?new@listButton_class@@SAXQAVlistButton@@@QAVcontainerWindow@@@@Z 
01:00069268 ?setAlignBaseline@listButton_class@@SAXQAVlistButton@@@PAUboolean_struct@_builtIn_class@@@Z 
01:000692AC ?_getAlignBaseline@listButton_class@@SAXQAVlistButton@@@PAPAUboolean_struct@_builtIn_class@@@Z 
01:000692C0 ?_new@listButton_class@@SAXQAVcontainerWindow@@@PAPAVlistButton@@@@Z 
01:000692E8 ?_new@listButton_class@@SAXPAPAVlistButton@@@@Z  (Idle)
01:00069310 ?_object_facts_initializer@listButton_class@@SGXQAVlistButton@@@@Z 
01:0006932C ?classInfo@listBox_class@@SAXPAPB_W0@Z 
01:00069348 ?new@listBox_class@@SAXQAVlistBox@@@QAVcontainerWindow@@@@Z 
01:00069370 ?new@listBox_class@@SAXQAVlistBox@@@@Z 
01:000693CC ?initialize@listBox_class@@SAXQAVwindow@@@@Z 
01:00069404 ?initTopIndex@listBox_class@@SAXQAVlistBox@@@@Z 
01:00069460 ?setTopIndex@listBox_class@@SAXQAVlistBox@@@H@Z 
01:000694E8 ?_getTopIndex@listBox_class@@SAXQAVlistBox@@@PAH@Z 
01:00069570 ?addDoubleClickListener@listBox_class@@SAXQAVlistBox@@@X@Z 
01:00069590 ?removeDoubleClickListener@listBox_class@@SAXQAVlistBox@@@X@Z 
01:0006965C ?addDropDownListener@listBox_class@@SAXQAVlistControl@@@X@Z 
01:00069678 ?removeDropDownListener@listBox_class@@SAXQAVlistControl@@@X@Z 
01:00069694 ?addCloseUpListener@listBox_class@@SAXQAVlistControl@@@X@Z 
01:000696B0 ?removeCloseUpListener@listBox_class@@SAXQAVlistControl@@@X@Z 
01:000696CC ?setMaxDropDownRows@listBox_class@@SAXQAVlistControl@@@I@Z 
01:000696E8 ?_getMaxDropDownRows@listBox_class@@SAXQAVlistControl@@@PAI@Z 
01:00069704 ?_getDroppedState@listBox_class@@SAXQAVlistControl@@@PAPAUboolean_struct@_builtIn_class@@@Z 
01:00069720 ?dispatchActivated@listBox_class@@SAXQAVlistBox@@@@Z 
01:00069794 ?dispatchEvent@listBox_class@@SAXQAVcontrol@@@PAUcontrolInfo_struct@vpiDomains_class@@@Z 
01:000697D4 ?setHScroll@listBox_class@@SAXQAVlistBox@@@@Z 
01:000697FC ?setHScroll@listBox_class@@SAXQAVlistBox@@@PAUboolean_struct@_builtIn_class@@@Z 
01:00069880 ?_getHScroll@listBox_class@@SAXQAVlistBox@@@PAPAUboolean_struct@_builtIn_class@@@Z 
01:000698E4 ?setBorder@listBox_class@@SAXQAVlistBox@@@@Z 
01:0006990C ?setBorder@listBox_class@@SAXQAVlistBox@@@PAUboolean_struct@_builtIn_class@@@Z 
01:00069978 ?_getBorder@listBox_class@@SAXQAVlistBox@@@PAPAUboolean_struct@_builtIn_class@@@Z 
01:00069A00 ?setExtendedSel@listBox_class@@SAXQAVlistBox@@@@Z 
01:00069A28 ?setExtendedSel@listBox_class@@SAXQAVlistBox@@@PAUboolean_struct@_builtIn_class@@@Z 
01:00069AC8 ?_getExtendedSel@listBox_class@@SAXQAVlistBox@@@PAPAUboolean_struct@_builtIn_class@@@Z 
01:00069B2C ?setUseTabStops@listBox_class@@SAXQAVlistBox@@@@Z 
01:00069B54 ?setUseTabStops@listBox_class@@SAXQAVlistBox@@@PAUboolean_struct@_builtIn_class@@@Z 
01:00069BF4 ?_getUseTabStops@listBox_class@@SAXQAVlistBox@@@PAPAUboolean_struct@_builtIn_class@@@Z 
01:00069C58 ?setMultiSelect@listBox_class@@SAXQAVlistBox@@@@Z 
01:00069C80 ?setMultiSelect@listBox_class@@SAXQAVlistBox@@@PAUboolean_struct@_builtIn_class@@@Z 
01:00069CEC ?_getMultiSelect@listBox_class@@SAXQAVlistBox@@@PAPAUboolean_struct@_builtIn_class@@@Z 
01:00069D50 ?setAutoNotify@listBox_class@@SAXQAVlistBox@@@@Z 
01:00069D78 ?setAutoNotify@listBox_class@@SAXQAVlistBox@@@PAUboolean_struct@_builtIn_class@@@Z 
01:00069DE4 ?_getAutoNotify@listBox_class@@SAXQAVlistBox@@@PAPAUboolean_struct@_builtIn_class@@@Z 
01:00069E6C ?setMultiColumn@listBox_class@@SAXQAVlistBox@@@@Z 
01:00069E94 ?setMultiColumn@listBox_class@@SAXQAVlistBox@@@PAUboolean_struct@_builtIn_class@@@Z 
01:00069F00 ?_getMultiColumn@listBox_class@@SAXQAVlistBox@@@PAPAUboolean_struct@_builtIn_class@@@Z 
01:00069F64 ?setColumnWidth@listBox_class@@SAXQAVlistBox@@@H@Z 
01:00069FEC ?setTabStops@listBox_class@@SAXQAVlistBox@@@PAU?$__list_struct@Uinteger@@@@@Z 
01:0006A060 ?initColumnWidth@listBox_class@@SAXQAVlistBox@@@@Z 
01:0006A0BC ?initTabStops@listBox_class@@SAXQAVlistBox@@@@Z 
01:0006A118 ?_new@listBox_class@@SAXQAVcontainerWindow@@@PAPAVlistBox@@@@Z 
01:0006A140 ?_new@listBox_class@@SAXPAPAVlistBox@@@@Z  (Idle)
01:0006A168 ?classInfo@integerControl_class@@SAXPAPB_W0@Z 
01:0006A184 ?new@integerControl_class@@SAXQAVintegerControl@@@@Z 
01:0006A1EC ?new@integerControl_class@@SAXQAVintegerControl@@@QAVcontainerWindow@@@@Z 
01:0006A20C ?_onIntValidate@integerControl_class@@SAXQAVintegerControl@@@QAVcontrol@@@PAPAUvalidateResult_struct@control_class@@@Z 
01:0006A2B8 ?setInteger@integerControl_class@@SAXQAVintegerControl@@@H@Z 
01:0006A2DC ?_getInteger@integerControl_class@@SAXQAVintegerControl@@@PAH@Z 
01:0006A31C ?tryGetInteger@integerControl_class@@SAXQAVintegerControl@@@PAH@Z 
01:0006A368 ?setMaximum@integerControl_class@@SAXQAVintegerControl@@@H@Z 
01:0006A3C8 ?_getMaximum@integerControl_class@@SAXQAVintegerControl@@@PAH@Z 
01:0006A3DC ?setMinimum@integerControl_class@@SAXQAVintegerControl@@@H@Z 
01:0006A43C ?_getMinimum@integerControl_class@@SAXQAVintegerControl@@@PAH@Z 
01:0006A450 ?setMandatory@integerControl_class@@SAXQAVintegerControl@@@@Z 
01:0006A478 ?setMandatory@integerControl_class@@SAXQAVintegerControl@@@PAUboolean_struct@_builtIn_class@@@Z 
01:0006A48C ?_getMandatory@integerControl_class@@SAXQAVintegerControl@@@PAPAUboolean_struct@_builtIn_class@@@Z 
01:0006A4A0 ?_checkContent@integerControl_class@@SAXQAVintegerControl@@@PB_WPAPAUvalue_struct@core_class@@@Z 
01:0006A57C ?_whetherEmptyStringAvailable@integerControl_class@@SAXQAVintegerControl@@@PAUboolean_struct@_builtIn_class@@PAPAUvalue_struct@core_class@@@Z 
01:0006A60C ?_checkMinMax@integerControl_class@@SAXQAVintegerControl@@@HPAPAUvalue_struct@core_class@@@Z 
01:0006A810 ?setIllegalValueMessage@integerControl_class@@SAXPB_W@Z  (Idle)
01:0006A820 ?setIllegalValueMandatoryMessage@integerControl_class@@SAXPB_W@Z  (Idle)
01:0006A830 ?setIllegalValueMinimumMaximumMessage@integerControl_class@@SAXPB_W@Z  (Idle)
01:0006A840 ?setIllegalValueMinimumMessage@integerControl_class@@SAXPB_W@Z  (Idle)
01:0006A850 ?setIllegalValueMaximumMessage@integerControl_class@@SAXPB_W@Z  (Idle)
01:0006A860 ?_new@integerControl_class@@SAXQAVcontainerWindow@@@PAPAVintegerControl@@@@Z  (Idle)
01:0006A888 ?_new@integerControl_class@@SAXPAPAVintegerControl@@@@Z  (Idle)
01:0006A8B0 ?_class_facts_initializer@integerControl_class@@SGXXZ 
01:0006A8F0 ?_object_facts_initializer@integerControl_class@@SGXQAVintegerControl@@@@Z 
01:0006A924 ?classInfo@iconControl_class@@SAXPAPB_W0@Z  (Idle)
01:0006A940 ?new@iconControl_class@@SAXQAViconControl@@@@Z 
01:0006A9E4 ?new@iconControl_class@@SAXQAViconControl@@@QAVcontainerWindow@@@@Z 
01:0006AA00 ?setIcon@iconControl_class@@SAXQAVwindow@@@PBUresid@vpiDomains@@@Z 
01:0006AADC ?_getIcon@iconControl_class@@SAXQAViconControl@@@AAUresid@vpiDomains@@@Z 
01:0006AB1C ?setHInstance@iconControl_class@@SAXQAViconControl@@@PBUhModule@@@Z 
01:0006AB30 ?_getHInstance@iconControl_class@@SAXQAViconControl@@@AAUhModule@@@Z 
01:0006AB44 ?show@iconControl_class@@SAXQAVwindow@@@@Z 
01:0006AC6C ?create@iconControl_class@@SAXQAViconControl@@@PBUwindowHandle@vpiDomains@@@Z 
01:0006ADE8 ?onControlPaint@iconControl_class@@SAXQAViconControl@@@QAVdrawWindow@@@PAUrct_struct@vpiDomains_class@@QAVwindowGDI@@@@Z 
01:0006AE0C ?setRect@iconControl_class@@SAXQAVcontrolSupport@@@PAUrct_struct@vpiDomains_class@@@Z 
--- From 'Obj\taskwindow.obj'
01:0006AE68 ?_new@iconControl_class@@SAXQAVcontainerWindow@@@PAPAViconControl@@@@Z 
--- From 'Obj\controls.obj'
01:0006AE90 ?_new@iconControl_class@@SAXPAPAViconControl@@@@Z  (Idle)
01:0006AEB8 ?_object_facts_initializer@iconControl_class@@SGXQAViconControl@@@@Z 
01:0006AED0 ?classInfo@groupBox_class@@SAXPAPB_W0@Z 
01:0006AEEC ?new@groupBox_class@@SAXQAVgroupBox@@@QAVcontainerWindow@@@@Z 
01:0006AF0C ?new@groupBox_class@@SAXQAVgroupBox@@@@Z 
01:0006AF78 ?show@groupBox_class@@SAXQAVwindow@@@@Z 
01:0006B00C ?setClientRect@groupBox_class@@SAXQAVwindow@@@PAUrct_struct@vpiDomains_class@@@Z 
01:0006B0F8 ?setBorderStyle@groupBox_class@@SAXQAVgroupBox@@@PAUborderStyle_struct@1@@Z 
01:0006B13C ?_getBorderStyle@groupBox_class@@SAXQAVgroupBox@@@PAPAUborderStyle_struct@1@@Z 
01:0006B150 ?_onControlNative@groupBox_class@@SAXQAVgroupBox@@@QAVwindow@@@IIHPAPAUnativeResponse_struct@window_class@@@Z 
01:0006B3A0 ?_inflateClientRect@groupBox_class@@SAXQAVgroupBox@@@PAUrct_struct@vpiDomains_class@@PAPAU34@@Z 
01:0006B484 ?borderStyle_offsets@groupBox_class@@SAXPAUborderStyle_struct@1@PAHPAHPAHPAHPAPB_W@Z 
01:0006B544 ?drawNCBackground@groupBox_class@@SAXQAVgroupBox@@@PBUhDC@gui_Native@@PAUrct_struct@vpiDomains_class@@@Z 
01:0006B644 ?drawNCBorder@groupBox_class@@SAXQAVgroupBox@@@PAUborderStyle_struct@1@PBUhDC@gui_Native@@PAUrct_struct@vpiDomains_class@@H@Z 
01:0006B92C ?drawNCCaption@groupBox_class@@SAXQAVgroupBox@@@PBUhDC@gui_Native@@PAUrct_struct@vpiDomains_class@@PBUpositive@@@Z 
01:0006BA9C ?setText@groupBox_class@@SAXQAVwindow@@@PB_W@Z 
01:0006BABC ?invalidate@groupBox_class@@SAXQAVgroupBox@@@@Z 
--- From 'Obj\taskwindow.obj'
01:0006BB0C ?_new@groupBox_class@@SAXQAVcontainerWindow@@@PAPAVgroupBox@@@@Z 
--- From 'Obj\controls.obj'
01:0006BB34 ?_new@groupBox_class@@SAXPAPAVgroupBox@@@@Z  (Idle)
01:0006BB5C ?_object_facts_initializer@groupBox_class@@SGXQAVgroupBox@@@@Z 
01:0006BB78 ?classInfo@editControl_class@@SAXPAPB_W0@Z 
01:0006BB94 ?new@editControl_class@@SAXQAVeditControl@@@QAVcontainerWindow@@@@Z 
01:0006BBB4 ?new@editControl_class@@SAXQAVeditControl@@@@Z 
01:0006BC1C ?show@editControl_class@@SAXQAVwindow@@@@Z 
01:0006BC4C ?setOuterRect@editControl_class@@SAXQAVwindow@@@PAUrct_struct@vpiDomains_class@@@Z 
01:0006BCC4 ?_fixEditControlOuterRect@editControl_class@@SAXQAVeditControl@@@PAUboolean_struct@_builtIn_class@@PAUrct_struct@vpiDomains_class@@PAPAU56@@Z 
01:0006BD6C ?setAlignBaseline@editControl_class@@SAXQAVeditControl@@@PAUboolean_struct@_builtIn_class@@@Z 
01:0006BDB0 ?getAlignBaseline@editControl_class@@SAXQAVeditControl@@@PAPAUboolean_struct@_builtIn_class@@@Z 
01:0006BDC4 ?addModifiedListener@editControl_class@@SAXQAVeditControl@@@X@Z 
01:0006BDE4 ?removeModifiedListener@editControl_class@@SAXQAVeditControl@@@X@Z 
01:0006BEB0 ?dispatchModified@editControl_class@@SAXQAVeditControl@@@@Z 
01:0006BF5C ?dispatchEvent@editControl_class@@SAXQAVcontrol@@@PAUcontrolInfo_struct@vpiDomains_class@@@Z 
01:0006BF90 ?selectText@editControl_class@@SAXQAVeditControl@@@PBUcharCount@@1@Z 
01:0006BFC0 ?selectAll@editControl_class@@SAXQAVeditControl@@@@Z 
01:0006C008 ?getTextSelection@editControl_class@@SAXQAVeditControl@@@AAUcharCount@@1@Z 
01:0006C038 ?setAutoHScroll@editControl_class@@SAXQAVeditControl@@@@Z 
01:0006C060 ?setAutoHScroll@editControl_class@@SAXQAVeditControl@@@PAUboolean_struct@_builtIn_class@@@Z 
01:0006C100 ?_getAutoHScroll@editControl_class@@SAXQAVeditControl@@@PAPAUboolean_struct@_builtIn_class@@@Z 
01:0006C164 ?setAutoVScroll@editControl_class@@SAXQAVeditControl@@@@Z 
01:0006C18C ?setAutoVScroll@editControl_class@@SAXQAVeditControl@@@PAUboolean_struct@_builtIn_class@@@Z 
01:0006C22C ?_getAutoVScroll@editControl_class@@SAXQAVeditControl@@@PAPAUboolean_struct@_builtIn_class@@@Z 
01:0006C290 ?setBorder@editControl_class@@SAXQAVeditControl@@@@Z 
01:0006C2B8 ?setBorder@editControl_class@@SAXQAVeditControl@@@PAUboolean_struct@_builtIn_class@@@Z 
01:0006C358 ?getBorder@editControl_class@@SAXQAVeditControl@@@PAPAUboolean_struct@_builtIn_class@@@Z 
01:0006C460 ?setMultiLine@editControl_class@@SAXQAVeditControl@@@@Z 
01:0006C488 ?setMultiLine@editControl_class@@SAXQAVeditControl@@@PAUboolean_struct@_builtIn_class@@@Z 
01:0006C528 ?_getMultiLine@editControl_class@@SAXQAVeditControl@@@PAPAUboolean_struct@_builtIn_class@@@Z 
01:0006C58C ?setVScroll@editControl_class@@SAXQAVeditControl@@@@Z 
01:0006C5B4 ?setVScroll@editControl_class@@SAXQAVeditControl@@@PAUboolean_struct@_builtIn_class@@@Z 
01:0006C638 ?_getVScroll@editControl_class@@SAXQAVeditControl@@@PAPAUboolean_struct@_builtIn_class@@@Z 
01:0006C69C ?setHScroll@editControl_class@@SAXQAVeditControl@@@@Z 
01:0006C6C4 ?setHScroll@editControl_class@@SAXQAVeditControl@@@PAUboolean_struct@_builtIn_class@@@Z 
01:0006C748 ?_getHScroll@editControl_class@@SAXQAVeditControl@@@PAPAUboolean_struct@_builtIn_class@@@Z 
01:0006C7AC ?setWantReturn@editControl_class@@SAXQAVeditControl@@@@Z 
01:0006C7D4 ?setWantReturn@editControl_class@@SAXQAVeditControl@@@PAUboolean_struct@_builtIn_class@@@Z 
01:0006C858 ?_getWantReturn@editControl_class@@SAXQAVeditControl@@@PAPAUboolean_struct@_builtIn_class@@@Z 
01:0006C8BC ?setPassword@editControl_class@@SAXQAVeditControl@@@@Z 
01:0006C8E4 ?setPassword@editControl_class@@SAXQAVeditControl@@@PAUboolean_struct@_builtIn_class@@@Z 
01:0006C984 ?_getPassword@editControl_class@@SAXQAVeditControl@@@PAPAUboolean_struct@_builtIn_class@@@Z 
01:0006C9E8 ?setHideSel@editControl_class@@SAXQAVeditControl@@@@Z 
01:0006CA10 ?setHideSel@editControl_class@@SAXQAVeditControl@@@PAUboolean_struct@_builtIn_class@@@Z 
01:0006CAB0 ?_getHideSel@editControl_class@@SAXQAVeditControl@@@PAPAUboolean_struct@_builtIn_class@@@Z 
01:0006CB38 ?setReadOnly@editControl_class@@SAXQAVeditControl@@@@Z 
01:0006CB60 ?setReadOnly@editControl_class@@SAXQAVeditControl@@@PAUboolean_struct@_builtIn_class@@@Z 
01:0006CC40 ?_getReadOnly@editControl_class@@SAXQAVeditControl@@@PAPAUboolean_struct@_builtIn_class@@@Z 
01:0006CCA4 ?setAlignment@editControl_class@@SAXQAVeditControl@@@PAUalignment_struct@vpiDomains_class@@@Z 
01:0006CDC4 ?_getAlignment@editControl_class@@SAXQAVeditControl@@@PAPAUalignment_struct@vpiDomains_class@@@Z 
01:0006CE70 ?setUpperCase@editControl_class@@SAXQAVeditControl@@@@Z 
01:0006CE98 ?setUpperCase@editControl_class@@SAXQAVeditControl@@@PAUboolean_struct@_builtIn_class@@@Z 
01:0006CF60 ?_getUpperCase@editControl_class@@SAXQAVeditControl@@@PAPAUboolean_struct@_builtIn_class@@@Z 
01:0006CFC4 ?setLowerCase@editControl_class@@SAXQAVeditControl@@@@Z 
01:0006CFEC ?setLowerCase@editControl_class@@SAXQAVeditControl@@@PAUboolean_struct@_builtIn_class@@@Z 
01:0006D0A4 ?_getLowerCase@editControl_class@@SAXQAVeditControl@@@PAPAUboolean_struct@_builtIn_class@@@Z 
01:0006D108 ?_new@editControl_class@@SAXQAVcontainerWindow@@@PAPAVeditControl@@@@Z 
01:0006D130 ?_new@editControl_class@@SAXPAPAVeditControl@@@@Z  (Idle)
01:0006D158 ?_object_facts_initializer@editControl_class@@SGXQAVeditControl@@@@Z 
01:0006D180 ?classInfo@control_exception_class@@SAXPAPB_W0@Z 
01:0006D19C ?raise_NoSelectedRadioButtonException@control_exception_class@@SAXX@Z 
01:0006D1BC ?raise_WrongRadioButtonException@control_exception_class@@SAXXQAVradioButton@@@@Z 
01:0006D23C ?raise_IntegerControlIllegalContentException@control_exception_class@@SAXX@Z 
01:0006D25C ?raise_RealControlIllegalContentException@control_exception_class@@SAXX@Z 
01:0006D27C ?raise_MinimumGreaterThanMaximumException@control_exception_class@@SAXXPAN@Z 
01:0006D2EC ?raise_MaximumLessThanMinimumException@control_exception_class@@SAXXPAN@Z 
01:0006D35C ?raise_OnlyOneCancelException@control_exception_class@@SAXX@Z 
01:0006D37C ?noSelectedRadioButton_exception@control_exception_class@@SAXPAXPAPB_W1@Z 
01:0006D3A4 ?wrongRadioButton_exception@control_exception_class@@SAXPAXPAPB_W1@Z 
01:0006D3CC ?integerControlIllegalContent_exception@control_exception_class@@SAXPAXPAPB_W1@Z 
01:0006D3F4 ?realControlIllegalContent_exception@control_exception_class@@SAXPAXPAPB_W1@Z 
01:0006D41C ?minimumGreaterThanMaximum_exception@control_exception_class@@SAXPAXPAPB_W1@Z 
01:0006D444 ?maximumLessThanMinimum_exception@control_exception_class@@SAXPAXPAPB_W1@Z 
01:0006D46C ?onlyOneCancel_exception@control_exception_class@@SAXPAXPAPB_W1@Z 
01:0006D494 ?classInfo@containerControl_class@@SAXPAPB_W0@Z  (Idle)
01:0006D4B0 ?new@containerControl_class@@SAXQAVcontainerControl@@@QAVcontainerWindow@@@@Z 
01:0006D4CC ?new@containerControl_class@@SAXQAVcontainerControl@@@@Z 
01:0006D5E4 ?show@containerControl_class@@SAXQAVwindow@@@@Z 
01:0006D790 ?_tryGetControl@containerControl_class@@SAXQAVcontainerWindowSupport@@@PAPAVcontrol@@@@Z 
01:0006D7B4 ?setContainer@containerControl_class@@SAXQAVcontrolSupport@@@QAVcontainerWindow@@@@Z 
01:0006D86C ?_onControlEraseBackground@containerControl_class@@SAXQAVcontainerControl@@@QAVdrawWindow@@@QAVwindowGDI@@@PAPAUeraseBackgroundResponse_struct@drawWindow_class@@@Z 
01:0006D880 ?onControlPaint@containerControl_class@@SAXQAVcontainerControl@@@QAVdrawWindow@@@PAUrct_struct@vpiDomains_class@@QAVwindowGDI@@@@Z 
01:0006D8A4 ?_onControlNative@containerControl_class@@SAXQAVcontainerControl@@@QAVwindow@@@IIHPAPAUnativeResponse_struct@window_class@@@Z 
01:0006D918 ?_validate@containerControl_class@@SAXQAVcontrolSupport@@@PAPAUvalidateResult_struct@control_class@@@Z 
01:0006D978 ?_new@containerControl_class@@SAXQAVcontainerWindow@@@PAPAVcontainerControl@@@@Z  (Idle)
01:0006D9A0 ?_new@containerControl_class@@SAXPAPAVcontainerControl@@@@Z 
01:0006D9C8 ?_object_facts_initializer@containerControl_class@@SGXQAVcontainerControl@@@@Z 
01:0006D9E0 ?classInfo@button_class@@SAXPAPB_W0@Z 
01:0006D9FC ?new@button_class@@SAXQAVbutton@@@QAVcontainerWindow@@@@Z 
01:0006DA1C ?new@button_class@@SAXQAVbutton@@@@Z 
01:0006DA64 ?newOk@button_class@@SAXQAVbutton@@@QAVcontainerWindow@@@@Z 
01:0006DABC ?newCancel@button_class@@SAXQAVbutton@@@QAVcontainerWindow@@@@Z 
01:0006DB50 ?show@button_class@@SAXQAVwindow@@@@Z 
01:0006DC20 ?onCancelButtonDestroy@button_class@@SAXQAVbutton@@@QAVwindow@@@@Z 
01:0006DCD8 ?_getClickResponder@button_class@@SAXQAVbutton@@@PAX@Z 
01:0006DCEC ?setClickResponder@button_class@@SAXQAVbutton@@@X@Z 
01:0006DD00 ?resetClickResponder@button_class@@SAXQAVbutton@@@@Z 
01:0006DD30 ?_defaultClickResponder@button_class@@SAXQAVbutton@@@0PAPAUactionResponse_struct@1@@Z 
01:0006DD44 ?dispatchClick@button_class@@SAXQAVbutton@@@@Z 
01:0006DDF8 ?invokeDefaultAction@button_class@@SAXQAVbutton@@@@Z 
01:0006DE48 ?tryValidateParentContainer@button_class@@SAXQAVbutton@@@@Z 
01:0006DECC ?click@button_class@@SAXQAVbutton@@@@Z 
01:0006DED4 ?dispatchEvent@button_class@@SAXQAVcontrol@@@PAUcontrolInfo_struct@vpiDomains_class@@@Z 
01:0006DEF4 ?setValidateOnClick@button_class@@SAXQAVbutton@@@@Z 
01:0006DF1C ?setValidateOnClick@button_class@@SAXQAVbutton@@@PAUboolean_struct@_builtIn_class@@@Z 
01:0006DF30 ?_getValidateOnClick@button_class@@SAXQAVbutton@@@PAPAUboolean_struct@_builtIn_class@@@Z 
01:0006DF44 ?_new@button_class@@SAXQAVcontainerWindow@@@PAPAVbutton@@@@Z 
01:0006DF6C ?_new@button_class@@SAXPAPAVbutton@@@@Z  (Idle)
--- From 'Obj\taskwindow.obj'
01:0006DF94 ?_newOk@button_class@@SAXQAVcontainerWindow@@@PAPAVbutton@@@@Z 
--- From 'Obj\controls.obj'
01:0006DFBC ?_newCancel@button_class@@SAXQAVcontainerWindow@@@PAPAVbutton@@@@Z 
01:0006DFE4 ?_object_facts_initializer@button_class@@SGXQAVbutton@@@@Z 
01:0006E028 ?classInfo@textControl_class@@SAXPAPB_W0@Z 
01:0006E044 ?new@textControl_class@@SAXQAVtextControl@@@QAVcontainerWindow@@@@Z 
01:0006E064 ?new@textControl_class@@SAXQAVtextControl@@@@Z 
01:0006E0B8 ?setOuterRect@textControl_class@@SAXQAVwindow@@@PAUrct_struct@vpiDomains_class@@@Z 
01:0006E0F8 ?_fixTextControlOuterRect@textControl_class@@SAXQAVtextControl@@@PAUboolean_struct@_builtIn_class@@PAUrct_struct@vpiDomains_class@@PAPAU56@@Z 
01:0006E1E0 ?setAlignBaseline@textControl_class@@SAXQAVtextControl@@@PAUboolean_struct@_builtIn_class@@@Z 
01:0006E224 ?getAlignBaseline@textControl_class@@SAXQAVtextControl@@@PAPAUboolean_struct@_builtIn_class@@@Z 
01:0006E238 ?setIgnorePrefix@textControl_class@@SAXQAVtextControl@@@@Z 
01:0006E260 ?setIgnorePrefix@textControl_class@@SAXQAVtextControl@@@PAUboolean_struct@_builtIn_class@@@Z 
01:0006E300 ?_getIgnorePrefix@textControl_class@@SAXQAVtextControl@@@PAPAUboolean_struct@_builtIn_class@@@Z 
01:0006E364 ?alignment_State@textControl_class@@SAXPAUalignment_struct@vpiDomains_class@@AAUwsflag@vpiDomains@@@Z 
01:0006E398 ?setAlignment@textControl_class@@SAXQAVtextControl@@@PAUalignment_struct@vpiDomains_class@@@Z 
01:0006E424 ?_getAlignment@textControl_class@@SAXQAVtextControl@@@PAPAUalignment_struct@vpiDomains_class@@@Z 
01:0006E490 ?setWrap@textControl_class@@SAXQAVtextControl@@@@Z 
01:0006E4B8 ?setWrap@textControl_class@@SAXQAVtextControl@@@PAUboolean_struct@_builtIn_class@@@Z 
01:0006E53C ?_getWrap@textControl_class@@SAXQAVtextControl@@@PAPAUboolean_struct@_builtIn_class@@@Z 
01:0006E5C4 ?setForegroundColor@textControl_class@@SAXQAVtextControl@@@PBUcolor@@@Z 
01:0006E614 ?_onCtlColorStatic@textControl_class@@SAXQAVtextControl@@@QAVwindow@@@IIHPAPAUnativeResponse_struct@window_class@@@Z 
01:0006E6C8 ?_updateDC@textControl_class@@SAXQAVtextControl@@@PBUhDC@gui_Native@@PAH@Z 
01:0006E720 ?enableHandleDeviceContext@textControl_class@@SAXQAVtextControl@@@@Z 
01:0006E7B8 ?_new@textControl_class@@SAXQAVcontainerWindow@@@PAPAVtextControl@@@@Z 
01:0006E7E0 ?_new@textControl_class@@SAXPAPAVtextControl@@@@Z  (Idle)
01:0006E808 ?alignment_State@textControl_class@@SAXPAPAUalignment_struct@vpiDomains_class@@PBUwsflag@vpiDomains@@@Z 
01:0006E864 ?_object_facts_initializer@textControl_class@@SGXQAVtextControl@@@@Z 
01:0006E880 ?classInfo@radioButton_class@@SAXPAPB_W0@Z 
01:0006E89C ?new@radioButton_class@@SAXQAVradioButton@@@QAVcontainerWindow@@@@Z 
01:0006E8B8 ?new@radioButton_class@@SAXQAVradioButton@@@@Z 
01:0006E910 ?initialize@radioButton_class@@SAXQAVwindow@@@@Z 
01:0006E968 ?setOuterRect@radioButton_class@@SAXQAVwindow@@@PAUrct_struct@vpiDomains_class@@@Z 
01:0006E9A8 ?_fixRadioButtonOuterRect@radioButton_class@@SAXQAVradioButton@@@PAUboolean_struct@_builtIn_class@@PAUrct_struct@vpiDomains_class@@PAPAU56@@Z 
01:0006EA70 ?setAlignBaseline@radioButton_class@@SAXQAVradioButton@@@PAUboolean_struct@_builtIn_class@@@Z 
01:0006EAB4 ?getAlignBaseline@radioButton_class@@SAXQAVradioButton@@@PAPAUboolean_struct@_builtIn_class@@@Z 
01:0006EAC8 ?setContainer@radioButton_class@@SAXQAVcontrol@@@QAVcontainerWindow@@@@Z 
01:0006EB3C ?resetContainer@radioButton_class@@SAXQAVcontrol@@@@Z 
01:0006EB58 ?clearOldGroup@radioButton_class@@SAXQAVradioButton@@@@Z 
01:0006EBD0 ?defaultClickResponder@radioButton_class@@SAXQAVradioButton@@@@Z 
01:0006EBD8 ?setClickResponder@radioButton_class@@SAXQAVradioButton@@@X@Z 
01:0006EBEC ?_getClickResponder@radioButton_class@@SAXQAVradioButton@@@PAX@Z 
01:0006EC00 ?resetClickResponder@radioButton_class@@SAXQAVradioButton@@@@Z 
01:0006EC18 ?addStateChangedListener@radioButton_class@@SAXQAVradioButton@@@X@Z 
01:0006EC38 ?removeStateChangedListener@radioButton_class@@SAXQAVradioButton@@@X@Z 
01:0006ED04 ?dispatchActivated@radioButton_class@@SAXQAVradioButton@@@@Z 
01:0006EDD0 ?dispatchStateChanged@radioButton_class@@SAXQAVradioButton@@@PAUstate_struct@1@1@Z 
01:0006EE5C ?notifyNeighbours@radioButton_class@@SAXQAVradioButton@@@@Z 
01:0006EF50 ?dispatchEvent@radioButton_class@@SAXQAVcontrol@@@PAUcontrolInfo_struct@vpiDomains_class@@@Z 
01:0006EF90 ?getRadioState@radioButton_class@@SAXQAVradioButton@@@PAPAUstate_struct@1@@Z 
01:0006EFF4 ?setRadioState@radioButton_class@@SAXQAVradioButton@@@PAUstate_struct@1@@Z 
01:0006F254 ?state2integral@radioButton_class@@SAXQAVradioButton@@@PAUstate_struct@1@PAI@Z 
01:0006F278 ?setAuto@radioButton_class@@SAXQAVradioButton@@@@Z 
01:0006F2A0 ?setAuto@radioButton_class@@SAXQAVradioButton@@@PAUboolean_struct@_builtIn_class@@@Z 
01:0006F324 ?_getAuto@radioButton_class@@SAXQAVradioButton@@@PAPAUboolean_struct@_builtIn_class@@@Z 
01:0006F388 ?setLeftText@radioButton_class@@SAXQAVradioButton@@@@Z 
01:0006F3B0 ?setLeftText@radioButton_class@@SAXQAVradioButton@@@PAUboolean_struct@_builtIn_class@@@Z 
01:0006F434 ?_getLeftText@radioButton_class@@SAXQAVradioButton@@@PAPAUboolean_struct@_builtIn_class@@@Z 
01:0006F498 ?_getRadioButtonGroup@radioButton_class@@SAXQAVradioButton@@@PAPAVradioButtonGroup@@@@Z 
01:0006F4C8 ?_new@radioButton_class@@SAXQAVcontainerWindow@@@PAPAVradioButton@@@@Z 
01:0006F4F0 ?_new@radioButton_class@@SAXPAPAVradioButton@@@@Z  (Idle)
01:0006F518 ?state2integral@radioButton_class@@SAXQAVradioButton@@@PAPAUstate_struct@1@I@Z 
01:0006F584 ?_object_facts_initializer@radioButton_class@@SGXQAVradioButton@@@@Z 
01:0006F5B4 ?classInfo@checkButton_class@@SAXPAPB_W0@Z 
01:0006F5D0 ?new@checkButton_class@@SAXQAVcheckButton@@@QAVcontainerWindow@@@@Z 
01:0006F5F0 ?new@checkButton_class@@SAXQAVcheckButton@@@@Z 
01:0006F64C ?initialize@checkButton_class@@SAXQAVwindow@@@@Z 
01:0006F680 ?setOuterRect@checkButton_class@@SAXQAVwindow@@@PAUrct_struct@vpiDomains_class@@@Z 
01:0006F6C0 ?_fixCheckButtonOuterRect@checkButton_class@@SAXQAVcheckButton@@@PAUboolean_struct@_builtIn_class@@PAUrct_struct@vpiDomains_class@@PAPAU56@@Z 
01:0006F788 ?setAlignBaseline@checkButton_class@@SAXQAVcheckButton@@@PAUboolean_struct@_builtIn_class@@@Z 
01:0006F7CC ?getAlignBaseline@checkButton_class@@SAXQAVcheckButton@@@PAPAUboolean_struct@_builtIn_class@@@Z 
01:0006F7E0 ?defaultClickResponder@checkButton_class@@SAXQAVcheckButton@@@@Z 
01:0006F7E8 ?setClickResponder@checkButton_class@@SAXQAVcheckButton@@@X@Z 
01:0006F7FC ?_getClickResponder@checkButton_class@@SAXQAVcheckButton@@@PAX@Z 
01:0006F810 ?resetClickResponder@checkButton_class@@SAXQAVcheckButton@@@@Z 
01:0006F828 ?addStateChangedListener@checkButton_class@@SAXQAVcheckButton@@@X@Z 
01:0006F848 ?removeStateChangedListener@checkButton_class@@SAXQAVcheckButton@@@X@Z 
01:0006F914 ?dispatchActivated@checkButton_class@@SAXQAVcheckButton@@@@Z 
01:0006F994 ?dispatchStateChanged@checkButton_class@@SAXQAVcheckButton@@@PAUstate_struct@1@1@Z 
01:0006FA54 ?dispatchEvent@checkButton_class@@SAXQAVcontrol@@@PAUcontrolInfo_struct@vpiDomains_class@@@Z 
01:0006FA74 ?getCheckedState@checkButton_class@@SAXQAVcheckButton@@@PAPAUstate_struct@1@@Z 
01:0006FAD4 ?setCheckedState@checkButton_class@@SAXQAVcheckButton@@@PAUstate_struct@1@@Z 
01:0006FB50 ?state2integral@checkButton_class@@SAXPAUstate_struct@1@PAI@Z 
01:0006FB84 ?setChecked@checkButton_class@@SAXQAVcheckButton@@@PAUboolean_struct@_builtIn_class@@@Z 
01:0006FBB0 ?_getChecked@checkButton_class@@SAXQAVcheckButton@@@PAPAUboolean_struct@_builtIn_class@@@Z 
01:0006FBDC ?setStyle@checkButton_class@@SAXQAVcheckButton@@@PAUboolean_struct@_builtIn_class@@1@Z 
01:0006FD30 ?getStyle@checkButton_class@@SAXQAVcheckButton@@@PAPAUboolean_struct@_builtIn_class@@1@Z 
01:0006FE50 ?setAuto@checkButton_class@@SAXQAVcheckButton@@@@Z 
01:0006FE78 ?setAuto@checkButton_class@@SAXQAVcheckButton@@@PAUboolean_struct@_builtIn_class@@@Z 
01:0006FEB8 ?_getAuto@checkButton_class@@SAXQAVcheckButton@@@PAPAUboolean_struct@_builtIn_class@@@Z 
01:0006FED8 ?setLeftText@checkButton_class@@SAXQAVcheckButton@@@@Z 
01:0006FF00 ?setLeftText@checkButton_class@@SAXQAVcheckButton@@@PAUboolean_struct@_builtIn_class@@@Z 
01:0006FF84 ?_getLeftText@checkButton_class@@SAXQAVcheckButton@@@PAPAUboolean_struct@_builtIn_class@@@Z 
01:0006FFE8 ?_new@checkButton_class@@SAXQAVcontainerWindow@@@PAPAVcheckButton@@@@Z  (Idle)
01:00070010 ?_new@checkButton_class@@SAXPAPAVcheckButton@@@@Z  (Idle)
01:00070038 ?state2integral@checkButton_class@@SAXPAPAUstate_struct@1@I@Z 
01:000700B8 ?_object_facts_initializer@checkButton_class@@SGXQAVcheckButton@@@@Z 
01:000714A8 timerControl?_initObject@@@QAGXQAV1@H@Z 
01:00071500 ?@create_object@timerControl_class@@SGQAVtimerControl@@@XZ 
01:0007151C timerControl?_InternalFinalizer@@@QAGXQAV1@@Z 
01:00071E7C versionControl?_initObject@@@QAGXQAV1@H@Z 
01:00071EA4 ?@create_object@versionControl_class@@SGQAVversionControl@@@XZ 
01:00071EC0 versionControl?_InternalFinalizer@@@QAGXQAV1@@Z 
01:00072758 scrollControl?_initObject@@@QAGXQAV1@H@Z 
01:00072790 ?@create_object@scrollControl_class@@SGQAVscrollControl@@@XZ 
01:000727AC scrollControl?_InternalFinalizer@@@QAGXQAV1@@Z 
01:00073324 realControl?_initObject@@@QAGXQAV1@H@Z 
01:00073368 ?@create_object@realControl_class@@SGQAVrealControl@@@XZ 
01:00073384 realControl?_InternalFinalizer@@@QAGXQAV1@@Z 
01:0007339C radioButtonGroup?_initObject@@@QAGXQAV1@H@Z 
01:000733BC ?@create_object@radioButtonGroup_class@@SGQAVradioButtonGroup@@@XZ 
01:000733D8 radioButtonGroup?_InternalFinalizer@@@QAGXQAV1@@Z 
01:00074A10 listEdit?_initObject@@@QAGXQAV1@H@Z 
01:00074A58 ?@create_object@listEdit_class@@SGQAVlistEdit@@@XZ 
01:00074A74 listEdit?_InternalFinalizer@@@QAGXQAV1@@Z 
01:0007530C listControl?_initObject@@@QAGXQAV1@H@Z 
01:00075350 ?@create_object@listControl_class@@SGQAVlistControl@@@XZ 
01:0007536C listControl?_InternalFinalizer@@@QAGXQAV1@@Z 
01:00075F04 listButton?_initObject@@@QAGXQAV1@H@Z 
01:00075F40 ?@create_object@listButton_class@@SGQAVlistButton@@@XZ 
01:00075F5C listButton?_InternalFinalizer@@@QAGXQAV1@@Z 
01:00076A94 listBox?_initObject@@@QAGXQAV1@H@Z 
01:00076ACC ?@create_object@listBox_class@@SGQAVlistBox@@@XZ 
01:00076AE8 listBox?_InternalFinalizer@@@QAGXQAV1@@Z 
01:00077660 integerControl?_initObject@@@QAGXQAV1@H@Z 
01:000776A4 ?@create_object@integerControl_class@@SGQAVintegerControl@@@XZ 
01:000776C0 integerControl?_InternalFinalizer@@@QAGXQAV1@@Z 
01:00079504 iconControl?_initObject@@@QAGXQAV1@H@Z 
01:00079550 ?@create_object@iconControl_class@@SGQAViconControl@@@XZ 
01:0007956C iconControl?_InternalFinalizer@@@QAGXQAV1@@Z 
01:0007A610 groupBox?_initObject@@@QAGXQAV1@H@Z 
01:0007A650 ?@create_object@groupBox_class@@SGQAVgroupBox@@@XZ 
01:0007A66C groupBox?_InternalFinalizer@@@QAGXQAV1@@Z 
01:0007AF04 editControl?_initObject@@@QAGXQAV1@H@Z 
01:0007AF48 ?@create_object@editControl_class@@SGQAVeditControl@@@XZ 
01:0007AF64 editControl?_InternalFinalizer@@@QAGXQAV1@@Z 
01:0007DE8C containerControl?_initObject@@@QAGXQAV1@H@Z 
01:0007DEE4 ?@create_object@containerControl_class@@SGQAVcontainerControl@@@XZ 
01:0007DF00 containerControl?_InternalFinalizer@@@QAGXQAV1@@Z 
01:0007E7A4 button?_initObject@@@QAGXQAV1@H@Z 
01:0007E7E8 ?@create_object@button_class@@SGQAVbutton@@@XZ 
01:0007E804 button?_InternalFinalizer@@@QAGXQAV1@@Z 
01:0007F0AC textControl?_initObject@@@QAGXQAV1@H@Z 
01:0007F0F0 ?@create_object@textControl_class@@SGQAVtextControl@@@XZ 
01:0007F10C textControl?_InternalFinalizer@@@QAGXQAV1@@Z 
01:0007F9A4 radioButton?_initObject@@@QAGXQAV1@H@Z 
01:0007F9E8 ?@create_object@radioButton_class@@SGQAVradioButton@@@XZ 
01:0007FA04 radioButton?_InternalFinalizer@@@QAGXQAV1@@Z 
01:0008029C checkButton?_initObject@@@QAGXQAV1@H@Z 
01:000802E0 ?@create_object@checkButton_class@@SGQAVcheckButton@@@XZ 
01:000802FC checkButton?_InternalFinalizer@@@QAGXQAV1@@Z 
--- From 'Obj\gui.obj'
01:00080310 ?classInfo@popupWindow_class@@SAXPAPB_W0@Z 
01:0008032C ?new@popupWindow_class@@SAXQAVpopupWindow@@@@Z 
01:000804F8 ?show@popupWindow_class@@SAXQAVwindow@@@@Z 
01:00080620 ?onFrameShow@popupWindow_class@@SAXQAVpopupWindow@@@QAVwindow@@@H@Z 
01:00080818 ?onInnerDialogShow@popupWindow_class@@SAXQAVpopupWindow@@@QAVwindow@@@H@Z 
01:00080870 ?onChildDialogMenu@popupWindow_class@@SAXQAVpopupWindow@@@QAVwindow@@@PBUmenuTag@vpiDomains@@@Z 
01:00080910 ?_onFrameNative@popupWindow_class@@SAXQAVpopupWindow@@@QAVwindow@@@IIHPAPAUnativeResponse_struct@window_class@@@Z 
01:00080B38 ?_onFrameEraseBackground@popupWindow_class@@SAXQAVpopupWindow@@@QAVdrawWindow@@@QAVwindowGDI@@@PAPAUeraseBackgroundResponse_struct@drawWindow_class@@@Z 
01:00080B4C ?onFrameSize@popupWindow_class@@SAXQAVpopupWindow@@@QAVwindow@@@@Z 
01:00080BB8 ?onFrameMove@popupWindow_class@@SAXQAVpopupWindow@@@QAVwindow@@@@Z 
01:00080BC4 ?updateUnitRect@popupWindow_class@@SAXQAVpopupWindow@@@@Z 
01:00080C18 ?tryRestoreRect@popupWindow_class@@SAXQAVpopupWindow@@@@Z 
01:00080C74 ?onFrameFocus@popupWindow_class@@SAXQAVpopupWindow@@@QAVwindow@@@@Z 
01:00080D00 ?initFocus@popupWindow_class@@SAXQAVpopupWindow@@@@Z 
01:00080E28 ?setInitFocus@popupWindow_class@@SAXQAVdialog@@@QAVcontrol@@@@Z 
01:00080EA4 ?_tryGetInitFocus@popupWindow_class@@SAXQAVdialog@@@PAPAVcontrol@@@@Z 
01:00080EDC ?_tryGetInitFocus_inner@popupWindow_class@@SAXQAVpopupWindow@@@PAPAVcontrol@@@@Z 
01:00080FC0 ?restroreDefaultButtonAndFocus@popupWindow_class@@SAXQAVpopupWindow@@@@Z 
01:000810C8 ?tryClearPreviousDefaultButton@popupWindow_class@@SAXQAVpopupWindow@@@@Z 
01:00081174 ?onFrameState@popupWindow_class@@SAXQAVpopupWindow@@@QAVwindow@@@PAUstateInfo_struct@vpiDomains_class@@@Z 
01:000811C0 ?setModal@popupWindow_class@@SAXQAVdialog@@@PAUboolean_struct@_builtIn_class@@@Z 
01:000811C8 ?setRect@popupWindow_class@@SAXQAVdialog@@@PAUrct_struct@vpiDomains_class@@@Z 
01:00081250 ?moveFormWindow@popupWindow_class@@SAXQAVpopupWindow@@@@Z 
01:000812D0 ?_getRect@popupWindow_class@@SAXQAVdialog@@@PAPAUrct_struct@vpiDomains_class@@@Z 
01:000812E4 ?suspendLayout@popupWindow_class@@SAXQAVdialog@@@@Z 
01:00081318 ?resumeLayout@popupWindow_class@@SAXQAVdialog@@@@Z 
01:0008139C ?_onInternalDialogClose@popupWindow_class@@SAXQAVpopupWindow@@@QAVwindow@@@PAPAUcloseResponse_struct@frameDecoration_class@@@Z 
01:000813C0 ?defaultMeasureSizeResponder@popupWindow_class@@SAXQAVpopupWindow@@@0PAHPAH@Z 
01:000813DC ?_getRctArea@popupWindow_class@@SAXQAVpopupWindow@@@PAUrct_struct@vpiDomains_class@@PAH@Z 
01:00081420 ?getOrientationVector@popupWindow_class@@SAXQAVpopupWindow@@@PAUorientation_struct@1@PAHPAH@Z 
01:00081478 ?_layoutOrigo@popupWindow_class@@SAXQAVpopupWindow@@@PAUorigo_struct@1@HHPAPAUrct_struct@vpiDomains_class@@@Z 
01:00081564 ?_anonymous$1$layout/0@popupWindow_class@@SAXPAUtuple_struct@core_class@@HPBUpositive@@PAUrct_struct@vpiDomains_class@@0PAPAUcompareResult_struct@_builtIn_class@@@Z 
01:000815F0 ?layout@popupWindow_class@@SAXQAVpopupWindow@@@@Z 
01:000817B8 ?_new@popupWindow_class@@SAXPAPAVpopupWindow@@@@Z  (Idle)
01:000817E0 ?_object_facts_initializer@popupWindow_class@@SGXQAVpopupWindow@@@@Z 
01:0008182C ?_frameWindow@popupWindow_class@@SAXQAVpopupWindow@@@PAPAVdrawWindow@@@@Z 
01:00081840 ?origoList@popupWindow_class@@SAXQAVpopupWindow@@@PAU?$__list_struct@Uorigo@@@@@Z 
01:00081854 ?_origoList@popupWindow_class@@SAXQAVpopupWindow@@@PAPAU?$__list_struct@Uorigo@@@@@Z 
01:00081868 ?measureSizeResponder@popupWindow_class@@SAXQAVpopupWindow@@@X@Z 
01:0008187C ?_measureSizeResponder@popupWindow_class@@SAXQAVpopupWindow@@@PAX@Z 
01:000818A4 ?handlePaint@popupWindow_class@@SAXQAVdrawWindowExtension@@@QAVdrawWindow@@@PAUrct_struct@vpiDomains_class@@QAVwindowGDI@@@@Z 
01:000818C0 ?_handleEraseBackground@popupWindow_class@@SAXQAVdrawWindowExtension@@@QAVdrawWindow@@@PAPAUeraseBackgroundResponse_struct@drawWindow_class@@@Z 
01:000818DC ?handleMouseDown@popupWindow_class@@SAXQAVdrawWindowExtension@@@QAVdrawWindow@@@PAUpnt_struct@vpiDomains_class@@PBUkeyModifier@vpiDomains@@H@Z 
01:000818F8 ?handleMouseUp@popupWindow_class@@SAXQAVdrawWindowExtension@@@QAVdrawWindow@@@PAUpnt_struct@vpiDomains_class@@PBUkeyModifier@vpiDomains@@H@Z 
01:00081914 ?handleMouseMove@popupWindow_class@@SAXQAVdrawWindowExtension@@@QAVdrawWindow@@@PAUpnt_struct@vpiDomains_class@@PBUkeyModifier@vpiDomains@@PAU?$__list_struct@Uinteger@@@@@Z 
01:00081930 ?handleMouseDbl@popupWindow_class@@SAXQAVdrawWindowExtension@@@QAVdrawWindow@@@PAUpnt_struct@vpiDomains_class@@PBUkeyModifier@vpiDomains@@H@Z 
01:0008194C ?_handleChar@popupWindow_class@@SAXQAVdrawWindowExtension@@@QAVdrawWindow@@@HPBUkeyModifier@vpiDomains@@PAPAUcharResponse_struct@drawWindow_class@@@Z 
01:00081968 ?_handleKeyDown@popupWindow_class@@SAXQAVdrawWindowExtension@@@QAVdrawWindow@@@HPBUkeyModifier@vpiDomains@@PAPAUkeyDownResponse_struct@drawWindow_class@@@Z 
01:00081984 ?_handleKeyUp@popupWindow_class@@SAXQAVdrawWindowExtension@@@QAVdrawWindow@@@HPBUkeyModifier@vpiDomains@@PAPAUkeyUpResponse_struct@drawWindow_class@@@Z 
01:000819A0 ?handleVScroll@popupWindow_class@@SAXQAVdrawWindowExtension@@@QAVdrawWindow@@@PBUscrollCode@vpiDomains@@H@Z 
01:000819BC ?handleHScroll@popupWindow_class@@SAXQAVdrawWindowExtension@@@QAVdrawWindow@@@PBUscrollCode@vpiDomains@@H@Z 
01:000819D8 ?handleShow@popupWindow_class@@SAXQAVwindowExtension@@@QAVwindow@@@H@Z 
01:000819F0 ?handleDestroy@popupWindow_class@@SAXQAVwindowExtension@@@QAVwindow@@@@Z 
01:00081A0C ?handleSize@popupWindow_class@@SAXQAVwindowExtension@@@QAVwindow@@@HH@Z 
01:00081A28 ?handleMove@popupWindow_class@@SAXQAVwindowExtension@@@QAVwindow@@@HH@Z 
01:00081A44 ?handleFocus@popupWindow_class@@SAXQAVwindowExtension@@@QAVwindow@@@@Z 
01:00081A60 ?handleLoseFocus@popupWindow_class@@SAXQAVwindowExtension@@@QAVwindow@@@@Z 
01:00081A7C ?handleMenuCommand@popupWindow_class@@SAXQAVwindowExtension@@@QAVwindow@@@PBUmenuTag@vpiDomains@@@Z 
01:00081A98 ?handleTimer@popupWindow_class@@SAXQAVwindowExtension@@@QAVwindow@@@PBUtimerId@vpiDomains@@@Z 
01:00081AB4 ?_handleNative@popupWindow_class@@SAXQAVwindowExtension@@@QAVwindow@@@IIHPAPAUnativeResponse_struct@window_class@@@Z 
01:00081AD0 ?handleUser@popupWindow_class@@SAXQAVwindowExtension@@@QAVwindow@@@HH@Z 
01:00081AEC ?handleStateChange@popupWindow_class@@SAXQAVwindowExtension@@@QAVwindow@@@PAUstateInfo_struct@vpiDomains_class@@@Z 
01:00081B08 ?getScrollRange@popupWindow_class@@SAXQAVdrawWindow@@@PBUscrollType@vpiDomains@@PAHPAH@Z 
01:00081B24 ?setScrollRange@popupWindow_class@@SAXQAVdrawWindow@@@PBUscrollType@vpiDomains@@HH@Z 
01:00081B40 ?_getScrollPos@popupWindow_class@@SAXQAVdrawWindow@@@PBUscrollType@vpiDomains@@PAH@Z 
01:00081B5C ?setScrollPos@popupWindow_class@@SAXQAVdrawWindow@@@PBUscrollType@vpiDomains@@H@Z 
01:00081B78 ?_getScrollProportion@popupWindow_class@@SAXQAVdrawWindow@@@PBUscrollType@vpiDomains@@PAI@Z 
01:00081B94 ?setScrollProportion@popupWindow_class@@SAXQAVdrawWindow@@@PBUscrollType@vpiDomains@@I@Z 
01:00081BB0 ?_getScrollBarInfo@popupWindow_class@@SAXQAVdrawWindow@@@PBUscrollType@vpiDomains@@PAPAUscrollBarInfo_struct@drawWindow_class@@@Z 
01:00081BCC ?_getScrollInfo@popupWindow_class@@SAXQAVdrawWindow@@@PBUscrollType@vpiDomains@@PAPAUscrollInfo_struct@drawWindow_class@@@Z 
01:00081BE8 ?addVScrollListener@popupWindow_class@@SAXQAVdrawWindow@@@X@Z 
01:00081C04 ?removeVScrollListener@popupWindow_class@@SAXQAVdrawWindow@@@X@Z 
01:00081C20 ?addHScrollListener@popupWindow_class@@SAXQAVdrawWindow@@@X@Z 
01:00081C3C ?removeHScrollListener@popupWindow_class@@SAXQAVdrawWindow@@@X@Z 
01:00081C58 ?destroy@popupWindow_class@@SAXQAVwindow@@@@Z 
01:00081C74 ?close@popupWindow_class@@SAXQAVwindow@@@@Z 
01:00081C90 ?_getParent@popupWindow_class@@SAXQAVwindow@@@PAPAV2@@@Z 
01:00081CAC ?setParent@popupWindow_class@@SAXQAVwindow@@@0@Z 
01:00081CC8 ?_getText@popupWindow_class@@SAXQAVwindow@@@PAPB_W@Z 
01:00081CE4 ?setText@popupWindow_class@@SAXQAVwindow@@@PB_W@Z 
01:00081D00 ?_getOuterRect@popupWindow_class@@SAXQAVwindow@@@PAPAUrct_struct@vpiDomains_class@@@Z 
01:00081D1C ?setOuterRect@popupWindow_class@@SAXQAVwindow@@@PAUrct_struct@vpiDomains_class@@@Z 
01:00081D38 ?setClientRect@popupWindow_class@@SAXQAVwindow@@@PAUrct_struct@vpiDomains_class@@@Z 
01:00081D54 ?getClientRect@popupWindow_class@@SAXQAVwindow@@@PAPAUrct_struct@vpiDomains_class@@@Z 
01:00081D70 ?center@popupWindow_class@@SAXQAVwindow@@@@Z 
01:00081D8C ?center@popupWindow_class@@SAXQAVwindow@@@PAUrct_struct@vpiDomains_class@@@Z 
01:00081DA8 ?centerTo@popupWindow_class@@SAXQAVwindow@@@0@Z 
01:00081DC4 ?addMoveListener@popupWindow_class@@SAXQAVwindow@@@X@Z 
01:00081DE0 ?removeMoveListener@popupWindow_class@@SAXQAVwindow@@@X@Z 
01:00081DFC ?setFocus@popupWindow_class@@SAXQAVwindow@@@@Z 
01:00081E18 ?setActive@popupWindow_class@@SAXQAVwindow@@@@Z 
01:00081E34 ?setIcon@popupWindow_class@@SAXQAVwindow@@@PBUresid@vpiDomains@@@Z 
01:00081E50 ?menuPopUp@popupWindow_class@@SAXQAVwindow@@@PAUmenu_struct@vpiDomains_class@@PAUpnt_struct@4@PBUmenuAlign@vpiDomains@@@Z 
01:00081E6C ?addMenuItemListener@popupWindow_class@@SAXQAVwindow@@@X@Z 
01:00081E88 ?addMenuItemListener@popupWindow_class@@SAXQAVwindow@@@PBUmenuTag@vpiDomains@@X@Z 
01:00081EA4 ?removeMenuItemListener@popupWindow_class@@SAXQAVwindow@@@X@Z 
01:00081EC0 ?_getState@popupWindow_class@@SAXQAVwindow@@@PAPAU?$__list_struct@Uwsflag@@@@@Z 
01:00081EDC ?setState@popupWindow_class@@SAXQAVwindow@@@PAU?$__list_struct@Uwsflag@@@@@Z 
01:00081EF8 ?setEnabled@popupWindow_class@@SAXQAVwindow@@@@Z 
01:00081F14 ?setEnabled@popupWindow_class@@SAXQAVwindow@@@PAUboolean_struct@_builtIn_class@@@Z 
01:00081F30 ?getEnabled@popupWindow_class@@SAXQAVwindow@@@PAPAUboolean_struct@_builtIn_class@@@Z 
01:00081F4C ?setVisible@popupWindow_class@@SAXQAVwindow@@@@Z 
01:00081F68 ?setVisible@popupWindow_class@@SAXQAVwindow@@@PAUboolean_struct@_builtIn_class@@@Z 
01:00081F84 ?getVisible@popupWindow_class@@SAXQAVwindow@@@PAPAUboolean_struct@_builtIn_class@@@Z 
01:00081FA0 ?clearState@popupWindow_class@@SAXQAVwindow@@@PAU?$__list_struct@Uwsflag@@@@@Z 
01:00081FBC ?classInfo@pictureCanvas_class@@SAXPAPB_W0@Z  (Idle)
01:00081FD8 ?new@pictureCanvas_class@@SAXQAVpictureCanvas@@@@Z 
01:0008200C ?new@pictureCanvas_class@@SAXQAVpictureCanvas@@@PBUpositive@@1@Z 
01:000820A8 ?_getPicture@pictureCanvas_class@@SAXQAVpictureCanvas@@@AAUpicture@vpiDomains@@@Z 
01:00082100 ?setSize@pictureCanvas_class@@SAXQAVpictureCanvas@@@PBUpositive@@1@Z 
01:0008220C ?getSize@pictureCanvas_class@@SAXQAVpictureCanvas@@@AAUpositive@@1@Z 
01:00082228 ?_getWidth@pictureCanvas_class@@SAXQAVpictureCanvas@@@AAUpositive@@@Z 
01:0008223C ?setWidth@pictureCanvas_class@@SAXQAVpictureCanvas@@@PBUpositive@@@Z 
01:0008226C ?_getHeight@pictureCanvas_class@@SAXQAVpictureCanvas@@@AAUpositive@@@Z 
01:00082280 ?setHeight@pictureCanvas_class@@SAXQAVpictureCanvas@@@PBUpositive@@@Z 
01:000822B0 ?setMapScale@pictureCanvas_class@@SAXQAVpictureCanvas@@@PAUpnt_struct@vpiDomains_class@@111@Z 
01:000822E0 ?getMapScale@pictureCanvas_class@@SAXQAVpictureCanvas@@@PAPAUpnt_struct@vpiDomains_class@@111@Z 
01:00082310 ?setMapMode@pictureCanvas_class@@SAXQAVpictureCanvas@@@PBUmapmode@vpiDomains@@@Z 
01:00082340 ?_getMapMode@pictureCanvas_class@@SAXQAVpictureCanvas@@@AAUmapmode@vpiDomains@@@Z 
01:00082370 ?setClip@pictureCanvas_class@@SAXQAVpictureCanvas@@@PAUrct_struct@vpiDomains_class@@@Z 
01:000823A0 ?_getClip@pictureCanvas_class@@SAXQAVpictureCanvas@@@PAPAUrct_struct@vpiDomains_class@@@Z 
01:000823D0 ?setFont@pictureCanvas_class@@SAXQAVwindowGDI@@@PBUfont@vpiDomains@@@Z 
01:00082400 ?_getFont@pictureCanvas_class@@SAXQAVwindowGDI@@@AAUfont@vpiDomains@@@Z 
01:00082430 ?_new@pictureCanvas_class@@SAXPAPAVpictureCanvas@@@@Z  (Idle)
01:00082458 ?_new@pictureCanvas_class@@SAXPBUpositive@@0PAPAVpictureCanvas@@@@Z  (Idle)
01:00082484 ?_object_facts_initializer@pictureCanvas_class@@SGXQAVpictureCanvas@@@@Z 
01:000824A0 ?_convertLPtoDP@pictureCanvas_class@@SAXQAVdrawWindow@@@PAU?$__list_struct@Upnt@@@@PAPAU?$__list_struct@U3@@@@Z 
01:000824D0 ?_convertDPtoLP@pictureCanvas_class@@SAXQAVdrawWindow@@@PAU?$__list_struct@Upnt@@@@PAPAU?$__list_struct@U3@@@@Z 
01:00082500 ?getScrollRange@pictureCanvas_class@@SAXQAVdrawWindow@@@PBUscrollType@vpiDomains@@PAHPAH@Z 
01:00082530 ?setScrollRange@pictureCanvas_class@@SAXQAVdrawWindow@@@PBUscrollType@vpiDomains@@HH@Z 
01:00082560 ?_getScrollPos@pictureCanvas_class@@SAXQAVdrawWindow@@@PBUscrollType@vpiDomains@@PAH@Z 
01:00082590 ?setScrollPos@pictureCanvas_class@@SAXQAVdrawWindow@@@PBUscrollType@vpiDomains@@H@Z 
01:000825C0 ?_getScrollProportion@pictureCanvas_class@@SAXQAVdrawWindow@@@PBUscrollType@vpiDomains@@PAI@Z 
01:000825F0 ?setScrollProportion@pictureCanvas_class@@SAXQAVdrawWindow@@@PBUscrollType@vpiDomains@@I@Z 
01:00082620 ?scroll@pictureCanvas_class@@SAXQAVdrawWindow@@@PAUrct_struct@vpiDomains_class@@HH@Z 
01:00082650 ?scroll@pictureCanvas_class@@SAXQAVdrawWindow@@@PAUrct_struct@vpiDomains_class@@HHI@Z 
01:00082680 ?_getScrollBarInfo@pictureCanvas_class@@SAXQAVdrawWindow@@@PBUscrollType@vpiDomains@@PAPAUscrollBarInfo_struct@drawWindow_class@@@Z 
01:000826B0 ?_getScrollInfo@pictureCanvas_class@@SAXQAVdrawWindow@@@PBUscrollType@vpiDomains@@PAPAUscrollInfo_struct@drawWindow_class@@@Z 
01:000826E0 ?addVScrollListener@pictureCanvas_class@@SAXQAVdrawWindow@@@X@Z 
01:00082710 ?removeVScrollListener@pictureCanvas_class@@SAXQAVdrawWindow@@@X@Z 
01:00082740 ?addHScrollListener@pictureCanvas_class@@SAXQAVdrawWindow@@@X@Z 
01:00082770 ?removeHScrollListener@pictureCanvas_class@@SAXQAVdrawWindow@@@X@Z 
01:000827A0 ?setPaintResponder@pictureCanvas_class@@SAXQAVdrawWindow@@@X@Z 
01:000827D0 ?_getPaintResponder@pictureCanvas_class@@SAXQAVdrawWindow@@@PAX@Z 
01:00082800 ?resetPaintResponder@pictureCanvas_class@@SAXQAVdrawWindow@@@@Z 
01:00082830 ?update@pictureCanvas_class@@SAXQAVdrawWindow@@@@Z 
01:00082860 ?validateRect@pictureCanvas_class@@SAXQAVdrawWindow@@@PAUrct_struct@vpiDomains_class@@@Z 
01:00082890 ?needsUpdate@pictureCanvas_class@@SAXQAVdrawWindow@@@PAUrct_struct@vpiDomains_class@@@Z 
01:000828C0 ?invalidate@pictureCanvas_class@@SAXQAVdrawWindow@@@@Z 
01:000828F0 ?invalidate@pictureCanvas_class@@SAXQAVdrawWindow@@@PAUrct_struct@vpiDomains_class@@@Z 
01:00082920 ?_getInvalidRect@pictureCanvas_class@@SAXQAVdrawWindow@@@PAPAUrct_struct@vpiDomains_class@@@Z 
01:00082950 ?setEraseBackgroundResponder@pictureCanvas_class@@SAXQAVdrawWindow@@@X@Z 
01:00082980 ?_getEraseBackgroundResponder@pictureCanvas_class@@SAXQAVdrawWindow@@@PAX@Z 
01:000829B0 ?resetEraseBackgroundResponder@pictureCanvas_class@@SAXQAVdrawWindow@@@@Z 
01:000829E0 ?getWindowGDI@pictureCanvas_class@@SAXQAVdrawWindow@@@PAPAVwindowGDI@@@@Z 
01:00082A10 ?captureMouse@pictureCanvas_class@@SAXQAVdrawWindow@@@@Z 
01:00082A40 ?releaseMouse@pictureCanvas_class@@SAXQAVdrawWindow@@@@Z 
01:00082A70 ?addMouseDownListener@pictureCanvas_class@@SAXQAVdrawWindow@@@X@Z 
01:00082AA0 ?removeMouseDownListener@pictureCanvas_class@@SAXQAVdrawWindow@@@X@Z 
01:00082AD0 ?addMouseUpListener@pictureCanvas_class@@SAXQAVdrawWindow@@@X@Z 
01:00082B00 ?removeMouseUpListener@pictureCanvas_class@@SAXQAVdrawWindow@@@X@Z 
01:00082B30 ?addMouseDblListener@pictureCanvas_class@@SAXQAVdrawWindow@@@X@Z 
01:00082B60 ?removeMouseDblListener@pictureCanvas_class@@SAXQAVdrawWindow@@@X@Z 
01:00082B90 ?addMouseMoveListener@pictureCanvas_class@@SAXQAVdrawWindow@@@X@Z 
01:00082BC0 ?removeMouseMoveListener@pictureCanvas_class@@SAXQAVdrawWindow@@@X@Z 
01:00082BF0 ?setCharResponder@pictureCanvas_class@@SAXQAVdrawWindow@@@X@Z 
01:00082C20 ?_getCharResponder@pictureCanvas_class@@SAXQAVdrawWindow@@@PAX@Z 
01:00082C50 ?resetCharResponder@pictureCanvas_class@@SAXQAVdrawWindow@@@@Z 
01:00082C80 ?setKeyDownResponder@pictureCanvas_class@@SAXQAVdrawWindow@@@X@Z 
01:00082CB0 ?_getKeyDownResponder@pictureCanvas_class@@SAXQAVdrawWindow@@@PAX@Z 
01:00082CE0 ?resetKeyDownResponder@pictureCanvas_class@@SAXQAVdrawWindow@@@@Z 
01:00082D10 ?setKeyUpResponder@pictureCanvas_class@@SAXQAVdrawWindow@@@X@Z 
01:00082D40 ?_getKeyUpResponder@pictureCanvas_class@@SAXQAVdrawWindow@@@PAX@Z 
01:00082D70 ?resetKeyUpResponder@pictureCanvas_class@@SAXQAVdrawWindow@@@@Z 
01:00082DA0 ?setCaretSize@pictureCanvas_class@@SAXQAVdrawWindow@@@PBUpositive@@1@Z 
01:00082DD0 ?setCaret@pictureCanvas_class@@SAXQAVdrawWindow@@@PAUpnt_struct@vpiDomains_class@@PBUpositive@@2@Z 
01:00082E00 ?setCaret@pictureCanvas_class@@SAXQAVdrawWindow@@@PAUpnt_struct@vpiDomains_class@@@Z 
01:00082E30 ?hideCaret@pictureCanvas_class@@SAXQAVdrawWindow@@@@Z 
01:00082E60 ?_getDefaultDrawWindowExtension@pictureCanvas_class@@SAXQAVdrawWindow@@@PAPAVdrawWindowExtension@@@@Z 
01:00082E90 ?_getDrawWindowExtension@pictureCanvas_class@@SAXQAVdrawWindow@@@PAPAVdrawWindowExtension@@@@Z 
01:00082EC0 ?setDrawWindowExtension@pictureCanvas_class@@SAXQAVdrawWindow@@@QAVdrawWindowExtension@@@@Z 
01:00082EF0 ?setBackColor@pictureCanvas_class@@SAXQAVwindowGDI@@@PBUcolor@@@Z 
01:00082F08 ?_getBackColor@pictureCanvas_class@@SAXQAVwindowGDI@@@AAUcolor@@@Z 
01:00082F24 ?setForeColor@pictureCanvas_class@@SAXQAVwindowGDI@@@PBUcolor@@@Z 
01:00082F40 ?_getForeColor@pictureCanvas_class@@SAXQAVwindowGDI@@@AAUcolor@@@Z 
01:00082F5C ?setBackMode@pictureCanvas_class@@SAXQAVwindowGDI@@@PBUbk_mode@@@Z 
01:00082F78 ?_getBackMode@pictureCanvas_class@@SAXQAVwindowGDI@@@AAUbk_mode@@@Z 
01:00082F94 ?_getPen@pictureCanvas_class@@SAXQAVwindowGDI@@@PAPAUpen_struct@vpiDomains_class@@@Z 
01:00082FB0 ?setPen@pictureCanvas_class@@SAXQAVwindowGDI@@@PAUpen_struct@vpiDomains_class@@@Z 
01:00082FCC ?_getBrush@pictureCanvas_class@@SAXQAVwindowGDI@@@PAPAUbrush_struct@vpiDomains_class@@@Z 
01:00082FE8 ?setBrush@pictureCanvas_class@@SAXQAVwindowGDI@@@PAUbrush_struct@vpiDomains_class@@@Z 
01:00083004 ?_getDrawTools@pictureCanvas_class@@SAXQAVwindowGDI@@@PAPAUdrawtools_struct@vpiDomains_class@@@Z 
01:00083020 ?setDrawTools@pictureCanvas_class@@SAXQAVwindowGDI@@@PAUdrawtools_struct@vpiDomains_class@@@Z 
01:0008303C ?clear@pictureCanvas_class@@SAXQAVwindowGDI@@@PBUcolor@@@Z 
01:00083058 ?clear@pictureCanvas_class@@SAXQAVwindowGDI@@@PAUrct_struct@vpiDomains_class@@PBUcolor@@@Z 
01:00083074 ?_getDrawMode@pictureCanvas_class@@SAXQAVwindowGDI@@@AAUdrawMode@@@Z 
01:00083090 ?setDrawMode@pictureCanvas_class@@SAXQAVwindowGDI@@@PBUdrawMode@@@Z 
01:000830AC ?_getNativeGraphicContext@pictureCanvas_class@@SAXQAVwindowGDI@@@PAPAUboolean_struct@_builtIn_class@@AAUhandle@@@Z 
01:000830C8 ?releaseNativeGraphicContext@pictureCanvas_class@@SAXQAVwindowGDI@@@PBUhandle@@PAUboolean_struct@_builtIn_class@@@Z 
01:000830E4 ?_getPixelColor@pictureCanvas_class@@SAXQAVwindowGDI@@@PAUpnt_struct@vpiDomains_class@@AAUcolor@@@Z 
01:00083100 ?getTextExtent@pictureCanvas_class@@SAXQAVwindowGDI@@@PB_WAAUpositive@@2@Z 
01:0008311C ?getTextExtent@pictureCanvas_class@@SAXQAVwindowGDI@@@PB_WPBUcharCountOptional@@AAUpositive@@3@Z 
01:00083138 ?drawTextInRect@pictureCanvas_class@@SAXQAVwindowGDI@@@PAUrct_struct@vpiDomains_class@@PB_WPAU?$__list_struct@Uinteger@@@@@Z 
01:00083154 ?drawTextInRect@pictureCanvas_class@@SAXQAVwindowGDI@@@PAUrct_struct@vpiDomains_class@@PB_WPBUcharCountOptional@@PAU?$__list_struct@Uinteger@@@@@Z 
01:00083170 ?drawText@pictureCanvas_class@@SAXQAVwindowGDI@@@PAUpnt_struct@vpiDomains_class@@PB_WPBUcharCountOptional@@@Z 
01:0008318C ?drawText@pictureCanvas_class@@SAXQAVwindowGDI@@@PAUpnt_struct@vpiDomains_class@@PB_W@Z 
01:000831A8 ?drawRoundRect@pictureCanvas_class@@SAXQAVwindowGDI@@@PAUrct_struct@vpiDomains_class@@HH@Z 
01:000831C4 ?drawRect@pictureCanvas_class@@SAXQAVwindowGDI@@@PAUrct_struct@vpiDomains_class@@@Z 
01:000831E0 ?drawFocusRect@pictureCanvas_class@@SAXQAVwindowGDI@@@PAUrct_struct@vpiDomains_class@@@Z 
01:000831FC ?drawPolyline@pictureCanvas_class@@SAXQAVwindowGDI@@@PAU?$__list_struct@Upnt@@@@@Z 
01:00083218 ?drawPolygon@pictureCanvas_class@@SAXQAVwindowGDI@@@PAU?$__list_struct@Upnt@@@@@Z 
01:00083234 ?drawPixel@pictureCanvas_class@@SAXQAVwindowGDI@@@PAUpnt_struct@vpiDomains_class@@PBUcolor@@@Z 
01:00083250 ?drawPie@pictureCanvas_class@@SAXQAVwindowGDI@@@PAUrct_struct@vpiDomains_class@@PAUpnt_struct@4@2@Z 
01:0008326C ?drawLine@pictureCanvas_class@@SAXQAVwindowGDI@@@PAUpnt_struct@vpiDomains_class@@1@Z 
01:00083288 ?drawIcon@pictureCanvas_class@@SAXQAVwindowGDI@@@PAUpnt_struct@vpiDomains_class@@PBUresid@@@Z 
01:000832A4 ?drawFloodFill@pictureCanvas_class@@SAXQAVwindowGDI@@@PAUpnt_struct@vpiDomains_class@@PBUcolor@@@Z 
01:000832C0 ?drawEllipse@pictureCanvas_class@@SAXQAVwindowGDI@@@PAUrct_struct@vpiDomains_class@@@Z 
01:000832DC ?drawArc@pictureCanvas_class@@SAXQAVwindowGDI@@@PAUrct_struct@vpiDomains_class@@PAUpnt_struct@4@2@Z 
01:000832F8 ?pictDraw@pictureCanvas_class@@SAXQAVwindowGDI@@@PBUpicture@@PAUpnt_struct@vpiDomains_class@@PBUrop@@@Z 
01:00083314 ?pictDraw@pictureCanvas_class@@SAXQAVwindowGDI@@@PBUpicture@@PAUrct_struct@vpiDomains_class@@2PBUrop@@@Z 
01:00083330 ?getFontMetrics@pictureCanvas_class@@SAXQAVwindowGDI@@@AAUpositive@@11@Z 
01:0008334C ?show@pictureCanvas_class@@SAXQAVwindow@@@@Z 
01:00083378 ?addShowListener@pictureCanvas_class@@SAXQAVwindow@@@X@Z 
01:000833A8 ?removeShowListener@pictureCanvas_class@@SAXQAVwindow@@@X@Z 
01:000833D8 ?isShown@pictureCanvas_class@@SAXQAVwindow@@@@Z 
01:00083408 ?initialize@pictureCanvas_class@@SAXQAVwindow@@@@Z 
01:00083438 ?isInitializing@pictureCanvas_class@@SAXQAVwindow@@@@Z 
01:00083468 ?destroy@pictureCanvas_class@@SAXQAVwindow@@@@Z 
01:00083498 ?isDestroying@pictureCanvas_class@@SAXQAVwindow@@@@Z 
01:000834C8 ?addDestroyListener@pictureCanvas_class@@SAXQAVwindow@@@X@Z 
01:000834F8 ?removeDestroyListener@pictureCanvas_class@@SAXQAVwindow@@@X@Z 
01:00083528 ?close@pictureCanvas_class@@SAXQAVwindow@@@@Z 
01:00083558 ?_getParent@pictureCanvas_class@@SAXQAVwindow@@@PAPAV2@@@Z 
01:00083588 ?setParent@pictureCanvas_class@@SAXQAVwindow@@@0@Z 
01:000835B8 ?_getDialogParent@pictureCanvas_class@@SAXQAVwindow@@@PAPAVdialog@@@@Z 
01:000835E8 $getDialogs$pictureCanvas$predicate$(i,o)$c$_m15 
01:00083618 $getChildWindows$pictureCanvas$predicate$(i,o)$c$_m16 
01:00083648 ?isChild@pictureCanvas_class@@SAXQAVwindow@@@0@Z 
01:00083678 ?_getText@pictureCanvas_class@@SAXQAVwindow@@@PAPB_W@Z 
01:000836A8 ?setText@pictureCanvas_class@@SAXQAVwindow@@@PB_W@Z 
01:000836D8 ?_getOuterRect@pictureCanvas_class@@SAXQAVwindow@@@PAPAUrct_struct@vpiDomains_class@@@Z 
01:00083708 ?setOuterRect@pictureCanvas_class@@SAXQAVwindow@@@PAUrct_struct@vpiDomains_class@@@Z 
01:00083738 ?setClientRect@pictureCanvas_class@@SAXQAVwindow@@@PAUrct_struct@vpiDomains_class@@@Z 
01:00083768 ?_getClientRect@pictureCanvas_class@@SAXQAVwindow@@@PAPAUrct_struct@vpiDomains_class@@@Z 
01:00083798 ?getClientSize@pictureCanvas_class@@SAXQAVwindow@@@PAHPAH@Z 
01:000837C8 ?_adjustRectEx@pictureCanvas_class@@SAXQAVwindow@@@PAUrct_struct@vpiDomains_class@@PAPAU34@@Z 
01:000837F8 ?center@pictureCanvas_class@@SAXQAVwindow@@@@Z 
01:00083828 ?center@pictureCanvas_class@@SAXQAVwindow@@@PAUrct_struct@vpiDomains_class@@@Z 
01:00083858 ?centerTo@pictureCanvas_class@@SAXQAVwindow@@@0@Z 
01:00083888 ?addSizeListener@pictureCanvas_class@@SAXQAVwindow@@@X@Z 
01:000838B8 ?removeSizeListener@pictureCanvas_class@@SAXQAVwindow@@@X@Z 
01:000838E8 ?addMoveListener@pictureCanvas_class@@SAXQAVwindow@@@X@Z 
01:00083918 ?removeMoveListener@pictureCanvas_class@@SAXQAVwindow@@@X@Z 
01:00083948 ?_mapPointsTo@pictureCanvas_class@@SAXQAVwindow@@@0PAU?$__list_struct@Upnt@@@@PAPAU?$__list_struct@U4@@@@Z 
01:00083978 ?_mapPointTo@pictureCanvas_class@@SAXQAVwindow@@@0PAUpnt_struct@vpiDomains_class@@PAPAU45@@Z 
01:000839A8 ?setFocus@pictureCanvas_class@@SAXQAVwindow@@@@Z 
01:000839D8 ?addGetFocusListener@pictureCanvas_class@@SAXQAVwindow@@@X@Z 
01:00083A08 ?removeGetFocusListener@pictureCanvas_class@@SAXQAVwindow@@@X@Z 
01:00083A38 ?addLoseFocusListener@pictureCanvas_class@@SAXQAVwindow@@@X@Z 
01:00083A68 ?removeLoseFocusListener@pictureCanvas_class@@SAXQAVwindow@@@X@Z 
01:00083A98 ?setActive@pictureCanvas_class@@SAXQAVwindow@@@@Z 
01:00083AC8 ?bringToTop@pictureCanvas_class@@SAXQAVwindow@@@@Z 
01:00083AF8 ?setIcon@pictureCanvas_class@@SAXQAVwindow@@@PBUresid@vpiDomains@@@Z 
01:00083B28 ?menuPopUp@pictureCanvas_class@@SAXQAVwindow@@@PAUmenu_struct@vpiDomains_class@@PAUpnt_struct@4@PBUmenuAlign@vpiDomains@@@Z 
01:00083B58 ?addMenuItemListener@pictureCanvas_class@@SAXQAVwindow@@@X@Z 
01:00083B88 ?addMenuItemListener@pictureCanvas_class@@SAXQAVwindow@@@PBUmenuTag@vpiDomains@@X@Z 
01:00083BB8 ?removeMenuItemListener@pictureCanvas_class@@SAXQAVwindow@@@X@Z 
01:00083BE8 ?setContextMenuResponder@pictureCanvas_class@@SAXQAVwindow@@@X@Z 
01:00083C18 ?_getContextMenuResponder@pictureCanvas_class@@SAXQAVwindow@@@PAX@Z 
01:00083C48 ?resetContextMenuResponder@pictureCanvas_class@@SAXQAVwindow@@@@Z 
01:00083C78 ?cursorSet@pictureCanvas_class@@SAXQAVwindow@@@PBUcursor@vpiDomains@@@Z 
01:00083CA8 ?cursorSet@pictureCanvas_class@@SAXQAVwindow@@@PBUcursor@vpiDomains@@PAUboolean_struct@_builtIn_class@@@Z 
01:00083CD8 ?cursorSet@pictureCanvas_class@@SAXQAVwindow@@@PBUhModule@@PBUcursor@vpiDomains@@PAUboolean_struct@_builtIn_class@@@Z 
01:00083D08 ?_cursorGetPos@pictureCanvas_class@@SAXQAVwindow@@@PAPAUpnt_struct@vpiDomains_class@@@Z 
01:00083D38 ?_cursorGet@pictureCanvas_class@@SAXQAVwindow@@@AAUcursor@vpiDomains@@@Z 
01:00083D68 ?_getState@pictureCanvas_class@@SAXQAVwindow@@@PAPAU?$__list_struct@Uwsflag@@@@@Z 
01:00083D98 ?isFlagSet@pictureCanvas_class@@SAXQAVwindow@@@PBUwsflag@vpiDomains@@@Z 
01:00083DC8 ?setState@pictureCanvas_class@@SAXQAVwindow@@@PAU?$__list_struct@Uwsflag@@@@@Z 
01:00083DF8 ?setEnabled@pictureCanvas_class@@SAXQAVwindow@@@@Z 
01:00083E28 ?setEnabled@pictureCanvas_class@@SAXQAVwindow@@@PAUboolean_struct@_builtIn_class@@@Z 
01:00083E58 ?_getEnabled@pictureCanvas_class@@SAXQAVwindow@@@PAPAUboolean_struct@_builtIn_class@@@Z 
01:00083E88 ?setVisible@pictureCanvas_class@@SAXQAVwindow@@@@Z 
01:00083EB8 ?setVisible@pictureCanvas_class@@SAXQAVwindow@@@PAUboolean_struct@_builtIn_class@@@Z 
01:00083EE8 ?_getVisible@pictureCanvas_class@@SAXQAVwindow@@@PAPAUboolean_struct@_builtIn_class@@@Z 
01:00083F18 ?clearState@pictureCanvas_class@@SAXQAVwindow@@@PAU?$__list_struct@Uwsflag@@@@@Z 
01:00083F48 ?setMinimizeSize@pictureCanvas_class@@SAXQAVwindow@@@HH@Z 
01:00083F78 ?clearMinimizeSize@pictureCanvas_class@@SAXQAVwindow@@@@Z 
01:00083FA8 ?_timerSet@pictureCanvas_class@@SAXQAVwindow@@@PBUpositive@@AAUtimerId@vpiDomains@@@Z 
01:00083FD8 ?timerKill@pictureCanvas_class@@SAXQAVwindow@@@PBUtimerId@vpiDomains@@@Z 
01:00084008 ?addTimerListener@pictureCanvas_class@@SAXQAVwindow@@@X@Z 
01:00084038 ?removeTimerListener@pictureCanvas_class@@SAXQAVwindow@@@X@Z 
01:00084068 ?delayCall@pictureCanvas_class@@SAXQAVwindow@@@PBUpositive@@X@Z 
01:00084098 ?addNativeMessageHandler@pictureCanvas_class@@SAXQAVwindow@@@X@Z 
01:000840C8 ?removeNativeMessageHandler@pictureCanvas_class@@SAXQAVwindow@@@X@Z 
01:000840F8 ?addUserListener@pictureCanvas_class@@SAXQAVwindow@@@X@Z 
01:00084128 ?removeUserListener@pictureCanvas_class@@SAXQAVwindow@@@X@Z 
01:00084158 ?postAction@pictureCanvas_class@@SAXQAVwindow@@@X@Z 
01:00084188 ?addStateListener@pictureCanvas_class@@SAXQAVwindow@@@X@Z 
01:000841B8 ?removeStateListener@pictureCanvas_class@@SAXQAVwindow@@@X@Z 
01:000841E8 ?_tryGetVpiWindow@pictureCanvas_class@@SAXQAVwindow@@@AAUwindowHandle@vpiDomains@@@Z 
01:00084218 ?_getVpiWindow@pictureCanvas_class@@SAXQAVwindow@@@AAUwindowHandle@vpiDomains@@@Z 
01:00084248 ?_getData@pictureCanvas_class@@SAXQAVwindow@@@PAH@Z 
01:00084278 ?setData@pictureCanvas_class@@SAXQAVwindow@@@H@Z 
01:000842A8 ?_getClassName@pictureCanvas_class@@SAXQAVwindow@@@PAPB_W@Z 
01:000842D8 ?_getAttrVal@pictureCanvas_class@@SAXQAVwindow@@@HPAH@Z 
01:00084308 ?addHandler@pictureCanvas_class@@SAXQAVwindow@@@X@Z 
01:00084338 ?removeHandler@pictureCanvas_class@@SAXQAVwindow@@@X@Z 
01:00084368 ?setSubClassHandler@pictureCanvas_class@@SAXQAVwindow@@@XPAUboolean_struct@_builtIn_class@@@Z 
01:00084398 ?_sendEvent@pictureCanvas_class@@SAXQAVwindow@@@PAUevent_struct@vpiDomains_class@@PAH@Z 
01:000843C8 ?_sendEvent@pictureCanvas_class@@SAXQAVwindow@@@PAUevent_struct@vpiDomains_class@@PAUboolean_struct@_builtIn_class@@PAH@Z 
01:000843F8 ?postEvent@pictureCanvas_class@@SAXQAVwindow@@@PAUevent_struct@vpiDomains_class@@@Z 
01:00084428 ?postUserEvent@pictureCanvas_class@@SAXQAVwindow@@@HH@Z 
01:00084458 ?_getEventHandler@pictureCanvas_class@@SAXQAVwindow@@@PAX@Z 
01:00084488 ?unwrapVPIWin@pictureCanvas_class@@SAXQAVwindow@@@@Z 
01:000844B8 ?_getDefaultWindowExtension@pictureCanvas_class@@SAXQAVwindow@@@PAPAVwindowExtension@@@@Z 
01:000844E8 ?_getWindowExtension@pictureCanvas_class@@SAXQAVwindow@@@PAPAVwindowExtension@@@@Z 
01:00084518 ?setWindowExtension@pictureCanvas_class@@SAXQAVwindow@@@QAVwindowExtension@@@@Z 
01:00084548 ?whenCreated@pictureCanvas_class@@SAXQAVwindow@@@X@Z 
01:00084578 ?classInfo@gui_exception_class@@SAXPAPB_W0@Z 
01:00084594 ?raise_NoWindowException@gui_exception_class@@SAXX@Z 
01:000845B4 ?raise_InitializeException@gui_exception_class@@SAXX@Z 
01:000845D4 ?raise_TwiceAttachException@gui_exception_class@@SAXX@Z 
01:000845F4 ?raise_RemoveHandlerException@gui_exception_class@@SAXX@Z 
01:00084614 ?raise_ClearStateException@gui_exception_class@@SAXX@Z 
01:00084634 ?raise_ShowAfterDestroyException@gui_exception_class@@SAXX@Z 
01:00084654 ?raise_WindowIsWrappedException@gui_exception_class@@SAXXPBUwindowHandle@vpiDomains@@@Z 
01:000846C8 ?raise_WindowCannotBeWrappedException@gui_exception_class@@SAXXPBUwindowHandle@vpiDomains@@@Z 
01:0008473C ?raise_UnableToSetPropertyException@gui_exception_class@@SAXXPB_W@Z 
01:000847AC ?raise_ObjectAlreadyExistsException@gui_exception_class@@SAXX@Z 
01:000847CC ?raise_WrongButtonException@gui_exception_class@@SAXXQAVbutton@@@@Z 
01:0008484C ?raise_TryGetInitFocusAfterShowException@gui_exception_class@@SAXX@Z 
01:0008486C ?raise_CouldNotSetParentException@gui_exception_class@@SAXX@Z 
01:0008488C ?noWindow_exception@gui_exception_class@@SAXPAXPAPB_W1@Z 
01:000848B4 ?twiceAttach_exception@gui_exception_class@@SAXPAXPAPB_W1@Z 
01:000848DC ?showAfterDestroy_exception@gui_exception_class@@SAXPAXPAPB_W1@Z 
01:00084904 ?initializeWindow_exception@gui_exception_class@@SAXPAXPAPB_W1@Z 
01:0008492C ?clearStateAfterShow_exception@gui_exception_class@@SAXPAXPAPB_W1@Z 
01:00084954 ?windowIsAlreadyWrapped_exception@gui_exception_class@@SAXPAXPAPB_W1@Z 
01:0008497C ?windowCannotBeWrapped_exception@gui_exception_class@@SAXPAXPAPB_W1@Z 
01:000849A4 ?removeHandler_exception@gui_exception_class@@SAXPAXPAPB_W1@Z  (Idle)
01:000849CC ?unableToSetPropertyAfterShow_exception@gui_exception_class@@SAXPAXPAPB_W1@Z 
01:000849F4 ?objectAlreadyExists_exception@gui_exception_class@@SAXPAXPAPB_W1@Z 
01:00084A1C ?wrongButton_exception@gui_exception_class@@SAXPAXPAPB_W1@Z 
01:00084A44 ?tryGetInitFocusAfterShow_exception@gui_exception_class@@SAXPAXPAPB_W1@Z 
01:00084A6C ?couldNotSetParent_exception@gui_exception_class@@SAXPAXPAPB_W1@Z 
01:00084A94 ?classInfo@frameDecoration_class@@SAXPAPB_W0@Z 
01:00084AB0 ?new@frameDecoration_class@@SAXQAVframeDecoration@@@QAVwindow@@@@Z 
01:00084B04 ?setDecoration@frameDecoration_class@@SAXQAVframeDecoration@@@PAUdecoration_struct@1@@Z 
01:00084C70 ?_buttonListToStateList@frameDecoration_class@@SAXPAU?$__list_struct@UdecorationButton@@@@PAPAU?$__list_struct@Uwsflag@@@@@Z 
01:00084CE4 ?button_state@frameDecoration_class@@SAXPAUdecorationButton_struct@1@AAUwsflag@vpiDomains@@@Z 
01:00084D18 ?_getDecoration@frameDecoration_class@@SAXQAVframeDecoration@@@PAPAUdecoration_struct@1@@Z 
01:00084D4C ?_getDecoration@frameDecoration_class@@SAXPAU?$__list_struct@Uwsflag@@@@PAPAUdecoration_struct@1@@Z 
01:00084DF0 ?_stateListToButtonList@frameDecoration_class@@SAXPAU?$__list_struct@Uwsflag@@@@PAPAU?$__list_struct@UdecorationButton@@@@@Z 
01:00084E8C ?setBorder@frameDecoration_class@@SAXQAVframeDecoration@@@PAUborder_struct@1@@Z 
01:00084F2C ?_getBorder@frameDecoration_class@@SAXQAVframeDecoration@@@PAPAUborder_struct@1@@Z 
01:00084F9C ?border_state@frameDecoration_class@@SAXPAUborder_struct@1@AAUwsflag@vpiDomains@@@Z 
01:00084FD8 ?_defaultCloseResponder@frameDecoration_class@@SAXQAVframeDecoration@@@QAVwindow@@@PAPAUcloseResponse_struct@1@@Z 
01:00084FEC ?setCloseResponder@frameDecoration_class@@SAXQAVframeDecoration@@@X@Z 
01:00085000 ?_getCloseResponder@frameDecoration_class@@SAXQAVframeDecoration@@@PAX@Z 
01:00085014 ?resetCloseResponder@frameDecoration_class@@SAXQAVframeDecoration@@@@Z 
01:00085044 ?_handleClose@frameDecoration_class@@SAXQAVframeDecoration@@@PBUwindowHandle@@PAUevent_struct@vpiDomains_class@@PAH@Z 
01:000850A0 ?_new@frameDecoration_class@@SAXQAVwindow@@@PAPAVframeDecoration@@@@Z  (Idle)
01:000850C8 ?button_state@frameDecoration_class@@SAXPAPAUdecorationButton_struct@1@PBUwsflag@vpiDomains@@@Z 
01:00085108 ?border_state@frameDecoration_class@@SAXPAPAUborder_struct@1@PBUwsflag@vpiDomains@@@Z 
01:0008515C ?_object_facts_initializer@frameDecoration_class@@SGXQAVframeDecoration@@@@Z 
01:00085194 ?classInfo@formWindow_class@@SAXPAPB_W0@Z 
01:000851B0 ?new@formWindow_class@@SAXQAVformWindow@@@@Z 
--- From 'Obj\messagecontrol.obj'
01:000853EC ?new@formWindow_class@@SAXQAVformWindow@@@QAVwindow@@@@Z 
--- From 'Obj\gui.obj'
01:00085408 ?setFormWindowExtension@formWindow_class@@SAXQAVformWindow@@@QAVformWindowExtension@@@@Z 
01:0008543C ?_getFormWindowExtension@formWindow_class@@SAXQAVformWindow@@@PAPAVformWindowExtension@@@@Z 
01:00085450 ?_getDefaultFormWindowExtension@formWindow_class@@SAXQAVformWindow@@@PAPAVformWindowExtension@@@@Z 
01:00085464 ?show@formWindow_class@@SAXQAVwindow@@@@Z 
01:000854D4 ?onFrameShow@formWindow_class@@SAXQAVformWindow@@@QAVwindow@@@H@Z 
01:000856FC ?setRectIfRestored@formWindow_class@@SAXQAVformWindow@@@@Z 
01:000857A8 ?_getInitRect@formWindow_class@@SAXQAVformWindow@@@PAPAUrct_struct@vpiDomains_class@@@Z 
01:000859C4 ?onInnerDialogShow@formWindow_class@@SAXQAVformWindow@@@QAVwindow@@@H@Z 
01:00085A1C ?onChildDialogMenu@formWindow_class@@SAXQAVformWindow@@@QAVwindow@@@PBUmenuTag@vpiDomains@@@Z 
01:00085ABC ?_onFrameNative@formWindow_class@@SAXQAVformWindow@@@QAVwindow@@@IIHPAPAUnativeResponse_struct@window_class@@@Z 
01:00085D4C ?_onFrameEraseBackground@formWindow_class@@SAXQAVformWindow@@@QAVdrawWindow@@@QAVwindowGDI@@@PAPAUeraseBackgroundResponse_struct@drawWindow_class@@@Z 
01:00085D60 ?onFrameSize@formWindow_class@@SAXQAVformWindow@@@QAVwindow@@@@Z 
01:00085DCC ?onFrameMove@formWindow_class@@SAXQAVformWindow@@@QAVwindow@@@@Z 
01:00085DD8 ?updateUnitRect@formWindow_class@@SAXQAVformWindow@@@@Z 
01:00085E2C ?tryRestoreRect@formWindow_class@@SAXQAVformWindow@@@@Z 
01:00085E88 ?onFrameFocus@formWindow_class@@SAXQAVformWindow@@@QAVwindow@@@@Z 
01:00085F14 ?initFocus@formWindow_class@@SAXQAVformWindow@@@@Z 
01:0008603C ?setInitFocus@formWindow_class@@SAXQAVdialog@@@QAVcontrol@@@@Z 
01:000860B8 ?_tryGetInitFocus@formWindow_class@@SAXQAVdialog@@@PAPAVcontrol@@@@Z 
01:000860F0 ?_tryGetInitFocus_inner@formWindow_class@@SAXQAVformWindow@@@PAPAVcontrol@@@@Z 
01:000861D4 ?restroreDefaultButtonAndFocus@formWindow_class@@SAXQAVformWindow@@@@Z 
01:000862DC ?tryClearPreviousDefaultButton@formWindow_class@@SAXQAVformWindow@@@@Z 
01:00086388 ?onFrameState@formWindow_class@@SAXQAVformWindow@@@QAVwindow@@@PAUstateInfo_struct@vpiDomains_class@@@Z 
01:000863D4 ?setModal@formWindow_class@@SAXQAVdialog@@@PAUboolean_struct@_builtIn_class@@@Z 
01:000863DC ?setRect@formWindow_class@@SAXQAVdialog@@@PAUrct_struct@vpiDomains_class@@@Z 
01:00086464 ?moveFormWindow@formWindow_class@@SAXQAVformWindow@@@@Z 
01:000864E4 ?_getRect@formWindow_class@@SAXQAVdialog@@@PAPAUrct_struct@vpiDomains_class@@@Z 
01:000864F8 ?suspendLayout@formWindow_class@@SAXQAVdialog@@@@Z 
01:0008652C ?resumeLayout@formWindow_class@@SAXQAVdialog@@@@Z 
01:000865B0 ?setCloseResponder@formWindow_class@@SAXQAVframeDecoration@@@X@Z 
01:00086638 ?_onInternalDialogClose@formWindow_class@@SAXQAVformWindow@@@QAVwindow@@@PAPAUcloseResponse_struct@frameDecoration_class@@@Z 
01:0008665C ?_emulateExtension@formWindow_class@@SAXQAVformWindow@@@PBUwindowHandle@@PAUevent_struct@vpiDomains_class@@PAH@Z 
01:0008671C ?_new@formWindow_class@@SAXPAPAVformWindow@@@@Z  (Idle)
01:00086744 ?_new@formWindow_class@@SAXQAVwindow@@@PAPAVformWindow@@@@Z  (Idle)
01:0008676C ?_object_facts_initializer@formWindow_class@@SGXQAVformWindow@@@@Z 
01:000867AC ?setMinimized@formWindow_class@@SAXQAVdocumentWindow@@@PAUboolean_struct@_builtIn_class@@@Z 
01:000867C8 ?_getMinimized@formWindow_class@@SAXQAVdocumentWindow@@@PAPAUboolean_struct@_builtIn_class@@@Z 
01:000867E4 ?isMinimized@formWindow_class@@SAXQAVdocumentWindow@@@@Z 
01:00086800 ?_mdiGetRestoredRect@formWindow_class@@SAXQAVdocumentWindow@@@PAPAUrct_struct@vpiDomains_class@@@Z 
01:0008681C ?addActivateListener@formWindow_class@@SAXQAVdocumentWindow@@@X@Z 
01:00086838 ?removeActivateListener@formWindow_class@@SAXQAVdocumentWindow@@@X@Z 
01:00086854 ?addDeactivateListener@formWindow_class@@SAXQAVdocumentWindow@@@X@Z 
01:00086870 ?removeDeactivateListener@formWindow_class@@SAXQAVdocumentWindow@@@X@Z 
01:0008688C ?menuUpdate@formWindow_class@@SAXQAVdocumentWindow@@@@Z 
01:000868A8 ?menuSetText@formWindow_class@@SAXQAVdocumentWindow@@@PBUmenuTag@vpiDomains@@PB_W@Z 
01:000868C4 ?menuSet@formWindow_class@@SAXQAVdocumentWindow@@@PAUmenu_struct@vpiDomains_class@@@Z 
01:000868E0 ?_menuGet@formWindow_class@@SAXQAVdocumentWindow@@@PAPAUmenu_struct@vpiDomains_class@@@Z 
01:000868FC ?menuEnable@formWindow_class@@SAXQAVdocumentWindow@@@PBUmenuTag@vpiDomains@@PAUboolean_struct@_builtIn_class@@@Z 
01:00086918 ?menuCheck@formWindow_class@@SAXQAVdocumentWindow@@@PBUmenuTag@vpiDomains@@PAUboolean_struct@_builtIn_class@@@Z 
01:00086934 ?addInitMenuListener@formWindow_class@@SAXQAVdocumentWindow@@@X@Z 
01:00086950 ?removeInitMenuListener@formWindow_class@@SAXQAVdocumentWindow@@@X@Z 
01:0008696C ?_getDefaultDocumentWindowExtension@formWindow_class@@SAXQAVdocumentWindow@@@PAPAVdocumentWindowExtension@@@@Z 
01:00086988 ?_getDocumentWindowExtension@formWindow_class@@SAXQAVdocumentWindow@@@PAPAVdocumentWindowExtension@@@@Z 
01:000869A4 ?setDocumentWindowExtension@formWindow_class@@SAXQAVdocumentWindow@@@QAVdocumentWindowExtension@@@@Z 
01:000869C0 ?handleActivate@formWindow_class@@SAXQAVdocumentWindowExtension@@@QAVdocumentWindow@@@@Z 
01:000869DC ?handleDeactivate@formWindow_class@@SAXQAVdocumentWindowExtension@@@QAVdocumentWindow@@@@Z 
01:000869F8 ?handleInitMenu@formWindow_class@@SAXQAVdocumentWindowExtension@@@QAVdocumentWindow@@@@Z 
01:00086A14 ?getScrollRange@formWindow_class@@SAXQAVdrawWindow@@@PBUscrollType@vpiDomains@@PAHPAH@Z 
01:00086A30 ?setScrollRange@formWindow_class@@SAXQAVdrawWindow@@@PBUscrollType@vpiDomains@@HH@Z 
01:00086A4C ?_getScrollPos@formWindow_class@@SAXQAVdrawWindow@@@PBUscrollType@vpiDomains@@PAH@Z 
01:00086A68 ?setScrollPos@formWindow_class@@SAXQAVdrawWindow@@@PBUscrollType@vpiDomains@@H@Z 
01:00086A84 ?_getScrollProportion@formWindow_class@@SAXQAVdrawWindow@@@PBUscrollType@vpiDomains@@PAI@Z 
01:00086AA0 ?setScrollProportion@formWindow_class@@SAXQAVdrawWindow@@@PBUscrollType@vpiDomains@@I@Z 
01:00086ABC ?_getScrollBarInfo@formWindow_class@@SAXQAVdrawWindow@@@PBUscrollType@vpiDomains@@PAPAUscrollBarInfo_struct@drawWindow_class@@@Z 
01:00086AD8 ?_getScrollInfo@formWindow_class@@SAXQAVdrawWindow@@@PBUscrollType@vpiDomains@@PAPAUscrollInfo_struct@drawWindow_class@@@Z 
01:00086AF4 ?addVScrollListener@formWindow_class@@SAXQAVdrawWindow@@@X@Z 
01:00086B10 ?removeVScrollListener@formWindow_class@@SAXQAVdrawWindow@@@X@Z 
01:00086B2C ?addHScrollListener@formWindow_class@@SAXQAVdrawWindow@@@X@Z 
01:00086B48 ?removeHScrollListener@formWindow_class@@SAXQAVdrawWindow@@@X@Z 
01:00086B64 ?setDecoration@formWindow_class@@SAXQAVframeDecoration@@@PAUdecoration_struct@frameDecoration_class@@@Z 
01:00086B80 ?_getDecoration@formWindow_class@@SAXQAVframeDecoration@@@PAPAUdecoration_struct@frameDecoration_class@@@Z 
01:00086B9C ?setBorder@formWindow_class@@SAXQAVframeDecoration@@@PAUborder_struct@frameDecoration_class@@@Z 
01:00086BB8 ?_getBorder@formWindow_class@@SAXQAVframeDecoration@@@PAPAUborder_struct@frameDecoration_class@@@Z 
01:00086BD4 ?resetCloseResponder@formWindow_class@@SAXQAVframeDecoration@@@@Z 
01:00086BF0 ?handlePaint@formWindow_class@@SAXQAVdrawWindowExtension@@@QAVdrawWindow@@@PAUrct_struct@vpiDomains_class@@QAVwindowGDI@@@@Z 
01:00086C0C ?_handleEraseBackground@formWindow_class@@SAXQAVdrawWindowExtension@@@QAVdrawWindow@@@PAPAUeraseBackgroundResponse_struct@drawWindow_class@@@Z 
01:00086C28 ?handleMouseDown@formWindow_class@@SAXQAVdrawWindowExtension@@@QAVdrawWindow@@@PAUpnt_struct@vpiDomains_class@@PBUkeyModifier@vpiDomains@@H@Z 
01:00086C44 ?handleMouseUp@formWindow_class@@SAXQAVdrawWindowExtension@@@QAVdrawWindow@@@PAUpnt_struct@vpiDomains_class@@PBUkeyModifier@vpiDomains@@H@Z 
01:00086C60 ?handleMouseMove@formWindow_class@@SAXQAVdrawWindowExtension@@@QAVdrawWindow@@@PAUpnt_struct@vpiDomains_class@@PBUkeyModifier@vpiDomains@@PAU?$__list_struct@Uinteger@@@@@Z 
01:00086C7C ?handleMouseDbl@formWindow_class@@SAXQAVdrawWindowExtension@@@QAVdrawWindow@@@PAUpnt_struct@vpiDomains_class@@PBUkeyModifier@vpiDomains@@H@Z 
01:00086C98 ?_handleChar@formWindow_class@@SAXQAVdrawWindowExtension@@@QAVdrawWindow@@@HPBUkeyModifier@vpiDomains@@PAPAUcharResponse_struct@drawWindow_class@@@Z 
01:00086CB4 ?_handleKeyDown@formWindow_class@@SAXQAVdrawWindowExtension@@@QAVdrawWindow@@@HPBUkeyModifier@vpiDomains@@PAPAUkeyDownResponse_struct@drawWindow_class@@@Z 
01:00086CD0 ?_handleKeyUp@formWindow_class@@SAXQAVdrawWindowExtension@@@QAVdrawWindow@@@HPBUkeyModifier@vpiDomains@@PAPAUkeyUpResponse_struct@drawWindow_class@@@Z 
01:00086CEC ?handleVScroll@formWindow_class@@SAXQAVdrawWindowExtension@@@QAVdrawWindow@@@PBUscrollCode@vpiDomains@@H@Z 
01:00086D08 ?handleHScroll@formWindow_class@@SAXQAVdrawWindowExtension@@@QAVdrawWindow@@@PBUscrollCode@vpiDomains@@H@Z 
01:00086D24 ?destroy@formWindow_class@@SAXQAVwindow@@@@Z 
01:00086D40 ?close@formWindow_class@@SAXQAVwindow@@@@Z 
01:00086D5C ?_getParent@formWindow_class@@SAXQAVwindow@@@PAPAV2@@@Z 
01:00086D78 ?setParent@formWindow_class@@SAXQAVwindow@@@0@Z 
01:00086D94 ?_getText@formWindow_class@@SAXQAVwindow@@@PAPB_W@Z 
01:00086DB0 ?setText@formWindow_class@@SAXQAVwindow@@@PB_W@Z 
01:00086DCC ?_getOuterRect@formWindow_class@@SAXQAVwindow@@@PAPAUrct_struct@vpiDomains_class@@@Z 
01:00086DE8 ?setOuterRect@formWindow_class@@SAXQAVwindow@@@PAUrct_struct@vpiDomains_class@@@Z 
01:00086E04 ?setClientRect@formWindow_class@@SAXQAVwindow@@@PAUrct_struct@vpiDomains_class@@@Z 
01:00086E20 ?_getClientRect@formWindow_class@@SAXQAVwindow@@@PAPAUrct_struct@vpiDomains_class@@@Z 
01:00086E3C ?center@formWindow_class@@SAXQAVwindow@@@@Z 
01:00086E58 ?center@formWindow_class@@SAXQAVwindow@@@PAUrct_struct@vpiDomains_class@@@Z 
01:00086E74 ?centerTo@formWindow_class@@SAXQAVwindow@@@0@Z 
01:00086E90 ?addMoveListener@formWindow_class@@SAXQAVwindow@@@X@Z 
01:00086EAC ?removeMoveListener@formWindow_class@@SAXQAVwindow@@@X@Z 
01:00086EC8 ?setFocus@formWindow_class@@SAXQAVwindow@@@@Z 
01:00086EE4 ?setActive@formWindow_class@@SAXQAVwindow@@@@Z 
01:00086F00 ?setIcon@formWindow_class@@SAXQAVwindow@@@PBUresid@vpiDomains@@@Z 
01:00086F1C ?menuPopUp@formWindow_class@@SAXQAVwindow@@@PAUmenu_struct@vpiDomains_class@@PAUpnt_struct@4@PBUmenuAlign@vpiDomains@@@Z 
01:00086F38 ?addMenuItemListener@formWindow_class@@SAXQAVwindow@@@X@Z 
01:00086F54 ?addMenuItemListener@formWindow_class@@SAXQAVwindow@@@PBUmenuTag@vpiDomains@@X@Z 
01:00086F70 ?removeMenuItemListener@formWindow_class@@SAXQAVwindow@@@X@Z 
01:00086F8C ?_getState@formWindow_class@@SAXQAVwindow@@@PAPAU?$__list_struct@Uwsflag@@@@@Z 
01:00086FA8 ?setState@formWindow_class@@SAXQAVwindow@@@PAU?$__list_struct@Uwsflag@@@@@Z 
01:00086FC4 ?setEnabled@formWindow_class@@SAXQAVwindow@@@@Z 
01:00086FE0 ?setEnabled@formWindow_class@@SAXQAVwindow@@@PAUboolean_struct@_builtIn_class@@@Z 
01:00086FFC ?_getEnabled@formWindow_class@@SAXQAVwindow@@@PAPAUboolean_struct@_builtIn_class@@@Z 
01:00087018 ?setVisible@formWindow_class@@SAXQAVwindow@@@@Z 
01:00087034 ?setVisible@formWindow_class@@SAXQAVwindow@@@PAUboolean_struct@_builtIn_class@@@Z 
01:00087050 ?_getVisible@formWindow_class@@SAXQAVwindow@@@PAPAUboolean_struct@_builtIn_class@@@Z 
01:0008706C ?clearState@formWindow_class@@SAXQAVwindow@@@PAU?$__list_struct@Uwsflag@@@@@Z 
01:00087088 ?handleShow@formWindow_class@@SAXQAVwindowExtension@@@QAVwindow@@@H@Z 
01:000870A0 ?handleDestroy@formWindow_class@@SAXQAVwindowExtension@@@QAVwindow@@@@Z 
01:000870BC ?handleSize@formWindow_class@@SAXQAVwindowExtension@@@QAVwindow@@@HH@Z 
01:000870D8 ?handleMove@formWindow_class@@SAXQAVwindowExtension@@@QAVwindow@@@HH@Z 
01:000870F4 ?handleFocus@formWindow_class@@SAXQAVwindowExtension@@@QAVwindow@@@@Z 
01:00087110 ?handleLoseFocus@formWindow_class@@SAXQAVwindowExtension@@@QAVwindow@@@@Z 
01:0008712C ?handleMenuCommand@formWindow_class@@SAXQAVwindowExtension@@@QAVwindow@@@PBUmenuTag@vpiDomains@@@Z 
01:00087148 ?handleTimer@formWindow_class@@SAXQAVwindowExtension@@@QAVwindow@@@PBUtimerId@vpiDomains@@@Z 
01:00087164 ?_handleNative@formWindow_class@@SAXQAVwindowExtension@@@QAVwindow@@@IIHPAPAUnativeResponse_struct@window_class@@@Z 
01:00087180 ?handleUser@formWindow_class@@SAXQAVwindowExtension@@@QAVwindow@@@HH@Z 
01:0008719C ?handleStateChange@formWindow_class@@SAXQAVwindowExtension@@@QAVwindow@@@PAUstateInfo_struct@vpiDomains_class@@@Z 
01:000871B8 ?classInfo@drawWindow_class@@SAXPAPB_W0@Z 
01:000871D4 ?new@drawWindow_class@@SAXQAVdrawWindow@@@@Z 
01:0008721C ?new@drawWindow_class@@SAXQAVdrawWindow@@@QAVwindow@@@@Z 
01:0008723C ?_getDefaultDrawWindowExtension@drawWindow_class@@SAXQAVdrawWindow@@@PAPAVdrawWindowExtension@@@@Z 
01:00087250 ?_getDrawWindowExtension@drawWindow_class@@SAXQAVdrawWindow@@@PAPAVdrawWindowExtension@@@@Z 
01:00087264 ?setDrawWindowExtension@drawWindow_class@@SAXQAVdrawWindow@@@QAVdrawWindowExtension@@@@Z 
01:00087298 ?setWindowExtension@drawWindow_class@@SAXQAVwindow@@@QAVwindowExtension@@@@Z 
01:000872BC ?wrapVPIWin@drawWindow_class@@SAXQAVdrawWindow@@@PBUwindowHandle@vpiDomains@@@Z 
01:00087308 ?_convertVPIWin2drawWindow@drawWindow_class@@SAXPBUwindowHandle@vpiDomains@@PAPAV4@@@Z  (Idle)
01:00087374 ?initialize@drawWindow_class@@SAXQAVwindow@@@@Z 
01:00087438 ?initOne@drawWindow_class@@SAXQAVdrawWindow@@@PAUsetting_struct@1@@Z 
01:000875C0 ?_getPaintResponder@drawWindow_class@@SAXQAVdrawWindow@@@PAX@Z 
01:000875D4 ?setPaintResponder@drawWindow_class@@SAXQAVdrawWindow@@@X@Z 
01:000875E8 ?resetPaintResponder@drawWindow_class@@SAXQAVdrawWindow@@@@Z 
01:00087618 ?handlePaint@drawWindow_class@@SAXQAVdrawWindowExtension@@@QAVdrawWindow@@@PAUrct_struct@vpiDomains_class@@QAVwindowGDI@@@@Z 
01:0008765C ?defaultPaintResponder@drawWindow_class@@SAXQAVdrawWindow@@@0PAUrct_struct@vpiDomains_class@@QAVwindowGDI@@@@Z 
01:00087664 ?_getEraseBackgroundResponder@drawWindow_class@@SAXQAVdrawWindow@@@PAX@Z 
01:00087678 ?setEraseBackgroundResponder@drawWindow_class@@SAXQAVdrawWindow@@@X@Z 
01:0008768C ?resetEraseBackgroundResponder@drawWindow_class@@SAXQAVdrawWindow@@@@Z 
01:000876BC ?_handleEraseBackground@drawWindow_class@@SAXQAVdrawWindowExtension@@@QAVdrawWindow@@@PAPAUeraseBackgroundResponse_struct@1@@Z 
01:00087700 ?_defaultEraseBackgroundResponder@drawWindow_class@@SAXQAVdrawWindow@@@0QAVwindowGDI@@@PAPAUeraseBackgroundResponse_struct@1@@Z 
01:00087714 ?addMouseDownListener@drawWindow_class@@SAXQAVdrawWindow@@@X@Z 
01:00087734 ?removeMouseDownListener@drawWindow_class@@SAXQAVdrawWindow@@@X@Z 
01:00087800 ?handleMouseDown@drawWindow_class@@SAXQAVdrawWindowExtension@@@QAVdrawWindow@@@PAUpnt_struct@vpiDomains_class@@PBUkeyModifier@vpiDomains@@H@Z 
01:0008788C ?addMouseUpListener@drawWindow_class@@SAXQAVdrawWindow@@@X@Z 
01:000878AC ?removeMouseUpListener@drawWindow_class@@SAXQAVdrawWindow@@@X@Z 
01:00087978 ?handleMouseUp@drawWindow_class@@SAXQAVdrawWindowExtension@@@QAVdrawWindow@@@PAUpnt_struct@vpiDomains_class@@PBUkeyModifier@vpiDomains@@H@Z 
01:00087A04 ?addMouseDblListener@drawWindow_class@@SAXQAVdrawWindow@@@X@Z 
01:00087A24 ?removeMouseDblListener@drawWindow_class@@SAXQAVdrawWindow@@@X@Z 
01:00087AF0 ?handleMouseDbl@drawWindow_class@@SAXQAVdrawWindowExtension@@@QAVdrawWindow@@@PAUpnt_struct@vpiDomains_class@@PBUkeyModifier@vpiDomains@@H@Z 
01:00087B7C ?addMouseMoveListener@drawWindow_class@@SAXQAVdrawWindow@@@X@Z 
01:00087B9C ?removeMouseMoveListener@drawWindow_class@@SAXQAVdrawWindow@@@X@Z 
01:00087C68 ?handleMouseMove@drawWindow_class@@SAXQAVdrawWindowExtension@@@QAVdrawWindow@@@PAUpnt_struct@vpiDomains_class@@PBUkeyModifier@vpiDomains@@PAU?$__list_struct@Uinteger@@@@@Z 
01:00087CF4 ?_getCharResponder@drawWindow_class@@SAXQAVdrawWindow@@@PAX@Z 
01:00087D08 ?setCharResponder@drawWindow_class@@SAXQAVdrawWindow@@@X@Z 
01:00087D1C ?resetCharResponder@drawWindow_class@@SAXQAVdrawWindow@@@@Z 
01:00087D4C ?_handleChar@drawWindow_class@@SAXQAVdrawWindowExtension@@@QAVdrawWindow@@@HPBUkeyModifier@vpiDomains@@PAPAUcharResponse_struct@1@@Z 
01:00087D90 ?_defaultCharResponder@drawWindow_class@@SAXQAVdrawWindow@@@0HPBUkeyModifier@vpiDomains@@PAPAUcharResponse_struct@1@@Z 
01:00087DA4 ?_getKeyDownResponder@drawWindow_class@@SAXQAVdrawWindow@@@PAX@Z 
01:00087DB8 ?setKeyDownResponder@drawWindow_class@@SAXQAVdrawWindow@@@X@Z 
01:00087DCC ?resetKeyDownResponder@drawWindow_class@@SAXQAVdrawWindow@@@@Z 
01:00087DFC ?_handleKeyDown@drawWindow_class@@SAXQAVdrawWindowExtension@@@QAVdrawWindow@@@HPBUkeyModifier@vpiDomains@@PAPAUkeyDownResponse_struct@1@@Z 
01:00087E40 ?_defaultKeyDownResponder@drawWindow_class@@SAXQAVdrawWindow@@@0HPBUkeyModifier@vpiDomains@@PAPAUkeyDownResponse_struct@1@@Z 
01:00087E54 ?_getKeyUpResponder@drawWindow_class@@SAXQAVdrawWindow@@@PAX@Z 
01:00087E68 ?setKeyUpResponder@drawWindow_class@@SAXQAVdrawWindow@@@X@Z 
01:00087E7C ?resetKeyUpResponder@drawWindow_class@@SAXQAVdrawWindow@@@@Z 
01:00087EAC ?_handleKeyUp@drawWindow_class@@SAXQAVdrawWindowExtension@@@QAVdrawWindow@@@HPBUkeyModifier@vpiDomains@@PAPAUkeyUpResponse_struct@1@@Z 
01:00087EF0 ?_defaultKeyUpResponder@drawWindow_class@@SAXQAVdrawWindow@@@0HPBUkeyModifier@vpiDomains@@PAPAUkeyUpResponse_struct@1@@Z 
01:00087F04 ?addVScrollListener@drawWindow_class@@SAXQAVdrawWindow@@@X@Z 
01:00087F24 ?removeVScrollListener@drawWindow_class@@SAXQAVdrawWindow@@@X@Z 
01:00087FF0 ?handleVScroll@drawWindow_class@@SAXQAVdrawWindowExtension@@@QAVdrawWindow@@@PBUscrollCode@vpiDomains@@H@Z 
01:0008807C ?addHScrollListener@drawWindow_class@@SAXQAVdrawWindow@@@X@Z 
01:0008809C ?removeHScrollListener@drawWindow_class@@SAXQAVdrawWindow@@@X@Z 
01:00088168 ?handleHScroll@drawWindow_class@@SAXQAVdrawWindowExtension@@@QAVdrawWindow@@@PBUscrollCode@vpiDomains@@H@Z 
01:000881F4 ?isEventHandledInDrawWindow@drawWindow_class@@SAXPAUevent_struct@vpiDomains_class@@@Z 
01:0008826C ?_dispatchAutoHandler@drawWindow_class@@SAXQAVdrawWindow@@@PBUwindowHandle@@PAUevent_struct@vpiDomains_class@@PAH@Z 
01:0008884C ?_getEventHandler@drawWindow_class@@SAXQAVwindow@@@PAX@Z 
01:0008887C ?update@drawWindow_class@@SAXQAVdrawWindow@@@@Z 
01:000888C0 ?validateRect@drawWindow_class@@SAXQAVdrawWindow@@@PAUrct_struct@vpiDomains_class@@@Z 
01:000888EC ?needsUpdate@drawWindow_class@@SAXQAVdrawWindow@@@PAUrct_struct@vpiDomains_class@@@Z 
01:00088918 ?invalidate@drawWindow_class@@SAXQAVdrawWindow@@@@Z 
01:0008895C ?invalidate@drawWindow_class@@SAXQAVdrawWindow@@@PAUrct_struct@vpiDomains_class@@@Z 
01:000889A0 ?_getInvalidRect@drawWindow_class@@SAXQAVdrawWindow@@@PAPAUrct_struct@vpiDomains_class@@@Z 
01:000889D4 ?_getClip@drawWindow_class@@SAXQAVdrawWindow@@@PAPAUrct_struct@vpiDomains_class@@@Z 
01:00088A70 ?setClip@drawWindow_class@@SAXQAVdrawWindow@@@PAUrct_struct@vpiDomains_class@@@Z 
01:00088BD4 ?captureMouse@drawWindow_class@@SAXQAVdrawWindow@@@@Z 
01:00088C00 ?releaseMouse@drawWindow_class@@SAXQAVdrawWindow@@@@Z 
01:00088C10 ?_convertLPtoDP@drawWindow_class@@SAXQAVdrawWindow@@@PAU?$__list_struct@Upnt@@@@PAPAU?$__list_struct@U3@@@@Z 
01:00088C44 ?_convertDPtoLP@drawWindow_class@@SAXQAVdrawWindow@@@PAU?$__list_struct@Upnt@@@@PAPAU?$__list_struct@U3@@@@Z 
01:00088C78 ?getScrollRange@drawWindow_class@@SAXQAVdrawWindow@@@PBUscrollType@vpiDomains@@PAHPAH@Z 
01:00088CAC ?setScrollRange@drawWindow_class@@SAXQAVdrawWindow@@@PBUscrollType@vpiDomains@@HH@Z 
01:00088D38 ?_getScrollPos@drawWindow_class@@SAXQAVdrawWindow@@@PBUscrollType@vpiDomains@@PAH@Z 
01:00088D6C ?setScrollPos@drawWindow_class@@SAXQAVdrawWindow@@@PBUscrollType@vpiDomains@@H@Z 
01:00088DF0 ?_getScrollProportion@drawWindow_class@@SAXQAVdrawWindow@@@PBUscrollType@vpiDomains@@PAI@Z 
01:00088E24 ?setScrollProportion@drawWindow_class@@SAXQAVdrawWindow@@@PBUscrollType@vpiDomains@@I@Z 
01:00088EA8 ?scroll@drawWindow_class@@SAXQAVdrawWindow@@@PAUrct_struct@vpiDomains_class@@HH@Z 
01:00088F38 ?scroll@drawWindow_class@@SAXQAVdrawWindow@@@PAUrct_struct@vpiDomains_class@@HHI@Z 
01:00088FA8 ?_getScrollBarInfo@drawWindow_class@@SAXQAVdrawWindow@@@PBUscrollType@vpiDomains@@PAPAUscrollBarInfo_struct@1@@Z 
01:0008911C ?_getScrollBarObjCode@drawWindow_class@@SAXHAAUunsigned32@@@Z 
01:00089178 ?_getScrollInfo@drawWindow_class@@SAXQAVdrawWindow@@@PBUscrollType@vpiDomains@@PAPAUscrollInfo_struct@1@@Z 
01:00089264 ?setCaretSize@drawWindow_class@@SAXQAVdrawWindow@@@PBUpositive@@1@Z 
01:0008937C ?setCaret@drawWindow_class@@SAXQAVdrawWindow@@@PAUpnt_struct@vpiDomains_class@@PBUpositive@@2@Z 
01:000893A8 ?setCaret@drawWindow_class@@SAXQAVdrawWindow@@@PAUpnt_struct@vpiDomains_class@@@Z 
01:000894FC ?hideCaret@drawWindow_class@@SAXQAVdrawWindow@@@@Z 
01:00089540 ?_getMapMode@drawWindow_class@@SAXQAVdrawWindow@@@AAUmapmode@vpiDomains@@@Z 
01:000895DC ?setMapMode@drawWindow_class@@SAXQAVdrawWindow@@@PBUmapmode@vpiDomains@@@Z 
01:000896EC ?getMapScale@drawWindow_class@@SAXQAVdrawWindow@@@PAPAUpnt_struct@vpiDomains_class@@111@Z 
01:000897AC ?setMapScale@drawWindow_class@@SAXQAVdrawWindow@@@PAUpnt_struct@vpiDomains_class@@111@Z 
01:000898D4 ?getTextExtent@drawWindow_class@@SAXQAVwindowGDI@@@PB_WAAUpositive@@2@Z 
01:00089900 ?getTextExtent@drawWindow_class@@SAXQAVwindowGDI@@@PB_WPBUcharCountOptional@@AAUpositive@@3@Z 
01:00089938 ?setBackColor@drawWindow_class@@SAXQAVwindowGDI@@@PBUcolor@@@Z 
01:00089964 ?_getBackColor@drawWindow_class@@SAXQAVwindowGDI@@@AAUcolor@@@Z 
01:000899A0 ?setForeColor@drawWindow_class@@SAXQAVwindowGDI@@@PBUcolor@@@Z 
01:000899CC ?_getForeColor@drawWindow_class@@SAXQAVwindowGDI@@@AAUcolor@@@Z 
01:00089A08 ?setBackMode@drawWindow_class@@SAXQAVwindowGDI@@@PBUbk_mode@@@Z 
01:00089A34 ?_getBackMode@drawWindow_class@@SAXQAVwindowGDI@@@AAUbk_mode@@@Z 
01:00089A70 ?_getPen@drawWindow_class@@SAXQAVwindowGDI@@@PAPAUpen_struct@vpiDomains_class@@@Z 
01:00089AA4 ?setPen@drawWindow_class@@SAXQAVwindowGDI@@@PAUpen_struct@vpiDomains_class@@@Z 
01:00089AD0 ?_getBrush@drawWindow_class@@SAXQAVwindowGDI@@@PAPAUbrush_struct@vpiDomains_class@@@Z 
01:00089B04 ?setBrush@drawWindow_class@@SAXQAVwindowGDI@@@PAUbrush_struct@vpiDomains_class@@@Z 
01:00089B30 ?_getDrawTools@drawWindow_class@@SAXQAVwindowGDI@@@PAPAUdrawtools_struct@vpiDomains_class@@@Z 
01:00089B64 ?setDrawTools@drawWindow_class@@SAXQAVwindowGDI@@@PAUdrawtools_struct@vpiDomains_class@@@Z 
01:00089B90 ?clear@drawWindow_class@@SAXQAVwindowGDI@@@PBUcolor@@@Z 
01:00089BBC ?clear@drawWindow_class@@SAXQAVwindowGDI@@@PAUrct_struct@vpiDomains_class@@PBUcolor@@@Z 
01:00089BEC ?_getDrawMode@drawWindow_class@@SAXQAVwindowGDI@@@AAUdrawMode@@@Z 
01:00089C20 ?setDrawMode@drawWindow_class@@SAXQAVwindowGDI@@@PBUdrawMode@@@Z 
01:00089C4C ?_getNativeGraphicContext@drawWindow_class@@SAXQAVwindowGDI@@@PAPAUboolean_struct@_builtIn_class@@AAUhandle@@@Z 
01:00089C90 ?releaseNativeGraphicContext@drawWindow_class@@SAXQAVwindowGDI@@@PBUhandle@@PAUboolean_struct@_builtIn_class@@@Z 
01:00089CD4 ?_getPixelColor@drawWindow_class@@SAXQAVwindowGDI@@@PAUpnt_struct@vpiDomains_class@@AAUcolor@@@Z 
01:00089D08 ?drawTextInRect@drawWindow_class@@SAXQAVwindowGDI@@@PAUrct_struct@vpiDomains_class@@PB_WPBUcharCountOptional@@PAU?$__list_struct@Uinteger@@@@@Z 
01:00089D40 ?drawTextInRect@drawWindow_class@@SAXQAVwindowGDI@@@PAUrct_struct@vpiDomains_class@@PB_WPAU?$__list_struct@Uinteger@@@@@Z 
01:00089D6C ?drawText@drawWindow_class@@SAXQAVwindowGDI@@@PAUpnt_struct@vpiDomains_class@@PB_WPBUcharCountOptional@@@Z 
01:00089DB0 ?drawText@drawWindow_class@@SAXQAVwindowGDI@@@PAUpnt_struct@vpiDomains_class@@PB_W@Z 
01:00089E04 ?drawRoundRect@drawWindow_class@@SAXQAVwindowGDI@@@PAUrct_struct@vpiDomains_class@@HH@Z 
01:00089E38 ?drawRect@drawWindow_class@@SAXQAVwindowGDI@@@PAUrct_struct@vpiDomains_class@@@Z 
01:00089E64 ?drawFocusRect@drawWindow_class@@SAXQAVwindowGDI@@@PAUrct_struct@vpiDomains_class@@@Z 
01:00089EE0 ?drawPolyline@drawWindow_class@@SAXQAVwindowGDI@@@PAU?$__list_struct@Upnt@@@@@Z 
01:00089F0C ?drawPolygon@drawWindow_class@@SAXQAVwindowGDI@@@PAU?$__list_struct@Upnt@@@@@Z 
01:00089F38 ?drawPixel@drawWindow_class@@SAXQAVwindowGDI@@@PAUpnt_struct@vpiDomains_class@@PBUcolor@@@Z 
01:00089F68 ?drawPie@drawWindow_class@@SAXQAVwindowGDI@@@PAUrct_struct@vpiDomains_class@@PAUpnt_struct@4@2@Z 
01:00089FB8 ?drawLine@drawWindow_class@@SAXQAVwindowGDI@@@PAUpnt_struct@vpiDomains_class@@1@Z 
01:00089FE8 ?drawIcon@drawWindow_class@@SAXQAVwindowGDI@@@PAUpnt_struct@vpiDomains_class@@PBUresid@@@Z 
01:0008A028 ?drawFloodFill@drawWindow_class@@SAXQAVwindowGDI@@@PAUpnt_struct@vpiDomains_class@@PBUcolor@@@Z 
01:0008A058 ?drawEllipse@drawWindow_class@@SAXQAVwindowGDI@@@PAUrct_struct@vpiDomains_class@@@Z 
01:0008A084 ?drawArc@drawWindow_class@@SAXQAVwindowGDI@@@PAUrct_struct@vpiDomains_class@@PAUpnt_struct@4@2@Z 
01:0008A0D4 ?pictDraw@drawWindow_class@@SAXQAVwindowGDI@@@PBUpicture@@PAUpnt_struct@vpiDomains_class@@PBUrop@@@Z 
01:0008A100 ?pictDraw@drawWindow_class@@SAXQAVwindowGDI@@@PBUpicture@@PAUrct_struct@vpiDomains_class@@2PBUrop@@@Z 
01:0008A12C ?_getWindowGDI@drawWindow_class@@SAXQAVdrawWindow@@@PAPAVwindowGDI@@@@Z 
01:0008A158 ?addHandler@drawWindow_class@@SAXQAVwindow@@@X@Z 
01:0008A17C ?removeHandler@drawWindow_class@@SAXQAVwindow@@@X@Z 
01:0008A244 ?_new@drawWindow_class@@SAXPAPAVdrawWindow@@@@Z  (Idle)
01:0008A26C ?_new@drawWindow_class@@SAXQAVwindow@@@PAPAVdrawWindow@@@@Z 
01:0008A294 ?_wrapVPIWin@drawWindow_class@@SAXPBUwindowHandle@vpiDomains@@PAPAVdrawWindow@@@@Z 
01:0008A2BC ?_object_facts_initializer@drawWindow_class@@SGXQAVdrawWindow@@@@Z 
01:0008A388 ?handleShow@drawWindow_class@@SAXQAVwindowExtension@@@QAVwindow@@@H@Z 
01:0008A3A0 ?handleDestroy@drawWindow_class@@SAXQAVwindowExtension@@@QAVwindow@@@@Z 
01:0008A3BC ?handleSize@drawWindow_class@@SAXQAVwindowExtension@@@QAVwindow@@@HH@Z 
01:0008A3D8 ?handleMove@drawWindow_class@@SAXQAVwindowExtension@@@QAVwindow@@@HH@Z 
01:0008A3F4 ?handleFocus@drawWindow_class@@SAXQAVwindowExtension@@@QAVwindow@@@@Z 
01:0008A410 ?handleLoseFocus@drawWindow_class@@SAXQAVwindowExtension@@@QAVwindow@@@@Z 
01:0008A42C ?handleMenuCommand@drawWindow_class@@SAXQAVwindowExtension@@@QAVwindow@@@PBUmenuTag@vpiDomains@@@Z 
01:0008A448 ?handleTimer@drawWindow_class@@SAXQAVwindowExtension@@@QAVwindow@@@PBUtimerId@vpiDomains@@@Z 
01:0008A464 ?_handleNative@drawWindow_class@@SAXQAVwindowExtension@@@QAVwindow@@@IIHPAPAUnativeResponse_struct@window_class@@@Z 
01:0008A480 ?handleUser@drawWindow_class@@SAXQAVwindowExtension@@@QAVwindow@@@HH@Z 
01:0008A49C ?handleStateChange@drawWindow_class@@SAXQAVwindowExtension@@@QAVwindow@@@PAUstateInfo_struct@vpiDomains_class@@@Z 
01:0008A4B8 ?classInfo@documentWindow_class@@SAXPAPB_W0@Z 
01:0008A4D4 ?new@documentWindow_class@@SAXQAVdocumentWindow@@@@Z 
01:0008A57C ?new@documentWindow_class@@SAXQAVdocumentWindow@@@QAVwindow@@@@Z 
01:0008A59C ?_getDefaultDocumentWindowExtension@documentWindow_class@@SAXQAVdocumentWindow@@@PAPAVdocumentWindowExtension@@@@Z 
01:0008A5B0 ?_getDocumentWindowExtension@documentWindow_class@@SAXQAVdocumentWindow@@@PAPAVdocumentWindowExtension@@@@Z 
01:0008A5C4 ?setDocumentWindowExtension@documentWindow_class@@SAXQAVdocumentWindow@@@QAVdocumentWindowExtension@@@@Z 
01:0008A5F0 ?setDrawWindowExtension@documentWindow_class@@SAXQAVdrawWindow@@@QAVdrawWindowExtension@@@@Z 
01:0008A614 ?wrapVPIWin@documentWindow_class@@SAXQAVdocumentWindow@@@PBUwindowHandle@vpiDomains@@@Z 
01:0008A694 ?checkTopLevelType@documentWindow_class@@SAXPBUwindowHandle@@@Z 
01:0008A718 ?show@documentWindow_class@@SAXQAVwindow@@@@Z 
01:0008A7FC ?_getFullState@documentWindow_class@@SAXQAVdocumentWindow@@@PAUboolean_struct@_builtIn_class@@PAPAU?$__list_struct@Uwsflag@@@@@Z 
01:0008A850 ?setMaximized@documentWindow_class@@SAXPAUboolean_struct@_builtIn_class@@@Z  (Idle)
01:0008A8C4 ?setMaximized@documentWindow_class@@SAXPAUboolean_struct@_builtIn_class@@PBUwindowHandle@vpiDomains@@@Z 
01:0008A8F8 ?getStateOfActive@documentWindow_class@@SAXAAUwindowHandle@vpiDomains@@PAPAUboolean_struct@_builtIn_class@@@Z 
--- From 'Obj\messagecontrol.obj'
01:0008A9E0 ?isMaximized@documentWindow_class@@SAXXZ 
--- From 'Obj\gui.obj'
01:0008AA0C ?_getMaximized@documentWindow_class@@SAXPAPAUboolean_struct@_builtIn_class@@@Z  (Idle)
01:0008AA4C ?activateNextMDI@documentWindow_class@@SAXXZ  (Idle)
01:0008AA64 ?activatePreviousMDI@documentWindow_class@@SAXXZ  (Idle)
01:0008AA7C ?activateNextMDI@documentWindow_class@@SAXH@Z 
01:0008AAE8 ?setMinimized@documentWindow_class@@SAXQAVdocumentWindow@@@PAUboolean_struct@_builtIn_class@@@Z 
01:0008AB20 ?isMinimized@documentWindow_class@@SAXQAVdocumentWindow@@@@Z 
01:0008AB6C ?_getMinimized@documentWindow_class@@SAXQAVdocumentWindow@@@PAPAUboolean_struct@_builtIn_class@@@Z 
01:0008ABB0 ?_mdiGetRestoredRect@documentWindow_class@@SAXQAVdocumentWindow@@@PAPAUrct_struct@vpiDomains_class@@@Z 
01:0008ABDC ?moveTile@documentWindow_class@@SAXPAU?$__list_struct@Uinteger@@@@@Z  (Idle)
01:0008ABEC ?moveCascade@documentWindow_class@@SAXPAU?$__list_struct@Uinteger@@@@@Z  (Idle)
01:0008ABFC ?arrangeMinimized@documentWindow_class@@SAXXZ  (Idle)
01:0008AC08 ?addActivateListener@documentWindow_class@@SAXQAVdocumentWindow@@@X@Z 
01:0008AC28 ?removeActivateListener@documentWindow_class@@SAXQAVdocumentWindow@@@X@Z 
01:0008ACF4 ?handleActivate@documentWindow_class@@SAXQAVdocumentWindowExtension@@@QAVdocumentWindow@@@@Z 
01:0008AD78 ?addDeactivateListener@documentWindow_class@@SAXQAVdocumentWindow@@@X@Z 
01:0008AD98 ?removeDeactivateListener@documentWindow_class@@SAXQAVdocumentWindow@@@X@Z 
01:0008AE64 ?handleDeactivate@documentWindow_class@@SAXQAVdocumentWindowExtension@@@QAVdocumentWindow@@@@Z 
01:0008AEE8 ?addInitMenuListener@documentWindow_class@@SAXQAVdocumentWindow@@@X@Z 
01:0008AF08 ?removeInitMenuListener@documentWindow_class@@SAXQAVdocumentWindow@@@X@Z 
01:0008AFD4 ?handleInitMenu@documentWindow_class@@SAXQAVdocumentWindowExtension@@@QAVdocumentWindow@@@@Z 
01:0008B058 ?isEventHandledInDocumentWindow@documentWindow_class@@SAXPAUevent_struct@vpiDomains_class@@@Z 
01:0008B080 ?_dispatchAutoHandler@documentWindow_class@@SAXQAVdocumentWindow@@@PBUwindowHandle@@PAUevent_struct@vpiDomains_class@@PAH@Z 
01:0008B2E0 ?getEventHandler@documentWindow_class@@SAXQAVwindow@@@PAX@Z 
01:0008B310 ?menuUpdate@documentWindow_class@@SAXQAVdocumentWindow@@@@Z 
01:0008B33C ?menuSetText@documentWindow_class@@SAXQAVdocumentWindow@@@PBUmenuTag@vpiDomains@@PB_W@Z 
01:0008B36C ?menuSet@documentWindow_class@@SAXQAVdocumentWindow@@@PAUmenu_struct@vpiDomains_class@@@Z 
01:0008B3E0 ?menuGet@documentWindow_class@@SAXQAVdocumentWindow@@@PAPAUmenu_struct@vpiDomains_class@@@Z 
01:0008B468 ?menuEnable@documentWindow_class@@SAXQAVdocumentWindow@@@PBUmenuTag@vpiDomains@@PAUboolean_struct@_builtIn_class@@@Z 
01:0008B4AC ?menuCheck@documentWindow_class@@SAXQAVdocumentWindow@@@PBUmenuTag@vpiDomains@@PAUboolean_struct@_builtIn_class@@@Z 
01:0008B4F0 ?addHandler@documentWindow_class@@SAXQAVwindow@@@X@Z 
01:0008B514 ?removeHandler@documentWindow_class@@SAXQAVwindow@@@X@Z 
01:0008B5DC ?_new@documentWindow_class@@SAXPAPAVdocumentWindow@@@@Z 
01:0008B604 ?_new@documentWindow_class@@SAXQAVwindow@@@PAPAVdocumentWindow@@@@Z  (Idle)
01:0008B62C ?_wrapVPIWin@documentWindow_class@@SAXPBUwindowHandle@vpiDomains@@PAPAVdocumentWindow@@@@Z  (Idle)
01:0008B654 ?handlePaint@documentWindow_class@@SAXQAVdrawWindowExtension@@@QAVdrawWindow@@@PAUrct_struct@vpiDomains_class@@QAVwindowGDI@@@@Z 
01:0008B670 ?_handleEraseBackground@documentWindow_class@@SAXQAVdrawWindowExtension@@@QAVdrawWindow@@@PAPAUeraseBackgroundResponse_struct@drawWindow_class@@@Z 
01:0008B68C ?handleMouseDown@documentWindow_class@@SAXQAVdrawWindowExtension@@@QAVdrawWindow@@@PAUpnt_struct@vpiDomains_class@@PBUkeyModifier@vpiDomains@@H@Z 
01:0008B6A8 ?handleMouseUp@documentWindow_class@@SAXQAVdrawWindowExtension@@@QAVdrawWindow@@@PAUpnt_struct@vpiDomains_class@@PBUkeyModifier@vpiDomains@@H@Z 
01:0008B6C4 ?handleMouseMove@documentWindow_class@@SAXQAVdrawWindowExtension@@@QAVdrawWindow@@@PAUpnt_struct@vpiDomains_class@@PBUkeyModifier@vpiDomains@@PAU?$__list_struct@Uinteger@@@@@Z 
01:0008B6E0 ?handleMouseDbl@documentWindow_class@@SAXQAVdrawWindowExtension@@@QAVdrawWindow@@@PAUpnt_struct@vpiDomains_class@@PBUkeyModifier@vpiDomains@@H@Z 
01:0008B6FC ?_handleChar@documentWindow_class@@SAXQAVdrawWindowExtension@@@QAVdrawWindow@@@HPBUkeyModifier@vpiDomains@@PAPAUcharResponse_struct@drawWindow_class@@@Z 
01:0008B718 ?_handleKeyDown@documentWindow_class@@SAXQAVdrawWindowExtension@@@QAVdrawWindow@@@HPBUkeyModifier@vpiDomains@@PAPAUkeyDownResponse_struct@drawWindow_class@@@Z 
01:0008B734 ?_handleKeyUp@documentWindow_class@@SAXQAVdrawWindowExtension@@@QAVdrawWindow@@@HPBUkeyModifier@vpiDomains@@PAPAUkeyUpResponse_struct@drawWindow_class@@@Z 
01:0008B750 ?handleVScroll@documentWindow_class@@SAXQAVdrawWindowExtension@@@QAVdrawWindow@@@PBUscrollCode@vpiDomains@@H@Z 
01:0008B76C ?handleHScroll@documentWindow_class@@SAXQAVdrawWindowExtension@@@QAVdrawWindow@@@PBUscrollCode@vpiDomains@@H@Z 
01:0008B788 ?handleShow@documentWindow_class@@SAXQAVwindowExtension@@@QAVwindow@@@H@Z 
01:0008B7A0 ?handleDestroy@documentWindow_class@@SAXQAVwindowExtension@@@QAVwindow@@@@Z 
01:0008B7BC ?handleSize@documentWindow_class@@SAXQAVwindowExtension@@@QAVwindow@@@HH@Z 
01:0008B7D8 ?handleMove@documentWindow_class@@SAXQAVwindowExtension@@@QAVwindow@@@HH@Z 
01:0008B7F4 ?handleFocus@documentWindow_class@@SAXQAVwindowExtension@@@QAVwindow@@@@Z 
01:0008B810 ?handleLoseFocus@documentWindow_class@@SAXQAVwindowExtension@@@QAVwindow@@@@Z 
01:0008B82C ?handleMenuCommand@documentWindow_class@@SAXQAVwindowExtension@@@QAVwindow@@@PBUmenuTag@vpiDomains@@@Z 
01:0008B848 ?handleTimer@documentWindow_class@@SAXQAVwindowExtension@@@QAVwindow@@@PBUtimerId@vpiDomains@@@Z 
01:0008B864 ?_handleNative@documentWindow_class@@SAXQAVwindowExtension@@@QAVwindow@@@IIHPAPAUnativeResponse_struct@window_class@@@Z 
01:0008B880 ?handleUser@documentWindow_class@@SAXQAVwindowExtension@@@QAVwindow@@@HH@Z 
01:0008B89C ?handleStateChange@documentWindow_class@@SAXQAVwindowExtension@@@QAVwindow@@@PAUstateInfo_struct@vpiDomains_class@@@Z 
01:0008B8B8 ?classInfo@childWindow_class@@SAXPAPB_W0@Z  (Idle)
01:0008B8D4 ?new@childWindow_class@@SAXQAVchildWindow@@@@Z 
01:0008B8DC ?new@childWindow_class@@SAXQAVchildWindow@@@QAVwindow@@@@Z 
01:0008B908 ?show@childWindow_class@@SAXQAVwindow@@@@Z 
01:0008B9D0 ?_new@childWindow_class@@SAXPAPAVchildWindow@@@@Z  (Idle)
01:0008B9F8 ?_new@childWindow_class@@SAXQAVwindow@@@PAPAVchildWindow@@@@Z  (Idle)
01:0008BA20 ?classInfo@window_class@@SAXPAPB_W0@Z 
--- From 'Obj\messagecontrol.obj'
01:0008BA3C ?new@window_class@@SAXQAVwindow@@@@Z 
--- From 'Obj\gui.obj'
01:0008BA58 ?new@window_class@@SAXQAVwindow@@@0@Z 
01:0008BAA4 ?_getDefaultWindowExtension@window_class@@SAXQAVwindow@@@PAPAVwindowExtension@@@@Z 
01:0008BAB8 ?_getWindowExtension@window_class@@SAXQAVwindow@@@PAPAVwindowExtension@@@@Z 
01:0008BACC ?setWindowExtension@window_class@@SAXQAVwindow@@@QAVwindowExtension@@@@Z 
01:0008BAF0 ?setNewHandler@window_class@@SAXQAVwindow@@@PBUwindowHandle@@X@Z 
01:0008BB68 ?show@window_class@@SAXQAVwindow@@@@Z 
01:0008BB80 ?_tryGetVpiWindow@window_class@@SAXQAVwindow@@@AAUwindowHandle@vpiDomains@@@Z 
01:0008BBA8 ?isShown@window_class@@SAXQAVwindow@@@@Z 
01:0008BBC0 ?_getVpiWindow@window_class@@SAXQAVwindow@@@AAUwindowHandle@vpiDomains@@@Z 
01:0008BC0C ?attachVpiWindow@window_class@@SAXQAVwindow@@@PBUwindowHandle@vpiDomains@@@Z 
01:0008BCF8 ?detachVpiWindow@window_class@@SAXQAVwindow@@@@Z 
01:0008BD0C ?destroy@window_class@@SAXQAVwindow@@@@Z 
01:0008BD30 ?isDestroying@window_class@@SAXQAVwindow@@@@Z 
01:0008BD48 ?close@window_class@@SAXQAVwindow@@@@Z 
01:0008BD68 ?setSetting@window_class@@SAXQAVwindow@@@PAUsetting_struct@1@X@Z 
01:0008BDF8 ?whenCreated@window_class@@SAXQAVwindow@@@X@Z 
01:0008BE6C ?initialize@window_class@@SAXQAVwindow@@@@Z 
01:0008C0B4 ?isInitializing@window_class@@SAXQAVwindow@@@@Z 
01:0008C0D0 ?getParent@window_class@@SAXQAVwindow@@@PAPAV2@@@Z 
01:0008C180 ?setParent@window_class@@SAXQAVwindow@@@0@Z 
01:0008C1F8 ?_getDialogParent@window_class@@SAXQAVwindow@@@PAPAVdialog@@@@Z 
01:0008C25C ?_getText@window_class@@SAXQAVwindow@@@PAPB_W@Z 
01:0008C310 ?anonymous$2$settext/1@window_class@@SAXPAUanonymous$2$settext/1c_struct@1@@Z 
01:0008C34C ?setText@window_class@@SAXQAVwindow@@@PB_W@Z 
01:0008C450 ?_getData@window_class@@SAXQAVwindow@@@PAH@Z 
01:0008C500 ?anonymous$3$setdata/1@window_class@@SAXPAUanonymous$3$setdata/1c_struct@1@@Z 
01:0008C53C ?setData@window_class@@SAXQAVwindow@@@H@Z 
01:0008C640 ?_getOuterRect@window_class@@SAXQAVwindow@@@PAPAUrct_struct@vpiDomains_class@@@Z 
01:0008C66C ?setOuterRect@window_class@@SAXQAVwindow@@@PAUrct_struct@vpiDomains_class@@@Z 
01:0008C6E4 ?anonymous$4$setclientrect/1@window_class@@SAXPAUanonymous$4$setclientrect/1c_struct@1@@Z 
01:0008C72C ?setClientRect@window_class@@SAXQAVwindow@@@PAUrct_struct@vpiDomains_class@@@Z 
01:0008C830 ?_getClientRect@window_class@@SAXQAVwindow@@@PAPAUrct_struct@vpiDomains_class@@@Z 
01:0008C9A8 ?getClientSize@window_class@@SAXQAVwindow@@@PAHPAH@Z 
01:0008C9F8 ?adjustRectEx@window_class@@SAXQAVwindow@@@PAUrct_struct@vpiDomains_class@@PAPAU34@@Z 
01:0008CBB8 ?_windowHasMenu@window_class@@SAXPBUwindowHandle@@IAAUbooleanInt@@@Z 
01:0008CC00 ?center@window_class@@SAXQAVwindow@@@@Z 
01:0008CC28 ?center@window_class@@SAXQAVwindow@@@PAUrct_struct@vpiDomains_class@@@Z 
01:0008CC50 ?centerTo@window_class@@SAXQAVwindow@@@0@Z 
01:0008CE14 ?_mapPointsTo@window_class@@SAXQAVwindow@@@0PAU?$__list_struct@Upnt@@@@PAPAU?$__list_struct@U4@@@@Z 
01:0008CE60 ?_mapPointTo@window_class@@SAXQAVwindow@@@0PAUpnt_struct@vpiDomains_class@@PAPAU45@@Z 
01:0008CEAC ?anonymous$5$seticon/1@window_class@@SAXPAUanonymous$5$seticon/1c_struct@1@@Z 
01:0008CEE8 ?setIcon@window_class@@SAXQAVwindow@@@PBUresid@vpiDomains@@@Z 
01:0008CFEC ?anonymous$6$setfocus/0@window_class@@SAXPAUanonymous$6$setfocus/0c_struct@1@@Z 
01:0008D01C ?setFocus@window_class@@SAXQAVwindow@@@@Z 
01:0008D060 ?anonymous$7$bringtotop/0@window_class@@SAXPAUanonymous$7$bringtotop/0c_struct@1@@Z 
01:0008D090 ?bringToTop@window_class@@SAXQAVwindow@@@@Z 
01:0008D0D4 ?anonymous$8$setactive/0@window_class@@SAXPAUanonymous$8$setactive/0c_struct@1@@Z 
01:0008D104 ?setActive@window_class@@SAXQAVwindow@@@@Z 
01:0008D148 ?anonymous$9$setfont/1@window_class@@SAXPAUanonymous$9$setfont/1c_struct@1@@Z 
01:0008D184 ?setFont@window_class@@SAXQAVwindow@@@PBUfont@vpiDomains@@@Z 
01:0008D288 ?_getFont@window_class@@SAXQAVwindow@@@AAUfont@vpiDomains@@@Z 
01:0008D360 ?getFontMetrics@window_class@@SAXQAVwindow@@@AAUpositive@@11@Z 
01:0008D38C ?addHandler@window_class@@SAXQAVwindow@@@X@Z 
01:0008D3AC ?removeHandler@window_class@@SAXQAVwindow@@@X@Z 
01:0008D470 ?setSubClassHandler@window_class@@SAXQAVwindow@@@XPAUboolean_struct@_builtIn_class@@@Z 
01:0008D510 ?attachSpecialHandler@window_class@@SAXQAVwindow@@@PBUwindowHandle@vpiDomains@@@Z 
01:0008D718 ?_getOwnPaint@window_class@@SAXQAVwindow@@@AAUbooleanInt@core@@@Z 
01:0008D744 ?_subclassEH@window_class@@SAXQAVwindow@@@PBUwindowHandle@@PAUevent_struct@vpiDomains_class@@PAH@Z 
01:0008D7B8 ?sendEvent@window_class@@SAXQAVwindow@@@PAUevent_struct@vpiDomains_class@@PAH@Z 
01:0008D7E8 ?_sendEvent@window_class@@SAXQAVwindow@@@PAUevent_struct@vpiDomains_class@@PAUboolean_struct@_builtIn_class@@PAH@Z 
01:0008D830 ?anonymous$10$postevent/1@window_class@@SAXPAUanonymous$10$postevent/1c_struct@1@@Z 
01:0008D86C ?postEvent@window_class@@SAXQAVwindow@@@PAUevent_struct@vpiDomains_class@@@Z 
01:0008D8AC ?postUserEvent@window_class@@SAXQAVwindow@@@HH@Z 
01:0008D8E0 ?_getClassName@window_class@@SAXQAVwindow@@@PAPB_W@Z 
01:0008D90C ?_timerSet@window_class@@SAXQAVwindow@@@PBUpositive@@AAUtimerId@vpiDomains@@@Z 
01:0008D93C ?timerKill@window_class@@SAXQAVwindow@@@PBUtimerId@vpiDomains@@@Z 
01:0008D94C ?_getAttrVal@window_class@@SAXQAVwindow@@@HPAH@Z 
01:0008D974 $getDialogs$window$predicate$(i,o)$c$_m15 
01:0008D9DC $getChildWindows$window$predicate$(i,o)$c$_m16 
01:0008DA44 ?isChild@window_class@@SAXQAVwindow@@@0@Z 
01:0008DA8C ?isChild@window_class@@SAXPBUwindowHandle@@0@Z 
01:0008DACC ?menuPopUp@window_class@@SAXQAVwindow@@@PAUmenu_struct@vpiDomains_class@@PAUpnt_struct@4@PBUmenuAlign@vpiDomains@@@Z 
01:0008DAF8 ?anonymous$11$cursorset/1@window_class@@SAXPAUanonymous$11$cursorset/1c_struct@1@@Z 
01:0008DB3C ?cursorSet@window_class@@SAXQAVwindow@@@PBUcursor@vpiDomains@@@Z 
01:0008DB7C ?cursorSet@window_class@@SAXQAVwindow@@@PBUcursor@vpiDomains@@PAUboolean_struct@_builtIn_class@@@Z 
01:0008DBBC ?cursorSet@window_class@@SAXQAVwindow@@@PBUhModule@@PBUcursor@vpiDomains@@PAUboolean_struct@_builtIn_class@@@Z 
01:0008DBFC ?_cursorGetPos@window_class@@SAXQAVwindow@@@PAPAUpnt_struct@vpiDomains_class@@@Z 
01:0008DC28 ?_cursorGet@window_class@@SAXQAVwindow@@@AAUcursor@vpiDomains@@@Z 
01:0008DC54 ?_checkState@window_class@@SAXQAVwindow@@@PBUwsflag@vpiDomains@@PAPAUboolean_struct@_builtIn_class@@@Z 
01:0008DCB0 ?isFlagSet@window_class@@SAXQAVwindow@@@PBUwsflag@vpiDomains@@@Z 
01:0008DCDC ?getState@window_class@@SAXQAVwindow@@@PAPAU?$__list_struct@Uwsflag@@@@@Z 
01:0008DDA0 ?setState@window_class@@SAXQAVwindow@@@PAU?$__list_struct@Uwsflag@@@@@Z 
01:0008E0BC ?windowContinue@window_class@@SAXQAVwindow@@@PAXPAPB_W2@Z 
01:0008E0E4 ?setEnabled@window_class@@SAXQAVwindow@@@@Z 
01:0008E10C ?setEnabled@window_class@@SAXQAVwindow@@@PAUboolean_struct@_builtIn_class@@@Z 
01:0008E138 ?_getEnabled@window_class@@SAXQAVwindow@@@PAPAUboolean_struct@_builtIn_class@@@Z 
01:0008E168 ?setVisible@window_class@@SAXQAVwindow@@@@Z 
01:0008E190 ?setVisible@window_class@@SAXQAVwindow@@@PAUboolean_struct@_builtIn_class@@@Z 
01:0008E1BC ?_getVisible@window_class@@SAXQAVwindow@@@PAPAUboolean_struct@_builtIn_class@@@Z 
01:0008E1EC ?clearState@window_class@@SAXQAVwindow@@@PAU?$__list_struct@Uwsflag@@@@@Z 
01:0008E224 ?addState@window_class@@SAXQAVwindow@@@PAU?$__list_struct@Uwsflag@@@@@Z 
01:0008E3CC ?clearStateList@window_class@@SAXQAVwindow@@@PAU?$__list_struct@Uwsflag@@@@@Z 
01:0008E4BC ?isDynStateFlagTrigger@window_class@@SAXQAVwindow@@@PBUwsflag@vpiDomains@@PAPAU?$__list_struct@U3@@@@Z 
01:0008E5A4 ?addShowListener@window_class@@SAXQAVwindow@@@X@Z 
01:0008E5C4 ?removeShowListener@window_class@@SAXQAVwindow@@@X@Z 
01:0008E690 ?handleShow@window_class@@SAXQAVwindowExtension@@@QAVwindow@@@H@Z 
01:0008E718 ?addDestroyListener@window_class@@SAXQAVwindow@@@X@Z 
01:0008E738 ?removeDestroyListener@window_class@@SAXQAVwindow@@@X@Z 
01:0008E804 ?handleDestroy@window_class@@SAXQAVwindowExtension@@@QAVwindow@@@@Z 
01:0008E8A8 ?addGetFocusListener@window_class@@SAXQAVwindow@@@X@Z 
01:0008E8C8 ?removeGetFocusListener@window_class@@SAXQAVwindow@@@X@Z 
01:0008E994 ?handleFocus@window_class@@SAXQAVwindowExtension@@@QAVwindow@@@@Z 
01:0008EA18 ?addLoseFocusListener@window_class@@SAXQAVwindow@@@X@Z 
01:0008EA38 ?removeLoseFocusListener@window_class@@SAXQAVwindow@@@X@Z 
01:0008EB04 ?handleLoseFocus@window_class@@SAXQAVwindowExtension@@@QAVwindow@@@@Z 
01:0008EB88 ?addSizeListener@window_class@@SAXQAVwindow@@@X@Z 
01:0008EBA8 ?removeSizeListener@window_class@@SAXQAVwindow@@@X@Z 
01:0008EC74 ?handleSize@window_class@@SAXQAVwindowExtension@@@QAVwindow@@@HH@Z 
01:0008ECF8 ?addMoveListener@window_class@@SAXQAVwindow@@@X@Z 
01:0008ED18 ?removeMoveListener@window_class@@SAXQAVwindow@@@X@Z 
01:0008EDE4 ?handleMove@window_class@@SAXQAVwindowExtension@@@QAVwindow@@@HH@Z 
01:0008EE68 ?addTimerListener@window_class@@SAXQAVwindow@@@X@Z 
01:0008EE88 ?removeTimerListener@window_class@@SAXQAVwindow@@@X@Z 
01:0008EF58 ?handleTimer@window_class@@SAXQAVwindowExtension@@@QAVwindow@@@PBUtimerId@vpiDomains@@@Z 
01:0008F034 ?delayCall@window_class@@SAXQAVwindow@@@PBUpositive@@X@Z 
01:0008F1D4 ?onDelayCallTimer@window_class@@SAXQAVwindow@@@0PBUtimerId@vpiDomains@@@Z 
01:0008F2C4 ?addMenuItemListener@window_class@@SAXQAVwindow@@@X@Z 
01:0008F2E4 ?removeMenuItemListener@window_class@@SAXQAVwindow@@@X@Z 
01:0008F54C ?addMenuItemListener@window_class@@SAXQAVwindow@@@PBUmenuTag@vpiDomains@@X@Z 
01:0008F58C ?handleMenuCommand@window_class@@SAXQAVwindowExtension@@@QAVwindow@@@PBUmenuTag@vpiDomains@@@Z 
01:0008F5EC ?_retrieveMenuListener@window_class@@SAXQAVwindow@@@PBUmenuTag@vpiDomains@@PAX@Z 
01:0008F694 ?_getContextMenuResponder@window_class@@SAXQAVwindow@@@PAX@Z 
01:0008F6AC ?setContextMenuResponder@window_class@@SAXQAVwindow@@@X@Z 
01:0008F748 ?resetContextMenuResponder@window_class@@SAXQAVwindow@@@@Z 
01:0008F77C ?_defaultContextMenuResponder@window_class@@SAXQAVwindow@@@0PAUcontextMenuInput_struct@1@PAPAUcontextMenuResponse_struct@1@@Z 
01:0008F790 ?_contextMenuHandler@window_class@@SAXQAVwindow@@@PBUwindowHandle@@PAUevent_struct@vpiDomains_class@@PAH@Z 
01:0008F820 ?_parse_wm_contextmenu_lparam@window_class@@SAXPBUwindowHandle@vpiDomains@@HPAPAUcontextMenuInput_struct@1@@Z 
01:0008F874 ?addNativeMessageHandler@window_class@@SAXQAVwindow@@@X@Z 
01:0008F8A4 ?removeNativeMessageHandler@window_class@@SAXQAVwindow@@@X@Z 
01:0008F974 ?anonymous$12$enablehook/0@window_class@@SAXPAUanonymous$12$enablehook/0c_struct@1@@Z 
01:0008F9A8 ?enableHook@window_class@@SAXQAVwindow@@@@Z 
01:0008F9EC ?_handleNative@window_class@@SAXQAVwindowExtension@@@QAVwindow@@@IIHPAPAUnativeResponse_struct@1@@Z 
01:0008FBD8 ?clearMinimizeSize@window_class@@SAXQAVwindow@@@@Z 
01:0008FBF0 ?setMinimizeSize@window_class@@SAXQAVwindow@@@HH@Z 
01:0008FC48 ?handleSetMinimizeSize@window_class@@SAXQAVwindow@@@H@Z 
01:0008FCB8 ?fixMinimumSize@window_class@@SAXPAXH@Z 
01:0008FCE8 ?addUserListener@window_class@@SAXQAVwindow@@@X@Z 
01:0008FD08 ?removeUserListener@window_class@@SAXQAVwindow@@@X@Z 
01:0008FDD8 ?handleUser@window_class@@SAXQAVwindowExtension@@@QAVwindow@@@HH@Z 
01:0008FF38 ?postAction@window_class@@SAXQAVwindow@@@X@Z 
01:0008FF90 ?_getPostActionQueue@window_class@@SAXQAVwindow@@@PAPAVpostActionQueue@@@@Z 
01:00090140 ?addStateListener@window_class@@SAXQAVwindow@@@X@Z 
01:00090160 ?removeStateListener@window_class@@SAXQAVwindow@@@X@Z 
01:00090230 ?handleStateChange@window_class@@SAXQAVwindowExtension@@@QAVwindow@@@PAUstateInfo_struct@vpiDomains_class@@@Z 
01:000902BC ?_getEventHandler@window_class@@SAXQAVwindow@@@PAX@Z 
01:00090308 ?_dispatchAutoHandler@window_class@@SAXQAVwindow@@@PBUwindowHandle@@PAUevent_struct@vpiDomains_class@@PAH@Z 
01:00090910 ?_dummyEventHandler@window_class@@SAXPBUwindowHandle@@PAUevent_struct@vpiDomains_class@@PAH@Z 
01:0009091C ?_eventFormat@window_class@@SAXPAUevent_struct@vpiDomains_class@@PAPB_W@Z  (Idle)
01:000909F8 ?_tryConvertVPIWin2Window@window_class@@SAXPBUwindowHandle@vpiDomains@@PAPAVwindow@@@@Z 
01:00090A20 ?_tryConvertVPIWin2Dialog@window_class@@SAXPBUwindowHandle@vpiDomains@@PAPAVdialog@@@@Z  (Idle)
01:00090A48 ?wrapVPIWin@window_class@@SAXQAVwindow@@@PBUwindowHandle@vpiDomains@@@Z 
01:00090AAC ?unwrapVPIWin@window_class@@SAXQAVwindow@@@@Z 
01:00090B44 ?_unwrap_eventHandler@window_class@@SAXQAVwindow@@@PAX@Z 
01:00090B94 ?wrapExtendedInfo@window_class@@SAXQAVwindow@@@PBUwindowHandle@@@Z 
01:00090C54 ?checkNotWrapped@window_class@@SAXPBUwindowHandle@@@Z 
01:00090CB4 ?_convertVPIWin2Window@window_class@@SAXPBUwindowHandle@vpiDomains@@PAPAVwindow@@@@Z 
01:00090E38 ?checkSaveScreenWin@window_class@@SAXPBUwindowHandle@@QAVwindow@@@@Z 
01:00090ED4 ?saveOldHandler@window_class@@SAXQAVwindow@@@PBUwindowHandle@vpiDomains@@@Z 
01:00091020 ?_dispatchWrapHandler@window_class@@SAXQAVwindow@@@PBUwindowHandle@@PAUevent_struct@vpiDomains_class@@PAH@Z 
01:00091098 ?memberState@window_class@@SAXPBUwsflag@vpiDomains@@PAU?$__list_struct@U2@@@@Z  (Idle)
01:000910C8 ?memberState_nd@window_class@@SAXAAUwsflag@vpiDomains@@PAU?$__list_struct@U2@@@@Z  (Idle)
01:000910F8 ?_getProcessWindow@window_class@@SAXPAXPAPAVwindow@@@@Z  (Idle)
01:00091118 ?_getScreenWindow@window_class@@SAXPAPAVwindow@@@@Z 
01:00091184 ?_tryGetFocusWindow@window_class@@SAXPAPAVwindow@@@@Z 
01:000911AC ?_getActiveWindow@window_class@@SAXPAPAVwindow@@@@Z  (Idle)
01:000911D4 ?_new@window_class@@SAXPAPAVwindow@@@@Z  (Idle)
01:000911FC ?_new@window_class@@SAXQAVwindow@@@PAPAV2@@@Z  (Idle)
01:00091224 ?_wrapVPIWin@window_class@@SAXPBUwindowHandle@vpiDomains@@PAPAVwindow@@@@Z 
01:0009124C ?_class_facts_initializer@window_class@@SGXXZ 
01:0009127C ?_object_facts_initializer@window_class@@SGXQAVwindow@@@@Z 
01:000912C4 ?actionUserEventId@window_class@@SAXH@Z  (Idle)
01:000912D4 ?_actionUserEventId@window_class@@SAXPAH@Z  (Idle)
01:000912E8 ?classInfo@dialog_class@@SAXPAPB_W0@Z 
01:00091304 ?new@dialog_class@@SAXQAVdialog@@@@Z 
01:00091414 ?_getDialogExtension@dialog_class@@SAXQAVdialog@@@PAPAVdialogExtension@@@@Z 
01:00091428 ?_getDefaultDialogExtension@dialog_class@@SAXQAVdialog@@@PAPAVdialogExtension@@@@Z 
01:0009143C ?setDialogExtension@dialog_class@@SAXQAVdialog@@@QAVdialogExtension@@@@Z 
01:00091468 ?setDrawWindowExtension@dialog_class@@SAXQAVdrawWindow@@@QAVdrawWindowExtension@@@@Z 
--- From 'Obj\taskwindow.obj'
01:0009148C ?new@dialog_class@@SAXQAVdialog@@@QAVwindow@@@@Z 
--- From 'Obj\gui.obj'
01:000914AC ?wrapVPIWin@dialog_class@@SAXQAVdialog@@@PBUwindowHandle@vpiDomains@@@Z 
01:00091548 ?addListeners@dialog_class@@SAXQAVdialog@@@@Z 
01:000915E8 ?show@dialog_class@@SAXQAVwindow@@@@Z 
01:00091740 ?onDialogShow@dialog_class@@SAXQAVdialog@@@QAVwindow@@@H@Z 
01:0009175C ?onDialogSize@dialog_class@@SAXQAVdialog@@@QAVwindow@@@@Z 
01:00091768 ?onDialogMove@dialog_class@@SAXQAVdialog@@@QAVwindow@@@@Z 
01:00091774 ?updateDialogUnitRect@dialog_class@@SAXQAVdialog@@@@Z 
01:000917C4 ?getEventHandler@dialog_class@@SAXQAVwindow@@@PAX@Z 
01:000917F4 ?_dialogAutoHandler@dialog_class@@SAXQAVdialog@@@PBUwindowHandle@@PAUevent_struct@vpiDomains_class@@PAH@Z 
01:000919B0 ?setModal@dialog_class@@SAXQAVdialog@@@PAUboolean_struct@_builtIn_class@@@Z 
01:00091A2C ?_getModal@dialog_class@@SAXQAVdialog@@@PAPAUboolean_struct@_builtIn_class@@@Z 
01:00091A58 ?suspendLayout@dialog_class@@SAXQAVdialog@@@@Z 
01:00091A98 ?isLayoutSuspended@dialog_class@@SAXQAVdialog@@@@Z 
01:00091AB0 ?resumeLayout@dialog_class@@SAXQAVdialog@@@@Z 
01:00091AEC ?layout@dialog_class@@SAXQAVdialog@@@@Z 
01:00091B44 ?moveDialog@dialog_class@@SAXQAVdialog@@@PBUwindowHandle@vpiDomains@@@Z 
01:00091C0C ?_adjustRectangleFromParentToScreen@dialog_class@@SAXQAVdialog@@@PBUwindowHandle@vpiDomains@@PAUrct_struct@vpiDomains_class@@PAPAU56@@Z 
01:00091E50 ?movePendedControls@dialog_class@@SAXQAVdialog@@@@Z 
01:00091F08 ?moveControl@dialog_class@@SAXQAVdialog@@@QAVcontrol@@@@Z 
01:00091FC0 ?setUnit@dialog_class@@SAXQAVdialog@@@PAUunit_struct@1@@Z 
01:00092038 ?_getUnit@dialog_class@@SAXQAVdialog@@@PAPAUunit_struct@1@@Z 
01:00092064 ?setPosition@dialog_class@@SAXQAVdialog@@@PAUpnt_struct@vpiDomains_class@@@Z 
01:000920E4 ?setPosition@dialog_class@@SAXQAVdialog@@@HH@Z 
01:00092110 ?_getPosition@dialog_class@@SAXQAVdialog@@@PAPAUpnt_struct@vpiDomains_class@@@Z 
01:0009216C ?getPosition@dialog_class@@SAXQAVdialog@@@PAHPAH@Z 
01:0009219C ?setSize@dialog_class@@SAXQAVdialog@@@HH@Z 
01:00092220 ?getSize@dialog_class@@SAXQAVdialog@@@PAHPAH@Z 
01:0009227C ?setWidth@dialog_class@@SAXQAVdialog@@@H@Z 
01:000922B8 ?_getWidth@dialog_class@@SAXQAVdialog@@@PAH@Z 
01:000922D8 ?setHeight@dialog_class@@SAXQAVdialog@@@H@Z 
01:00092314 ?getHeight@dialog_class@@SAXQAVdialog@@@PAH@Z 
01:00092334 ?setRect@dialog_class@@SAXQAVdialog@@@PAUrct_struct@vpiDomains_class@@@Z 
01:0009239C ?_getRect@dialog_class@@SAXQAVdialog@@@PAPAUrct_struct@vpiDomains_class@@@Z 
01:000923B0 ?rectPixel2Unit@dialog_class@@SAXQAVdialog@@@PAUrct_struct@vpiDomains_class@@PAPAU34@@Z 
01:0009247C ?rectUnit2Pixel@dialog_class@@SAXQAVdialog@@@PAUrct_struct@vpiDomains_class@@PAPAU34@@Z 
01:00092548 ?pntPixel2Unit@dialog_class@@SAXQAVdialog@@@PAUpnt_struct@vpiDomains_class@@PAPAU34@@Z 
01:000926C8 ?pntUnit2Pixel@dialog_class@@SAXQAVdialog@@@PAUpnt_struct@vpiDomains_class@@PAPAU34@@Z 
01:0009279C ?_convertVPIWin2dialog@dialog_class@@SAXPBUwindowHandle@vpiDomains@@PAPAV4@@@Z 
01:00092810 ?setDefaultButton@dialog_class@@SAXQAVdialog@@@QAVbutton@@@@Z 
01:000929F0 ?onDefaultButtonShow@dialog_class@@SAXQAVdialog@@@QAVwindow@@@H@Z 
01:00092A40 ?onDefaultButtonState@dialog_class@@SAXQAVdialog@@@QAVwindow@@@PAUstateInfo_struct@vpiDomains_class@@@Z 
01:00092B98 ?clearAndSetDefaultFlags@dialog_class@@SAXQAVdialog@@@QAVbutton@@@@Z 
01:00092CA4 ?buttonSetNativeFlag@dialog_class@@SAXQAVbutton@@@@Z 
01:00092CF0 ?_tryGetDefaultButton@dialog_class@@SAXQAVdialog@@@PAPAVbutton@@@@Z 
01:00092DA8 ?initFocus@dialog_class@@SAXQAVdialog@@@@Z 
01:00092ECC ?setInitFocus@dialog_class@@SAXQAVdialog@@@QAVcontrol@@@@Z 
01:00092F48 ?_tryGetInitFocus@dialog_class@@SAXQAVdialog@@@PAPAVcontrol@@@@Z 
01:00093054 ?addValidateResponder@dialog_class@@SAXQAVdialog@@@X@Z 
01:00093074 ?removeValidateResponder@dialog_class@@SAXQAVdialog@@@X@Z 
01:00093140 ?_validate@dialog_class@@SAXQAVdialog@@@PAPAUvalidateResult_struct@1@@Z 
01:00093278 ?tryValidateWithErrorDialog@dialog_class@@SAXQAVdialog@@@@Z 
01:000932EC ?_new@dialog_class@@SAXPAPAVdialog@@@@Z  (Idle)
01:00093314 ?_new@dialog_class@@SAXQAVwindow@@@PAPAVdialog@@@@Z  (Idle)
01:0009333C ?_wrapVPIWin@dialog_class@@SAXPBUwindowHandle@vpiDomains@@PAPAVdialog@@@@Z 
01:00093364 ?_object_facts_initializer@dialog_class@@SGXQAVdialog@@@@Z 
01:000933AC ?handlePaint@dialog_class@@SAXQAVdrawWindowExtension@@@QAVdrawWindow@@@PAUrct_struct@vpiDomains_class@@QAVwindowGDI@@@@Z 
01:000933C8 ?_handleEraseBackground@dialog_class@@SAXQAVdrawWindowExtension@@@QAVdrawWindow@@@PAPAUeraseBackgroundResponse_struct@drawWindow_class@@@Z 
01:000933E4 ?handleMouseDown@dialog_class@@SAXQAVdrawWindowExtension@@@QAVdrawWindow@@@PAUpnt_struct@vpiDomains_class@@PBUkeyModifier@vpiDomains@@H@Z 
01:00093400 ?handleMouseUp@dialog_class@@SAXQAVdrawWindowExtension@@@QAVdrawWindow@@@PAUpnt_struct@vpiDomains_class@@PBUkeyModifier@vpiDomains@@H@Z 
01:0009341C ?handleMouseMove@dialog_class@@SAXQAVdrawWindowExtension@@@QAVdrawWindow@@@PAUpnt_struct@vpiDomains_class@@PBUkeyModifier@vpiDomains@@PAU?$__list_struct@Uinteger@@@@@Z 
01:00093438 ?handleMouseDbl@dialog_class@@SAXQAVdrawWindowExtension@@@QAVdrawWindow@@@PAUpnt_struct@vpiDomains_class@@PBUkeyModifier@vpiDomains@@H@Z 
01:00093454 ?_handleChar@dialog_class@@SAXQAVdrawWindowExtension@@@QAVdrawWindow@@@HPBUkeyModifier@vpiDomains@@PAPAUcharResponse_struct@drawWindow_class@@@Z 
01:00093470 ?_handleKeyDown@dialog_class@@SAXQAVdrawWindowExtension@@@QAVdrawWindow@@@HPBUkeyModifier@vpiDomains@@PAPAUkeyDownResponse_struct@drawWindow_class@@@Z 
01:0009348C ?_handleKeyUp@dialog_class@@SAXQAVdrawWindowExtension@@@QAVdrawWindow@@@HPBUkeyModifier@vpiDomains@@PAPAUkeyUpResponse_struct@drawWindow_class@@@Z 
01:000934A8 ?handleVScroll@dialog_class@@SAXQAVdrawWindowExtension@@@QAVdrawWindow@@@PBUscrollCode@vpiDomains@@H@Z 
01:000934C4 ?handleHScroll@dialog_class@@SAXQAVdrawWindowExtension@@@QAVdrawWindow@@@PBUscrollCode@vpiDomains@@H@Z 
01:000934E0 ?handleShow@dialog_class@@SAXQAVwindowExtension@@@QAVwindow@@@H@Z 
01:000934F8 ?handleDestroy@dialog_class@@SAXQAVwindowExtension@@@QAVwindow@@@@Z 
01:00093514 ?handleSize@dialog_class@@SAXQAVwindowExtension@@@QAVwindow@@@HH@Z 
01:00093530 ?handleMove@dialog_class@@SAXQAVwindowExtension@@@QAVwindow@@@HH@Z 
01:0009354C ?handleFocus@dialog_class@@SAXQAVwindowExtension@@@QAVwindow@@@@Z 
01:00093568 ?handleLoseFocus@dialog_class@@SAXQAVwindowExtension@@@QAVwindow@@@@Z 
01:00093584 ?handleMenuCommand@dialog_class@@SAXQAVwindowExtension@@@QAVwindow@@@PBUmenuTag@vpiDomains@@@Z 
01:000935A0 ?handleTimer@dialog_class@@SAXQAVwindowExtension@@@QAVwindow@@@PBUtimerId@vpiDomains@@@Z 
01:000935BC ?_handleNative@dialog_class@@SAXQAVwindowExtension@@@QAVwindow@@@IIHPAPAUnativeResponse_struct@window_class@@@Z 
01:000935D8 ?handleUser@dialog_class@@SAXQAVwindowExtension@@@QAVwindow@@@HH@Z 
01:000935F4 ?handleStateChange@dialog_class@@SAXQAVwindowExtension@@@QAVwindow@@@PAUstateInfo_struct@vpiDomains_class@@@Z 
01:00093610 ?classInfo@applicationWindow_class@@SAXPAPB_W0@Z 
--- From 'Obj\taskwindow.obj'
01:0009362C ?new@applicationWindow_class@@SAXQAVapplicationWindow@@@@Z 
--- From 'Obj\gui.obj'
01:00093730 ?_getParent@applicationWindow_class@@SAXQAVwindow@@@PAPAV2@@@Z 
01:00093744 ?setParent@applicationWindow_class@@SAXQAVwindow@@@0@Z 
01:0009375C ?_get@applicationWindow_class@@SAXPAPAVapplicationWindow@@@@Z 
01:000937A0 ?checkSecondCreation@applicationWindow_class@@SAXXZ 
01:000937C0 ?setMdiProperty@applicationWindow_class@@SAXQAVapplicationWindow@@@PAUboolean_struct@_builtIn_class@@@Z 
01:0009381C ?_getMdiProperty@applicationWindow_class@@SAXQAVapplicationWindow@@@PAPAUboolean_struct@_builtIn_class@@@Z 
01:0009383C ?setMaximized@applicationWindow_class@@SAXQAVapplicationWindow@@@PAUboolean_struct@_builtIn_class@@@Z 
01:00093874 ?_getMaximized@applicationWindow_class@@SAXQAVapplicationWindow@@@PAPAUboolean_struct@_builtIn_class@@@Z 
01:000938D8 ?isMaximized@applicationWindow_class@@SAXQAVapplicationWindow@@@@Z 
01:00093924 ?getMdiClientSize@applicationWindow_class@@SAXQAVapplicationWindow@@@AAUpositive@@1@Z 
01:00093A00 ?show@applicationWindow_class@@SAXQAVwindow@@@@Z 
01:00093AE8 ?_createProcess@applicationWindow_class@@SAXQAVapplicationWindow@@@PB_W1PBUwsflag@vpiDomains@@PAPAX@Z 
01:00093B24 ?setErrorResponder@applicationWindow_class@@SAXQAVapplicationWindow@@@X@Z 
01:00093B64 ?_getErrorResponder@applicationWindow_class@@SAXQAVapplicationWindow@@@PAX@Z 
01:00093B78 ?internalGuiErrorHandler@applicationWindow_class@@SAXQAVapplicationWindow@@@PBUwindowHandle@@PBUtraceId@exception@@@Z 
01:00093BB4 ?_getEndSessionResponder@applicationWindow_class@@SAXQAVapplicationWindow@@@PAX@Z 
01:00093BC8 ?setEndSessionResponder@applicationWindow_class@@SAXQAVapplicationWindow@@@X@Z 
01:00093BDC ?resetEndSessionResponder@applicationWindow_class@@SAXQAVapplicationWindow@@@@Z 
01:00093C0C ?_defaultEndSessionResponder@applicationWindow_class@@SAXQAVapplicationWindow@@@0PAUboolean_struct@_builtIn_class@@PAPAUendSessionResponse_struct@1@@Z 
01:00093C20 ?addEndApplicationListener@applicationWindow_class@@SAXQAVapplicationWindow@@@X@Z 
01:00093C40 ?removeEndApplicationListener@applicationWindow_class@@SAXQAVapplicationWindow@@@X@Z 
01:00093D0C ?_dispatchEnd@applicationWindow_class@@SAXQAVapplicationWindow@@@PBUwindowHandle@@PAUevent_struct@vpiDomains_class@@PAH@Z 
01:00093E08 ?_new@applicationWindow_class@@SAXPAPAVapplicationWindow@@@@Z 
01:00093E30 ?_object_facts_initializer@applicationWindow_class@@SGXQAVapplicationWindow@@@@Z 
01:00096B9C popupWindow?_initObject@@@QAGXQAV1@H@Z 
01:00096BE4 ?@create_object@popupWindow_class@@SGQAVpopupWindow@@@XZ 
01:00096C00 popupWindow?_InternalFinalizer@@@QAGXQAV1@@Z 
01:00097638 pictureCanvas?_initObject@@@QAGXQAV1@H@Z 
01:00097664 ?@create_object@pictureCanvas_class@@SGQAVpictureCanvas@@@XZ 
01:00097680 pictureCanvas?_InternalFinalizer@@@QAGXQAV1@@Z 
01:00097694 frameDecoration?_initObject@@@QAGXQAV1@H@Z 
01:000976B4 ?@create_object@frameDecoration_class@@SGQAVframeDecoration@@@XZ 
01:000976D0 frameDecoration?_InternalFinalizer@@@QAGXQAV1@@Z 
--- From 'Obj\messagecontrol.obj'
01:0009BAB8 formWindow?_initObject@@@QAGXQAV1@H@Z 
--- From 'Obj\gui.obj'
01:0009BB00 ?@create_object@formWindow_class@@SGQAVformWindow@@@XZ 
--- From 'Obj\messagecontrol.obj'
01:0009BB1C formWindow?_InternalFinalizer@@@QAGXQAV1@@Z 
--- From 'Obj\gui.obj'
01:0009CDB8 drawWindow?_initObject@@@QAGXQAV1@H@Z 
01:0009CE00 ?@create_object@drawWindow_class@@SGQAVdrawWindow@@@XZ 
01:0009CE1C drawWindow?_InternalFinalizer@@@QAGXQAV1@@Z 
01:0009E640 documentWindow?_initObject@@@QAGXQAV1@H@Z 
01:0009E694 ?@create_object@documentWindow_class@@SGQAVdocumentWindow@@@XZ 
01:0009E6B0 documentWindow?_InternalFinalizer@@@QAGXQAV1@@Z 
01:0009F0F0 childWindow?_initObject@@@QAGXQAV1@H@Z 
01:0009F118 ?@create_object@childWindow_class@@SGQAVchildWindow@@@XZ 
01:0009F134 childWindow?_InternalFinalizer@@@QAGXQAV1@@Z 
--- From 'Obj\messagecontrol.obj'
01:0009F680 window?_initObject@@@QAGXQAV1@H@Z 
--- From 'Obj\gui.obj'
01:0009F6B0 ?@create_object@window_class@@SGQAVwindow@@@XZ 
--- From 'Obj\messagecontrol.obj'
01:0009F6CC window?_InternalFinalizer@@@QAGXQAV1@@Z 
--- From 'Obj\taskwindow.obj'
01:000A266C dialog?_initObject@@@QAGXQAV1@H@Z 
--- From 'Obj\gui.obj'
01:000A26DC ?@create_object@dialog_class@@SGQAVdialog@@@XZ 
--- From 'Obj\taskwindow.obj'
01:000A26F8 dialog?_InternalFinalizer@@@QAGXQAV1@@Z 
01:000A332C applicationWindow?_initObject@@@QAGXQAV1@H@Z 
--- From 'Obj\gui.obj'
01:000A3374 ?@create_object@applicationWindow_class@@SGQAVapplicationWindow@@@XZ 
--- From 'Obj\taskwindow.obj'
01:000A3390 applicationWindow?_InternalFinalizer@@@QAGXQAV1@@Z 
--- From 'Obj\guisupport.obj'
01:000A33A0 ?enqueue@postActionQueue_class@@SAXQAVpostActionQueue@@@X@Z 
01:000A343C ?_tryDequeue@postActionQueue_class@@SAXQAVpostActionQueue@@@PAX@Z 
01:000A35E0 ?classInfo@postActionQueue_class@@SAXPAPB_W0@Z  (Idle)
01:000A35FC ?new@postActionQueue_class@@SAXQAVpostActionQueue@@@@Z 
01:000A3604 ?_new@postActionQueue_class@@SAXPAPAVpostActionQueue@@@@Z 
01:000A362C ?_object_facts_initializer@postActionQueue_class@@SGXQAVpostActionQueue@@@@Z 
01:000A3658 ?classInfo@guiSupport_exception_class@@SAXPAPB_W0@Z 
01:000A3674 ?raise_ControlHasNoContainerException@guiSupport_exception_class@@SAXXQAVcontrol@@@@Z 
01:000A36F4 ?raise_CouldNotChangeContainerException@guiSupport_exception_class@@SAXXQAVcontrol@@@@Z 
01:000A3774 ?raise_ControlDoesNotBelongToContainerException@guiSupport_exception_class@@SAXXQAVcontrol@@@@Z 
01:000A37F4 ?raise_ControlAlreadyExistsInContainerException@guiSupport_exception_class@@SAXXQAVcontrol@@@@Z 
01:000A3874 ?controlHasNoContainer_exception@guiSupport_exception_class@@SAXPAXPAPB_W1@Z 
01:000A389C ?couldNotChangeContainer_exception@guiSupport_exception_class@@SAXPAXPAPB_W1@Z 
01:000A38C4 ?controlDoesNotBelongToContainer_exception@guiSupport_exception_class@@SAXPAXPAPB_W1@Z 
01:000A38EC ?controlAlreadyExistsInContainer_exception@guiSupport_exception_class@@SAXPAXPAPB_W1@Z 
01:000A3914 ?classInfo@containerWindowSupport_class@@SAXPAPB_W0@Z 
01:000A3930 ?new@containerWindowSupport_class@@SAXQAVcontainerWindowSupport@@@QAVcontainerWindow@@@@Z 
01:000A39FC ?onContainerShow@containerWindowSupport_class@@SAXQAVcontainerWindowSupport@@@QAVwindow@@@H@Z 
01:000A3A08 ?createControls@containerWindowSupport_class@@SAXQAVcontainerWindowSupport@@@@Z 
01:000A3AA0 ?_onControlHandler@containerWindowSupport_class@@SAXQAVcontainerWindowSupport@@@PBUwindowHandle@@PAUevent_struct@vpiDomains_class@@PAH@Z 
01:000A3B50 ?_onNativeEvent@containerWindowSupport_class@@SAXQAVcontainerWindowSupport@@@QAVwindow@@@IIHPAPAUnativeResponse_struct@window_class@@@Z 
01:000A3C08 ?addControl@containerWindowSupport_class@@SAXQAVcontainerWindowSupport@@@QAVcontrol@@@H@Z 
01:000A3C3C ?addControl@containerWindowSupport_class@@SAXQAVcontainerWindowSupport@@@QAVcontrol@@@PAH@Z 
01:000A3DE0 ?delControl@containerWindowSupport_class@@SAXQAVcontainerWindowSupport@@@QAVcontrol@@@@Z 
01:000A3FA4 ?delContainerControl@containerWindowSupport_class@@SAXQAVcontainerWindowSupport@@@QAVcontrol@@@@Z 
01:000A40BC ?_addContainerControl@containerWindowSupport_class@@SAXQAVcontainerWindowSupport@@@QAVcontainerControl@@@PAH@Z 
01:000A4100 ?_getContainerControl_nd@containerWindowSupport_class@@SAXQAVcontainerWindowSupport@@@PAPAVcontainerControl@@@@Z 
01:000A414C ?_tryGetControl@containerWindowSupport_class@@SAXQAVcontainerWindowSupport@@@PAPAVcontrol@@@@Z 
01:000A4158 ?setGroupIfFirstControl@containerWindowSupport_class@@SAXQAVcontainerWindowSupport@@@QAVcontrol@@@@Z 
01:000A41B0 ?setGroupIfPreviousIsContainer@containerWindowSupport_class@@SAXQAVcontainerWindowSupport@@@QAVcontrol@@@@Z 
01:000A4210 ?isContainer@containerWindowSupport_class@@SAXQAVcontrol@@@@Z 
01:000A4268 ?preventRadioButtonBeforeContainer@containerWindowSupport_class@@SAXQAVcontainerWindowSupport@@@QAVcontrol@@@@Z 
01:000A42E8 ?_lookupControl_dt@containerWindowSupport_class@@SAXQAVcontainerWindowSupport@@@HPAPAVcontrol@@@@Z 
01:000A4364 ?_lookupNestedControl_dt@containerWindowSupport_class@@SAXQAVcontainerWindowSupport@@@HPAPAVcontrol@@@@Z 
01:000A43F8 ?getControl_nd@containerWindowSupport_class@@SAXQAVcontainerWindowSupport@@@PAPAVcontrol@@@PAH@Z 
01:000A44C0 ?_getControl_nd@containerWindowSupport_class@@SAXQAVcontainerWindowSupport@@@PAPAVcontrol@@@@Z 
01:000A44E4 ?getNestedControl_nd@containerWindowSupport_class@@SAXQAVcontainerWindowSupport@@@PAPAVcontrol@@@@Z 
01:000A4548 ?_getNestedControl_nd@containerWindowSupport_class@@SAXQAVcontainerWindowSupport@@@QAVcontrol@@@PAPAV3@@@Z 
01:000A4614 ?_tryGetPreviousControl@containerWindowSupport_class@@SAXQAVcontainerWindowSupport@@@QAVcontrol@@@PAPAV3@@@Z 
01:000A468C ?_tryGetNextControl@containerWindowSupport_class@@SAXQAVcontainerWindowSupport@@@QAVcontrol@@@PAPAV3@@@Z 
01:000A46F0 ?_getRadioButtonGroup@containerWindowSupport_class@@SAXQAVcontainerWindowSupport@@@PAPAVradioButtonGroup@@@@Z 
01:000A4774 ?_new@containerWindowSupport_class@@SAXQAVcontainerWindow@@@PAPAVcontainerWindowSupport@@@@Z  (Idle)
01:000A479C ?_object_facts_initializer@containerWindowSupport_class@@SGXQAVcontainerWindowSupport@@@@Z 
01:000A47BC $pairMember_dt$containerWindowSupport$predicate$(i,o,i)$c$_m21 
01:000A4830 $pairMember_dt$containerWindowSupport$predicate$(i,i,o)$c$_m21 
01:000A48AC postActionQueue?_initObject@@@QAGXQAV1@H@Z 
01:000A48D0 ?@create_object@postActionQueue_class@@SGQAVpostActionQueue@@@XZ 
01:000A48EC postActionQueue?_InternalFinalizer@@@QAGXQAV1@@Z 
01:000A4900 containerWindowSupport?_initObject@@@QAGXQAV1@H@Z 
01:000A4924 ?@create_object@containerWindowSupport_class@@SGQAVcontainerWindowSupport@@@XZ 
01:000A4940 containerWindowSupport?_InternalFinalizer@@@QAGXQAV1@@Z 
--- From 'Obj\messagecontrol.obj'
01:000A4950 ?classInfo@messageForm_class@@SAXPAPB_W0@Z 
01:000A496C ?new@messageForm_class@@SAXQAVmessageForm@@@QAVapplicationWindow@@@@Z 
01:000A4B14 ?_display@messageForm_class@@SAXQAVapplicationWindow@@@PAPAVmessageForm@@@@Z  (Idle)
01:000A4B3C ?show@messageForm_class@@SAXQAVwindow@@@@Z 
01:000A4B68 ?focusListener@messageForm_class@@SAXQAVmessageForm@@@QAVwindow@@@@Z 
01:000A4BB4 ?resizeListener@messageForm_class@@SAXQAVmessageForm@@@QAVwindow@@@@Z 
01:000A4C30 ?onParentResize@messageForm_class@@SAXQAVmessageForm@@@QAVwindow@@@@Z 
01:000A4D08 ?onUserParentResize@messageForm_class@@SAXQAVmessageForm@@@QAVwindow@@@HH@Z 
01:000A4D70 ?resizeMessageForm@messageForm_class@@SAXQAVmessageForm@@@HH@Z 
01:000A4DF8 ?_calculateY@messageForm_class@@SAXPAUverticalSize_struct@1@HPAH@Z 
01:000A4EC8 ?setVerticalSize@messageForm_class@@SAXQAVmessageForm@@@PAUverticalSize_struct@1@@Z 
01:000A4F3C ?_getVerticalSize@messageForm_class@@SAXQAVmessageForm@@@PAPAUverticalSize_struct@1@@Z 
01:000A4F50 ?onDestroy@messageForm_class@@SAXQAVmessageForm@@@QAVwindow@@@@Z 
01:000A4FA0 ?_getOutputStream@messageForm_class@@SAXQAVmessageForm@@@PAPAVoutputStream@@@@Z 
01:000A4FBC ?badRatio_exception@messageForm_class@@SAXPAXPAPB_W1@Z 
01:000A4FE4 ?_getMessageControl@messageForm_class@@SAXQAVmessageForm@@@PAPAVmessageControl@@@@Z 
--- From 'Obj\taskwindow.obj'
01:000A4FF8 ?_new@messageForm_class@@SAXQAVapplicationWindow@@@PAPAVmessageForm@@@@Z 
--- From 'Obj\messagecontrol.obj'
01:000A5020 ?_object_facts_initializer@messageForm_class@@SGXQAVmessageForm@@@@Z 
01:000A5060 ?classInfo@messageControl_class@@SAXPAPB_W0@Z  (Idle)
01:000A507C ?new@messageControl_class@@SAXQAVmessageControl@@@@Z 
01:000A5240 ?new@messageControl_class@@SAXQAVmessageControl@@@QAVcontainerWindow@@@@Z 
01:000A525C ?getBuffer@messageControl_class@@SGXQAVbufferSupport@@@PAPAXAAUbyteCount@@@Z 
01:000A52A0 ?getBufferLocked@messageControl_class@@SGXQAVbufferSupport@@@PAPAXAAUbyteCount@@@Z 
01:000A52BC ?show@messageControl_class@@SAXQAVwindow@@@@Z 
01:000A54C0 ?setLines@messageControl_class@@SAXQAVmessageControl@@@I@Z 
01:000A54D4 ?clear@messageControl_class@@SAXQAVmessageControl@@@@Z 
01:000A5510 ?setReadonly@messageControl_class@@SAXQAVmessageControl@@@PAUboolean_struct@_builtIn_class@@@Z 
01:000A5588 ?bufferFullCallBack@messageControl_class@@SAXQAVmessageControl@@@PAXPBUbyteCount@@PAPAXAAU3@@Z 
01:000A56A0 ?writeZero@messageControl_class@@SAXQAVmessageControl@@@PAXPBUbyteCount@@@Z 
01:000A56E4 ?_copy_possible@messageControl_class@@SAXQAVmessageControl@@@AAUbooleanInt@@@Z 
01:000A573C ?_onControlNative@messageControl_class@@SAXQAVmessageControl@@@QAVwindow@@@IIHPAPAUnativeResponse_struct@window_class@@@Z 
01:000A589C ?_onContextMenu@messageControl_class@@SAXQAVmessageControl@@@QAVwindow@@@PAUcontextMenuInput_struct@window_class@@PAPAUcontextMenuResponse_struct@5@@Z 
01:000A5978 ?onMenu@messageControl_class@@SAXQAVmessageControl@@@QAVwindow@@@PBUmenuTag@vpiDomains@@@Z 
01:000A5A78 ?_getOutputStream@messageControl_class@@SAXQAVmessageControl@@@PAPAVoutputStream@@@@Z 
01:000A5A8C ?_new@messageControl_class@@SAXQAVcontainerWindow@@@PAPAVmessageControl@@@@Z 
01:000A5AB4 ?_new@messageControl_class@@SAXPAPAVmessageControl@@@@Z  (Idle)
01:000A5ADC ?_object_facts_initializer@messageControl_class@@SGXQAVmessageControl@@@@Z 
01:000A8048 messageForm?_initObject@@@QAGXQAV1@H@Z 
01:000A808C ?@create_object@messageForm_class@@SGQAVmessageForm@@@XZ 
01:000A80A8 messageForm?_InternalFinalizer@@@QAGXQAV1@@Z 
01:000A94C4 messageControl?_initObject@@@QAGXQAV1@H@Z 
01:000A951C ?@create_object@messageControl_class@@SGQAVmessageControl@@@XZ 
01:000A9538 messageControl?_InternalFinalizer@@@QAGXQAV1@@Z 
--- From 'Obj\stream.obj'
01:000A9550 ?classInfo@stream_exception_class@@SAXPAPB_W0@Z 
--- From 'Obj\binary.obj'
01:000A956C ?raise_EndOfStream@stream_exception_class@@SAXX@Z 
--- From 'Obj\stream.obj'
01:000A9584 ?raise_notSupportedProperty@stream_exception_class@@SAXX@Z 
--- From 'Obj\binary.obj'
01:000A959C ?raise_NoCRLFconversion@stream_exception_class@@SAXX@Z 
01:000A95B4 ?raise_WrongMode@stream_exception_class@@SAXXPB_W1@Z 
--- From 'Obj\stream.obj'
01:000A9670 ?raise_NoStream@stream_exception_class@@SAXXPB_W@Z 
01:000A96E0 ?endOfStream@stream_exception_class@@SAXPAXPAPB_W1@Z 
01:000A9708 ?notSupportedProperty@stream_exception_class@@SAXPAXPAPB_W1@Z 
01:000A9730 ?noCRLFconversion@stream_exception_class@@SAXPAXPAPB_W1@Z 
01:000A9758 ?wrongMode@stream_exception_class@@SAXPAXPAPB_W1@Z 
01:000A9780 ?noStream@stream_exception_class@@SAXPAXPAPB_W1@Z 
01:000A97A8 ?classInfo@stdIOState_class@@SAXPAPB_W0@Z 
01:000A97C4 ?setInputStream@stdIOState_class@@SAXQAVstdIOState@@@QAVinputStream@@@@Z 
01:000A9810 ?_getInputStream@stdIOState_class@@SAXQAVstdIOState@@@PAPAVinputStream@@@@Z 
01:000A9860 ?_tryGetInputStream@stdIOState_class@@SAXQAVstdIOState@@@PAPAVinputStream@@@@Z 
01:000A9888 ?setOutputStream@stdIOState_class@@SAXQAVstdIOState@@@QAVoutputStream@@@@Z 
01:000A98D4 ?_getOutputStream@stdIOState_class@@SAXQAVstdIOState@@@PAPAVoutputStream@@@@Z 
01:000A9924 ?_tryGetOutputStream@stdIOState_class@@SAXQAVstdIOState@@@PAPAVoutputStream@@@@Z 
01:000A994C ?setErrorStream@stdIOState_class@@SAXQAVstdIOState@@@QAVoutputStream@@@@Z 
01:000A9998 ?_getErrorStream@stdIOState_class@@SAXQAVstdIOState@@@PAPAVoutputStream@@@@Z 
01:000A99E8 ?_tryGetErrorStream@stdIOState_class@@SAXQAVstdIOState@@@PAPAVoutputStream@@@@Z 
01:000A9A10 ?new@stdIOState_class@@SAXQAVstdIOState@@@@Z 
01:000A9A18 ?_new@stdIOState_class@@SAXPAPAVstdIOState@@@@Z 
01:000A9A40 ?setInputStream@stdio_class@@SAXQAVinputStream@@@@Z  (Idle)
01:000A9A6C ?_getInputStream@stdio_class@@SAXPAPAVinputStream@@@@Z  (Idle)
01:000A9A94 ?_tryGetInputStream@stdio_class@@SAXPAPAVinputStream@@@@Z  (Idle)
01:000A9AC0 ?setOutputStream@stdio_class@@SAXQAVoutputStream@@@@Z 
01:000A9AEC ?_getOutputStream@stdio_class@@SAXPAPAVoutputStream@@@@Z  (Idle)
01:000A9B18 ?_tryGetOutputStream@stdio_class@@SAXPAPAVoutputStream@@@@Z 
01:000A9B44 ?setErrorStream@stdio_class@@SAXQAVoutputStream@@@@Z  (Idle)
01:000A9B70 ?_getErrorStream@stdio_class@@SAXPAPAVoutputStream@@@@Z  (Idle)
01:000A9B9C ?_tryGetErrorStream@stdio_class@@SAXPAPAVoutputStream@@@@Z  (Idle)
--- From 'Obj\taskwindow.obj'
01:000A9BC8 ?write@stdio_class@@SAXXZ 
--- From 'Obj\stream.obj'
01:000A9C00 ?writef@stdio_class@@SAXPB_W@Z  (Idle)
01:000A9C44 ?writeBytes@stdio_class@@SAXPAXPBUbyteCount@@@Z  (Idle)
01:000A9C74 ?writeQuoted@stdio_class@@SAXXZ  (Idle)
01:000A9CAC ?nl@stdio_class@@SAXXZ  (Idle)
01:000A9CD4 ?save@stdio_class@@SAXPBUfactDB@@@Z  (Idle)
01:000A9D00 ?flush@stdio_class@@SAXXZ  (Idle)
01:000A9D28 ?write_error@stdio_class@@SAXXZ  (Idle)
01:000A9D60 ?writef_error@stdio_class@@SAXPB_W@Z  (Idle)
01:000A9DA4 ?writeBytes_error@stdio_class@@SAXPAXPBUbyteCount@@@Z  (Idle)
01:000A9DD4 ?writeQuoted_error@stdio_class@@SAXXZ  (Idle)
01:000A9E0C ?nl_error@stdio_class@@SAXXZ  (Idle)
01:000A9E34 ?save_error@stdio_class@@SAXPBUfactDB@@@Z  (Idle)
01:000A9E60 ?flush_error@stdio_class@@SAXXZ  (Idle)
01:000A9E88 ?_read@stdio_class@@SAXQAVrTypeLibrary@TypeLibraries@RunTime@VIP@@PAPAX@Z  (Idle)
01:000A9ECC ?_readChar@stdio_class@@SAXPA_W@Z  (Idle)
01:000A9F04 ?ungetChar@stdio_class@@SAXXZ  (Idle)
01:000A9F34 ?_readLine@stdio_class@@SAXPAPB_W@Z  (Idle)
01:000A9F6C ?_readString@stdio_class@@SAXPBUcharCount@@PAPB_W@Z  (Idle)
01:000A9FB0 ?_readBytes@stdio_class@@SAXPBUbyteCount@@QAPAE@Z  (Idle)
01:000A9FF4 ?consult@stdio_class@@SAXPBUfactDB@@@Z  (Idle)
01:000AA02C ?endOfStream@stdio_class@@SAXXZ  (Idle)
01:000AA05C ?_getOutputStream@stdio_class@@SAXPB_WPAPAVoutputStream@@@@Z 
01:000AA0A4 ?_getErrorStream@stdio_class@@SAXPB_WPAPAVoutputStream@@@@Z 
01:000AA0EC ?_getInputStream@stdio_class@@SAXPB_WPAPAVinputStream@@@@Z 
01:000AA134 ?_getStdioState@stdio_class@@SAXPAPAVstdIOState@@@@Z  (Idle)
01:000AA148 ?setStdioState@stdio_class@@SAXQAVstdIOState@@@@Z  (Idle)
01:000AA158 ?classInfo@stdio_class@@SAXPAPB_W0@Z 
01:000AA174 ?_class_facts_initializer@stdio_class@@SGXXZ 
01:000AA19C ?stdioState@stdio_class@@SAXQAVstdIOState@@@@Z  (Idle)
01:000AA1AC ?_stdioState@stdio_class@@SAXPAPAVstdIOState@@@@Z  (Idle)
01:000AA1C8 stdIOState?_initObject@@@QAGXQAV1@H@Z 
01:000AA1E0 ?@create_object@stdIOState_class@@SGQAVstdIOState@@@XZ 
01:000AA1FC stdIOState?_InternalFinalizer@@@QAGXQAV1@@Z 
--- From 'Obj\binary.obj'
01:000AA210 ?classInfo@outputStream_binary_class@@SAXPAPB_W0@Z 
01:000AA22C ?new@outputStream_binary_class@@SAXQAVoutputStream_binary@@@@Z 
01:000AA2E4 ?setMode@outputStream_binary_class@@SGXQAVstream@@@PAUmode_struct@stream_class@@@Z 
01:000AA328 ?flush@outputStream_binary_class@@SGXQAVoutputStream@@@@Z 
01:000AA338 ?close@outputStream_binary_class@@SGXQAVstream@@@@Z 
01:000AA3DC ?bufferFullCallBack@outputStream_binary_class@@SAXQAVoutputStream_binary@@@PAPAXAAUbyteCount@@@Z 
01:000AA474 ?get_buffer_from_db@outputStream_binary_class@@SAXQAVoutputStream_binary@@@IPAPAXAAUbyteCount@@@Z 
01:000AA4EC ?_getBinary@outputStream_binary_class@@SAXQAVoutputStream_binary@@@QAPAE@Z 
01:000AA5B4 ?writeBuffersToBinary@outputStream_binary_class@@SAXQAVoutputStream_binary@@@QAE@Z 
01:000AA630 ?writeSingleBufferToBinary@outputStream_binary_class@@SGXQAVoutputStream_binary@@@IIPAXPBUbyteCount@@@Z 
01:000AA660 ?getPosition@outputStream_binary_class@@SG_KQAVstream@@@@Z 
01:000AA74C ?setPosition@outputStream_binary_class@@SGXQAVstream@@@_K@Z 
01:000AA7D4 ?handleSetOffset@outputStream_binary_class@@SAXQAVoutputStream_binary@@@PBUbyteCount@@@Z 
01:000AA880 ?updateCurrentBuffer@outputStream_binary_class@@SAXQAVoutputStream_binary@@@@Z 
01:000AA9E0 ?findBufferForOffset@outputStream_binary_class@@SAXQAVoutputStream_binary@@@PBUbyteCount@@PAIPAPAXAAU3@PAI@Z 
01:000AAAB4 ?handleBiggerOffset@outputStream_binary_class@@SAXQAVoutputStream_binary@@@PBUbyteCount@@@Z 
01:000AAC4C ?_newBuffer@outputStream_binary_class@@SAXQAVoutputStream_binary@@@PBUbyteCount@@PAPAX@Z 
01:000AAD08 ?_getSizeBefore@outputStream_binary_class@@SAXQAVoutputStream_binary@@@IAAUcharCount@@@Z 
01:000AAD9C ?bufferNotFound_exception@outputStream_binary_class@@SGXI@Z 
01:000AADE0 ?checkUsePrevBuff@outputStream_binary_class@@SAXQAVoutputStream_binary@@@@Z 
01:000AAE40 ?getBuffer@outputStream_binary_class@@SGXQAVbufferSupport@@@PAPAXAAUbyteCount@@@Z 
01:000AAEE0 ?getBufferLocked@outputStream_binary_class@@SGXQAVbufferSupport@@@PAPAXAAUbyteCount@@@Z 
01:000AAEFC ?_new@outputStream_binary_class@@SAXPAPAVoutputStream_binary@@@@Z  (Idle)
01:000AAF24 ?_object_facts_initializer@outputStream_binary_class@@SGXQAVoutputStream_binary@@@@Z 
01:000AAF50 ?classInfo@inputStream_binary_class@@SAXPAPB_W0@Z 
01:000AAF6C ?new@inputStream_binary_class@@SAXQAVinputStream_binary@@@QAE@Z 
01:000AAFEC ?endOfStream@inputStream_binary_class@@SAXQAVinputStream@@@@Z 
01:000AB028 ?setMode@inputStream_binary_class@@SGXQAVinputSupport@@@PAUmode_struct@stream_class@@@Z 
01:000AB06C ?close@inputStream_binary_class@@SGXQAVstream@@@@Z 
01:000AB088 ?getCRLFconversion@inputStream_binary_class@@SGPAUboolean_struct@_builtIn_class@@QAVstream@@@@Z 
01:000AB09C ?setCRLFconversion@inputStream_binary_class@@SGXQAVstream@@@PAUboolean_struct@_builtIn_class@@@Z 
01:000AB0C4 ?getPosition@inputStream_binary_class@@SG_KQAVstream@@@@Z 
01:000AB13C ?setPosition@inputStream_binary_class@@SGXQAVstream@@@_K@Z 
01:000AB218 ?getBuffer@inputStream_binary_class@@SGXQAVbufferSupport@@@PAPAXAAUbyteCount@@@Z 
01:000AB234 ?getBufferLocked@inputStream_binary_class@@SGXQAVbufferSupport@@@PAPAXAAUbyteCount@@@Z 
01:000AB250 ?_new@inputStream_binary_class@@SAXQAEPAPAVinputStream@@@@Z  (Idle)
01:000AB278 ?_object_facts_initializer@inputStream_binary_class@@SGXQAVinputStream_binary@@@@Z 
01:000AB294 ?classInfo@binary_exception_class@@SAXPAPB_W0@Z 
01:000AB2B0 ?invalidCompressionFormat@binary_exception_class@@SAXPAXPAPB_W1@Z 
01:000AB2D8 ?internalDecodeError@binary_exception_class@@SAXPAXPAPB_W1@Z 
01:000AB300 ?wrongBinaryFormat@binary_exception_class@@SAXPAXPAPB_W1@Z 
01:000AB328 ?indexOutOfRange@binary_exception_class@@SAXPAXPAPB_W1@Z 
01:000AB350 ?raise_InvalidCompressionFormat@binary_exception_class@@SAXXQAE@Z  (Idle)
01:000AB3C0 ?raise_InternalDecodeError@binary_exception_class@@SAXXQAE@Z  (Idle)
01:000AB430 ?raise_IndexOutOfRange@binary_exception_class@@SAXXPBUbyteCount@@@Z 
01:000AB4B4 ?raise_WrongBinaryFormat@binary_exception_class@@SAXXQAE@Z  (Idle)
01:000AB524 ?raise_WrongBinaryFormat@binary_exception_class@@SAXXPBUbinaryNonAtomic@@@Z  (Idle)
01:000AB598 isAtomic_Atomic 
01:000AB5C8 isAtomic_NonAtomic 
01:000AB5D0 ?classInfo@binary_class@@SAXPAPB_W0@Z 
01:000AB5EC ?_create0binaryAtomic@binary_class@@SAXQAPAE@Z 
01:000AB604 ?_create0binaryNonAtomic@binary_class@@SAXAAU2@@Z 
01:000AB61C ?_createNonAtomic@binary_class@@SAXPBUbyteCount@@AAUbinaryNonAtomic@@@Z 
01:000AB6A0 ?_createNonAtomic@binary_class@@SAXPBUpositive@@PBUbyteCount@@AAUbinaryNonAtomic@@@Z  (Idle)
--- From 'Obj\vpi.obj'
01:000AB6C8 ?_createAtomic@binary_class@@SAXPBUbyteCount@@QAPAE@Z 
--- From 'Obj\binary.obj'
01:000AB74C ?_createAtomic@binary_class@@SAXPBUpositive@@PBUbyteCount@@QAPAE@Z  (Idle)
01:000AB774 ?_makeBinaryFromPtr@binary_class@@SAXPAXPBUunsigned32@@QAPAE@Z 
01:000AB7A4 ?_makeBinaryNonAtomicFromPtr@binary_class@@SAXPAXPBUunsigned32@@AAUbinaryNonAtomic@@@Z 
01:000AB7D4 ?_createCopyNonAtomic@binary_class@@SAXPBUbinaryNonAtomic@@AAU2@@Z  (Idle)
01:000AB868 ?_createCopyAtomic@binary_class@@SAXQAEQAPAE@Z  (Idle)
01:000AB8FC ?_createNonAtomicFromPointer@binary_class@@SAXPAXPBUbyteCount@@AAUbinaryNonAtomic@@@Z  (Idle)
01:000AB944 ?_createAtomicFromPointer@binary_class@@SAXPAXPBUbyteCount@@QAPAE@Z 
01:000AB98C ?_createAtomicFromIntegerList@binary_class@@SAXPAU?$__list_struct@Uinteger@@@@QAPAE@Z  (Idle)
01:000AB9F0 ?_getSize@binary_class@@SAXQAEAAUbyteCount@@@Z 
01:000ABA10 ?_reSizeNonAtomic@binary_class@@SAXPBUbinaryNonAtomic@@PBUbyteCount@@AAU2@@Z 
01:000ABA70 ?_reSizeAtomic@binary_class@@SAXQAEPBUbyteCount@@QAPAE@Z 
01:000ABAD0 ?_concatNonAtomic@binary_class@@SAXPBUbinaryNonAtomic@@0AAU2@@Z  (Idle)
01:000ABB4C ?_concatAtomic@binary_class@@SAXQAEQAEQAPAE@Z  (Idle)
01:000ABBC8 ?_insertAtomic@binary_class@@SAXQAEPBUbyteCount@@QAEQAPAE@Z  (Idle)
01:000ABCC0 ?_insertNonAtomic@binary_class@@SAXPBUbinaryNonAtomic@@PBUbyteCount@@QAEAAU2@@Z  (Idle)
01:000ABDB8 ?_deleteAtomic@binary_class@@SAXQAEPBUbyteCount@@1QAPAE@Z  (Idle)
01:000ABE7C ?_deleteNonAtomic@binary_class@@SAXPBUbinaryNonAtomic@@PBUbyteCount@@1AAU2@@Z  (Idle)
--- From 'Obj\vpi.obj'
01:000ABF40 ?_getIndexed_unsigned8@binary_class@@SAXQAEPBUpositive@@AAU3@@Z 
--- From 'Obj\exe_api.obj'
01:000ABF90 ?_getIndexed_unsigned16@binary_class@@SAXQAEPBUpositive@@AAU3@@Z 
--- From 'Obj\binary.obj'
01:000ABFE0 ?_getIndexed_unsigned32@binary_class@@SAXQAEPBUpositive@@AAU3@@Z 
01:000AC038 ?_getIndexed_unsigned64@binary_class@@SAXQAEPBUpositive@@PAPA_K@Z  (Idle)
01:000AC090 ?_getIndexed_integer8@binary_class@@SAXQAEPBUpositive@@AAU3@@Z  (Idle)
01:000AC0E0 ?_getIndexed_integer16@binary_class@@SAXQAEPBUpositive@@AAU3@@Z  (Idle)
01:000AC130 ?_getIndexed_integer32@binary_class@@SAXQAEPBUpositive@@AAU3@@Z  (Idle)
01:000AC188 ?_getIndexed_integer64@binary_class@@SAXQAEPBUpositive@@PAPA_J@Z  (Idle)
01:000AC1E0 ?_getIndexed_unsigned@binary_class@@SAXQAEPBUpositive@@PAI@Z  (Idle)
01:000AC238 ?_getIndexed_integer@binary_class@@SAXQAEPBUpositive@@PAH@Z  (Idle)
01:000AC290 ?_getIndexed_real@binary_class@@SAXQAEPBUpositive@@PAPAN@Z  (Idle)
--- From 'Obj\exception.obj'
01:000AC2E8 ?_getIndexed_pointer@binary_class@@SAXPBUbinaryNonAtomic@@PBUpositive@@PAPAX@Z 
--- From 'Obj\binary.obj'
01:000AC340 ?_getIndexed_string@binary_class@@SAXPBUbinaryNonAtomic@@PBUpositive@@PAPB_W@Z  (Idle)
01:000AC3A0 ?setIndexed_unsigned8@binary_class@@SAXQAEPBUpositive@@PBU3@@Z  (Idle)
01:000AC3EC ?setIndexed_unsigned16@binary_class@@SAXQAEPBUpositive@@PBU3@@Z  (Idle)
01:000AC43C ?setIndexed_unsigned32@binary_class@@SAXQAEPBUpositive@@PBU3@@Z 
01:000AC48C ?setIndexed_unsigned64@binary_class@@SAXQAEPBUpositive@@PA_K@Z  (Idle)
01:000AC4E8 ?setIndexed_integer8@binary_class@@SAXQAEPBUpositive@@PBU3@@Z  (Idle)
01:000AC534 ?setIndexed_integer16@binary_class@@SAXQAEPBUpositive@@PBU3@@Z  (Idle)
01:000AC584 ?setIndexed_integer32@binary_class@@SAXQAEPBUpositive@@PBU3@@Z  (Idle)
01:000AC5D4 ?setIndexed_integer64@binary_class@@SAXQAEPBUpositive@@PA_J@Z  (Idle)
--- From 'Obj\vpi.obj'
01:000AC630 ?setIndexed_integer@binary_class@@SAXQAEPBUpositive@@H@Z 
--- From 'Obj\binary.obj'
01:000AC680 ?setIndexed_unsigned@binary_class@@SAXQAEPBUpositive@@I@Z  (Idle)
01:000AC6D0 ?setIndexed_real@binary_class@@SAXQAEPBUpositive@@PAN@Z  (Idle)
01:000AC72C ?setIndexed_pointer@binary_class@@SAXPBUbinaryNonAtomic@@PBUpositive@@PAX@Z  (Idle)
01:000AC784 ?setIndexed_string@binary_class@@SAXPBUbinaryNonAtomic@@PBUpositive@@PB_W@Z  (Idle)
01:000AC7DC ?_getBinaryNonAtomic@binary_class@@SAXPBUbinaryNonAtomic@@PBUbyteCount@@1AAU2@@Z 
01:000AC868 ?_getBinaryAtomic@binary_class@@SAXQAEPBUbyteCount@@1QAPAE@Z 
01:000AC8F4 ?setBinaryNonAtomic@binary_class@@SGXPBUbinaryNonAtomic@@PBUbyteCount@@QAE@Z  (Idle)
01:000AC984 ?setBinaryAtomic@binary_class@@SGXQAEPBUbyteCount@@QAE@Z  (Idle)
--- From 'Obj\vpi.obj'
01:000ACA14 ?setValue@binary_class@@SAXQAEPBUbyteCount@@PAUvalue_struct@core_class@@@Z 
--- From 'Obj\binary.obj'
01:000ACF20 $getValue$binary$predicate$(i,i,unsigned64(o))$b$_c82  (Idle)
01:000ACF74 ?_getString@binary_class@@SAXPAXPBUcharCount@@PAPB_W@Z 
01:000AD064 ?checkOffsetForSetGetValue@binary_class@@SAXQAEPBUbyteCount@@1@Z 
01:000AD0A8 ?fillFromIntegerList@binary_class@@SAXQAEPBUpositive@@PAU?$__list_struct@Uinteger@@@@@Z 
01:000AD100 ?copyTailIfNeeded@binary_class@@SAXQAEPBUbyteCount@@1QAEI@Z 
01:000AD17C ?splitBinaryNonAtomic@binary_class@@SAXPBUbinaryNonAtomic@@PBUbyteCount@@AAU2@2@Z  (Idle)
01:000AD1C4 ?splitBinaryAtomic@binary_class@@SAXQAEPBUbyteCount@@QAPAE2@Z  (Idle)
01:000AD20C ?_binaryToStringList@binary_class@@SAXQAEPAPAU?$__list_struct@Ustring@@@@@Z  (Idle)
01:000AD260 ?_getStringList@binary_class@@SAXPAXIPAPAU?$__list_struct@Ustring@@@@@Z 
01:000AD430 ?_search@binary_class@@SAXQAEQAEAAUbyteCount@@@Z  (Idle)
01:000AD484 ?_binary8ToStringList@binary_class@@SAXQAEPAPAU?$__list_struct@Ustring@@@@@Z  (Idle)
01:000AD4C4 ?_getStringListForBinary8@binary_class@@SAXPAXPBUbyteCount@@PAPAU?$__list_struct@Ustring@@@@@Z 
--- From 'Obj\exception.obj'
01:000AD608 ?_getSize@binary_class@@SAXPBUbinaryNonAtomic@@AAUbyteCount@@@Z 
--- From 'Obj\binary.obj'
01:000AD628 ?_insertNonAtomic@binary_class@@SAXPBUbinaryNonAtomic@@PBUbyteCount@@0AAU2@@Z  (Idle)
01:000AD720 ?_getIndexed_unsigned8@binary_class@@SAXPBUbinaryNonAtomic@@PBUpositive@@AAU4@@Z  (Idle)
01:000AD770 ?_getIndexed_unsigned16@binary_class@@SAXPBUbinaryNonAtomic@@PBUpositive@@AAU4@@Z  (Idle)
01:000AD7C0 ?_getIndexed_unsigned32@binary_class@@SAXPBUbinaryNonAtomic@@PBUpositive@@AAU4@@Z  (Idle)
01:000AD818 ?_getIndexed_unsigned64@binary_class@@SAXPBUbinaryNonAtomic@@PBUpositive@@PAPA_K@Z  (Idle)
01:000AD870 ?_getIndexed_integer8@binary_class@@SAXPBUbinaryNonAtomic@@PBUpositive@@AAU4@@Z  (Idle)
01:000AD8C0 ?_getIndexed_integer16@binary_class@@SAXPBUbinaryNonAtomic@@PBUpositive@@AAU4@@Z  (Idle)
01:000AD910 ?_getIndexed_integer32@binary_class@@SAXPBUbinaryNonAtomic@@PBUpositive@@AAU4@@Z  (Idle)
01:000AD968 ?_getIndexed_integer64@binary_class@@SAXPBUbinaryNonAtomic@@PBUpositive@@PAPA_J@Z  (Idle)
01:000AD9C0 ?_getIndexed_unsigned@binary_class@@SAXPBUbinaryNonAtomic@@PBUpositive@@PAI@Z  (Idle)
01:000ADA18 ?_getIndexed_integer@binary_class@@SAXPBUbinaryNonAtomic@@PBUpositive@@PAH@Z  (Idle)
01:000ADA70 ?_getIndexed_real@binary_class@@SAXPBUbinaryNonAtomic@@PBUpositive@@PAPAN@Z  (Idle)
01:000ADAC8 ?setIndexed_unsigned8@binary_class@@SAXPBUbinaryNonAtomic@@PBUpositive@@PBU4@@Z  (Idle)
01:000ADB14 ?setIndexed_unsigned16@binary_class@@SAXPBUbinaryNonAtomic@@PBUpositive@@PBU4@@Z  (Idle)
01:000ADB64 ?setIndexed_unsigned32@binary_class@@SAXPBUbinaryNonAtomic@@PBUpositive@@PBU4@@Z  (Idle)
01:000ADBB4 ?setIndexed_unsigned64@binary_class@@SAXPBUbinaryNonAtomic@@PBUpositive@@PA_K@Z  (Idle)
01:000ADC10 ?setIndexed_integer8@binary_class@@SAXPBUbinaryNonAtomic@@PBUpositive@@PBU4@@Z  (Idle)
01:000ADC5C ?setIndexed_integer16@binary_class@@SAXPBUbinaryNonAtomic@@PBUpositive@@PBU4@@Z  (Idle)
01:000ADCAC ?setIndexed_integer32@binary_class@@SAXPBUbinaryNonAtomic@@PBUpositive@@PBU4@@Z  (Idle)
01:000ADCFC ?setIndexed_integer64@binary_class@@SAXPBUbinaryNonAtomic@@PBUpositive@@PA_J@Z  (Idle)
01:000ADD58 ?setIndexed_integer@binary_class@@SAXPBUbinaryNonAtomic@@PBUpositive@@H@Z  (Idle)
01:000ADDA8 ?setIndexed_unsigned@binary_class@@SAXPBUbinaryNonAtomic@@PBUpositive@@I@Z  (Idle)
01:000ADDF8 ?setIndexed_real@binary_class@@SAXPBUbinaryNonAtomic@@PBUpositive@@PAN@Z  (Idle)
01:000ADE54 ?setBinaryNonAtomic@binary_class@@SGXPBUbinaryNonAtomic@@PBUbyteCount@@0@Z  (Idle)
01:000ADEE4 ?setBinaryAtomic@binary_class@@SGXPBUbinaryNonAtomic@@PBUbyteCount@@QAE@Z  (Idle)
01:000ADF74 ?setBinaryAtomic@binary_class@@SGXPBUbinaryNonAtomic@@PBUbyteCount@@0@Z  (Idle)
01:000AE004 ?setValue@binary_class@@SAXPBUbinaryNonAtomic@@PBUbyteCount@@PAUvalue_struct@core_class@@@Z  (Idle)
01:000AE510 $getValue$binary$predicate$(i,i,unsigned(o))$b$_c83  (Idle)
01:000AE564 $getValue$binary$predicate$(i,i,integer64(o))$b$_c84  (Idle)
--- From 'Obj\exe_api.obj'
01:000AE5B8 $getValue$binary$predicate$(i,i,integer(o))$b$_c85 
--- From 'Obj\binary.obj'
01:000AE60C $getValue$binary$predicate$(i,i,real(o))$b$_c86  (Idle)
01:000AE660 $getValue$binary$predicate$(i,i,char(o))$b$_c87  (Idle)
01:000AE6B8 $getValue$binary$predicate$(i,i,string(o))$b$_c88  (Idle)
01:000AE72C $getValue$binary$predicate$(i,i,localtimevalue(o))$b$_c89  (Idle)
01:000AE780 $getValue$binary$predicate$(i,i,gmttimevalue(o))$b$_c90  (Idle)
01:000AE7D4 $getValue$binary$predicate$(i,i,unsigned64(o))$b$_c91  (Idle)
01:000AE828 $getValue$binary$predicate$(i,i,unsigned(o))$b$_c92  (Idle)
01:000AE87C $getValue$binary$predicate$(i,i,integer64(o))$b$_c93  (Idle)
01:000AE8D0 $getValue$binary$predicate$(i,i,integer(o))$b$_c94  (Idle)
01:000AE924 $getValue$binary$predicate$(i,i,real(o))$b$_c95  (Idle)
01:000AE978 $getValue$binary$predicate$(i,i,pointer(o))$b$_c96  (Idle)
01:000AE9D0 $getValue$binary$predicate$(i,i,object(o))$b$_c97  (Idle)
01:000AEA28 $getValue$binary$predicate$(i,i,char(o))$b$_c98  (Idle)
01:000AEA80 $getValue$binary$predicate$(i,i,string(o))$b$_c99  (Idle)
01:000AEAF4 $getValue$binary$predicate$(i,i,localtimevalue(o))$b$_c100  (Idle)
01:000AEB48 $getValue$binary$predicate$(i,i,gmttimevalue(o))$b$_c101  (Idle)
01:000AEB9C ?checkOffsetForSetGetValue@binary_class@@SAXPBUbinaryNonAtomic@@PBUbyteCount@@1@Z 
01:000AEBE0 ?copyTailIfNeeded@binary_class@@SAXPBUbinaryNonAtomic@@PBUbyteCount@@10I@Z 
01:000AEED0 outputStream_binary?_initObject@@@QAGXQAV1@H@Z 
01:000AEF08 ?@create_object@outputStream_binary_class@@SGQAVoutputStream_binary@@@XZ 
01:000AEF24 outputStream_binary?_InternalFinalizer@@@QAGXQAV1@@Z 
01:000AF184 inputStream_binary?_initObject@@@QAGXQAV1@H@Z 
01:000AF1BC ?@create_object@inputStream_binary_class@@SGQAVinputStream_binary@@@XZ 
01:000AF1D8 inputStream_binary?_InternalFinalizer@@@QAGXQAV1@@Z 
--- From 'Obj\list.obj'
01:000AF1F0 $length$list$predicate$(i,i,o)$b$ 
01:000AF224 $length2$list$predicate$(i,i,i,o)$c$_m3 
01:000AF268 $isMember$list$predicate$(i,i,i)$b$_c2 
01:000AF2C0 $isMemberBy$list$predicate$(i,i,i,i)$b$_c3 
--- From 'Obj\vpi.obj'
01:000AF330 $getMember_nd$list$predicate$(i,i,o)$b$_c4 
--- From 'Obj\list.obj'
01:000AF37C $zip_nd$list$predicate$(i,i,i,i,o)$b$_c5 
01:000AF484 $sort$list$predicate$(i,i,o)$b$_c6 
01:000AF554 $merge$list$predicate$(i,i,i,o)$c$_m4 
01:000AF674 $sort$list$predicate$(i,i,i,o)$b$_c7  (Idle)
01:000AF69C $sort_descending$list$predicate$(i,i,o)$c$_m5 
01:000AF76C $merge_descending$list$predicate$(i,i,i,o)$c$_m6 
01:000AF88C $sortBy$list$predicate$(i,i,i,o)$b$_c8 
01:000AF968 $sortBy$list$predicate$(i,i,i,i,o)$b$_c9  (Idle)
01:000AF990 $sortBy_descending$list$predicate$(i,i,i,o)$c$_m7 
01:000AFA6C $mergeBy$list$predicate$(i,i,i,i,o)$c$_m8 
01:000AFB84 $mergeBy_descending$list$predicate$(i,i,i,i,o)$c$_m9 
01:000AFC9C $split2$list$predicate$(i,i,o,o)$c$_m10 
01:000AFD80 $append$list$predicate$(i,i,i,o)$b$_c10 
01:000AFDA8 $append1$list$predicate$(i,i,i,o)$c$_m11 
01:000AFE10 $append$list$predicate$(i,i,i,i,o)$b$_c11 
01:000AFE44 $append$list$predicate$(i,i,i,i,i,o)$b$_c12 
01:000AFE78 $append$list$predicate$(i,i,i,i,i,i,o)$b$_c13  (Idle)
01:000AFEAC $appendList$list$predicate$(i,i,o)$b$_c14 
01:000AFF3C $reverse$list$predicate$(i,i,o)$b$_c15 
01:000AFF74 $reverse1$list$predicate$(i,i,i,o)$c$_m12 
01:000AFFCC $remove$list$predicate$(i,i,i,o)$b$_c16 
01:000B0068 $removeBy$list$predicate$(i,i,i,i,o)$b$_c17 
01:000B010C $removeAll$list$predicate$(i,i,i,o)$b$_c18 
01:000B01B4 $removeAllBy$list$predicate$(i,i,i,i,o)$b$_c19 
01:000B0260 $removeDuplicates$list$predicate$(i,i,o)$b$_c22 
01:000B0304 $removeDuplicatesBy$list$predicate$(i,i,i,o)$b$_c23 
01:000B03AC $difference$list$predicate$(i,i,i,o)$b$_c20 
01:000B045C $differenceBy$list$predicate$(i,i,i,i,o)$b$_c21 
01:000B0510 $nDuplicates$list$predicate$(i,i,i,o)$b$_c24 
01:000B0568 $tryGetIndex$list$predicate$(i,i,i,o)$b$_c25 
01:000B05A8 $tryGetIndex$list$predicate$(i,i,i,i,o)$c$_m13 
01:000B0618 $tryGetIndexBy$list$predicate$(i,i,i,i,o)$b$_c26  (Idle)
01:000B0660 $tryGetIndexBy$list$predicate$(i,i,i,i,i,o)$c$_m14 
01:000B06E8 $tryLastItem$list$predicate$(i,i,o)$b$_c27 
01:000B0738 $nth$list$predicate$(i,i,i,o)$b$_c28 
01:000B07AC $tryGetNth$list$predicate$(i,i,i,o)$b$_c29 
01:000B081C $setNth$list$predicate$(i,i,i,i,o)$b$_c30 
01:000B0924 $split$list$predicate$(i,i,i,o,o)$b$_c31 
01:000B09E0 $take$list$predicate$(i,i,i,o)$b$_c32  (Idle)
01:000B0A04 $drop$list$predicate$(i,i,i,o)$b$_c33  (Idle)
01:000B0A28 $maximum$list$predicate$(i,i,o)$b$_c34 
01:000B0AE0 $maximumBy$list$predicate$(i,i,i,o)$b$_c35 
01:000B0B90 $minimum$list$predicate$(i,i,o)$b$_c36 
01:000B0C48 $minimumBy$list$predicate$(i,i,i,o)$b$_c37 
01:000B0CF8 $union$list$predicate$(i,i,i,o)$b$_c38 
01:000B0DA8 $unionBy$list$predicate$(i,i,i,i,o)$b$_c39 
01:000B0E58 $intersection$list$predicate$(i,i,i,o)$b$_c40 
01:000B0F04 $intersectionBy$list$predicate$(i,i,i,i,o)$b$_c41 
01:000B0FB0 $filter$list$predicate$(i,i,i,o)$b$_c42  (Idle)
01:000B1038 ?exceptionEmpty@list_class@@SAXPB_W@Z 
01:000B1070 $map$list$predicate$(i,i,i,i,o)$b$_c43 
01:000B10FC $forAll$list$predicate$(i,i,i)$b$_c44  (Idle)
01:000B1148 ?classInfo@list_class@@SAXPAPB_W0@Z 
--- From 'Obj\memory.obj'
01:000B1170 ?classInfo@weakPointer_class@@SAXPAPB_W0@Z  (Idle)
01:000B118C ?new@weakPointer_class@@SAXQAVweakPointer@@@PAX@Z 
01:000B11D0 ?newPredicate@weakPointer_class@@SAXQAVweakPointer@@@PAX@Z 
01:000B126C ?_tryDeref@weakPointer_class@@SAXQAVweakPointer@@@PAPAX@Z 
01:000B1334 ?finalize@weakPointer_class@@SGXQAVweakPointer@@@@Z 
01:000B13C0 ?_new@weakPointer_class@@SAXPAXPAPAVweakPointer@@@@Z  (Idle)
01:000B13E8 ?_newPredicate@weakPointer_class@@SAXPAXPAPAVweakPointer@@@@Z  (Idle)
01:000B1410 ?_object_facts_initializer@weakPointer_class@@SGXQAVweakPointer@@@@Z 
01:000B142C ?append@memory_class@@SGPAXPAXPAXPBUbyteCount@@@Z 
--- From 'Obj\exception.obj'
01:000B1474 ?isReadable@memory_class@@SAXPAX@Z 
01:000B149C ?isReadable@memory_class@@SAXPAXPBUbyteCount@@@Z 
--- From 'Obj\memory.obj'
01:000B14BC ?isWritable@memory_class@@SAXPAX@Z  (Idle)
01:000B14E4 ?isWritable@memory_class@@SAXPAXPBUbyteCount@@@Z 
01:000B1504 ?_allocHeap@memory_class@@SAXPBUbyteCount@@PAPAX@Z 
01:000B1534 ?_allocHeapProfile@memory_class@@SAXPBUbyteCount@@PBUcontext@@PAPAX@Z 
--- From 'Obj\vpi.obj'
01:000B1560 ?_allocAtomicHeap@memory_class@@SAXPBUbyteCount@@PAPAX@Z 
01:000B157C ?_allocAtomicHeapProfile@memory_class@@SAXPBUbyteCount@@PBUcontext@@PAPAX@Z 
--- From 'Obj\memory.obj'
01:000B1598 ?_allocUncollectableHeap@memory_class@@SAXPBUbyteCount@@PAPAX@Z  (Idle)
01:000B15C8 ?_allocUncollectableHeapProfile@memory_class@@SAXPBUbyteCount@@PBUcontext@@PAPAX@Z 
01:000B15F4 ?_allocString@memory_class@@SAXPBUcharCount@@PAPB_W@Z  (Idle)
01:000B1610 ?_allocStringProfile@memory_class@@SAXPBUcharCount@@PBUcontext@@PAPB_W@Z  (Idle)
01:000B1670 ?_allocStringBuffer@memory_class@@SAXPBUcharCount@@PAPB_W@Z 
--- From 'Obj\exe_api.obj'
01:000B16A0 ?_allocStringBufferProfile@memory_class@@SAXPBUcharCount@@PBUcontext@@PAPB_W@Z 
--- From 'Obj\memory.obj'
01:000B16CC ?_getReal@memory_class@@SAXPAXPAPAN@Z 
01:000B16FC ?setReal@memory_class@@SGXPAXN@Z 
01:000B1738 ?_getInteger8@memory_class@@SAXPAXAAUinteger8@@@Z 
01:000B1750 ?_getInteger16@memory_class@@SAXPAXAAUinteger16@@@Z 
01:000B176C ?_getInteger32@memory_class@@SAXPAXAAUinteger32@@@Z 
01:000B1784 ?_getInteger@memory_class@@SAXPAXPAH@Z 
01:000B179C ?_getInteger64@memory_class@@SAXPAXPAPA_J@Z 
01:000B17D8 ?_getUnsigned8@memory_class@@SAXPAXAAUunsigned8@@@Z 
01:000B17F0 ?_getUnsigned16@memory_class@@SAXPAXAAUunsigned16@@@Z 
01:000B180C ?_getUnsigned32@memory_class@@SAXPAXAAUunsigned32@@@Z 
01:000B1824 ?_getUnsigned@memory_class@@SAXPAXPAI@Z 
--- From 'Obj\exception.obj'
01:000B183C ?_getPointer@memory_class@@SAXPAXPAPAX@Z 
--- From 'Obj\memory.obj'
01:000B1854 ?setPointer@memory_class@@SAXPAXPAX@Z 
01:000B1884 ?_getHandle@memory_class@@SAXPAXAAUhandle@@@Z  (Idle)
01:000B189C ?setHandle@memory_class@@SAXPAXPBUhandle@@@Z  (Idle)
01:000B18CC ?_getUnsigned64@memory_class@@SAXPAXPAPA_K@Z 
01:000B1908 ?setInteger64@memory_class@@SAXPAXPA_J@Z 
01:000B194C ?setUnsigned64@memory_class@@SAXPAXPA_K@Z 
01:000B1990 ?_pointerAdd@memory_class@@SAXPAXPBUbyteCount@@PAPAX@Z 
--- From 'Obj\exception.obj'
01:000B19C0 ?isNull@memory_class@@SAXQAVrTypeLibrary@TypeLibraries@RunTime@VIP@@PAX@Z 
--- From 'Obj\memory.obj'
01:000B19D8 ?_toPersistentStorage@memory_class@@SAXQAVrTypeLibrary@TypeLibraries@RunTime@VIP@@PAXPAPAX@Z  (Idle)
01:000B19E8 ?_toPersistentStorageWithContext@memory_class@@SAXQAVrTypeLibrary@TypeLibraries@RunTime@VIP@@PAXPAPAX@Z  (Idle)
01:000B19F8 ?_bitOr@bit_class@@SAXIIIPAI@Z  (Idle)
01:000B1A24 ?_bitOr@bit_class@@SAXIIIIPAI@Z  (Idle)
01:000B1A60 ?_bitOr@bit_class@@SAXIIIIIPAI@Z  (Idle)
01:000B1AAC ?_bitOrList@bit_class@@SAXPAU?$__list_struct@Uunsigned@@@@PAI@Z  (Idle)
01:000B1AD8 ?bitOrList_Tail@bit_class@@SAXPAU?$__list_struct@Uunsigned@@@@IPAI@Z 
01:000B1B28 ?_getLow4of8@bit_class@@SAXPBUunsigned8@@AAUunsigned4@@@Z 
01:000B1B6C ?_setLow4of8@bit_class@@SAXPBUunsigned8@@PBUunsigned4@@AAU2@@Z  (Idle)
01:000B1BF0 ?_getHigh4of8@bit_class@@SAXPBUunsigned8@@AAUunsigned4@@@Z 
01:000B1C48 ?_setHigh4of8@bit_class@@SAXPBUunsigned8@@PBUunsigned4@@AAU2@@Z  (Idle)
01:000B1CDC ?_swap4of8@bit_class@@SAXPBUunsigned8@@AAU2@@Z  (Idle)
01:000B1D6C ?_getLow8of16@bit_class@@SAXPBUunsigned16@@AAUunsigned8@@@Z 
01:000B1DB4 ?_setLow8of16@bit_class@@SAXPBUunsigned16@@PBUunsigned8@@AAU2@@Z  (Idle)
01:000B1E24 ?_getHigh8of16@bit_class@@SAXPBUunsigned16@@AAUunsigned8@@@Z 
01:000B1E7C ?_setHigh8of16@bit_class@@SAXPBUunsigned16@@PBUunsigned8@@AAU2@@Z  (Idle)
01:000B1EFC ?_swap8of16@bit_class@@SAXPBUunsigned16@@AAU2@@Z  (Idle)
01:000B1F90 ?_getLow16of32@bit_class@@SAXIAAUunsigned16@@@Z 
01:000B1FC4 ?_setLow16of32@bit_class@@SAXIPBUunsigned16@@PAI@Z 
01:000B200C ?_getHigh16of32@bit_class@@SAXIAAUunsigned16@@@Z 
01:000B2050 ?_setHigh16of32@bit_class@@SAXIPBUunsigned16@@PAI@Z 
01:000B20BC ?_swap16of32@bit_class@@SAXIPAI@Z 
01:000B2138 ?_bitSplit@bit_class@@SAXIPAPAU?$__list_struct@Uunsigned@@@@@Z 
01:000B21A8 ?getUnsigned32bytes@bit_class@@SAXPBUunsigned32@@AAUunsigned16@@1@Z  (Idle)
01:000B21E4 ?getUnsigned64bytes@bit_class@@SAXPA_KPAIPAI@Z  (Idle)
01:000B222C ?getInteger64bytes@bit_class@@SAXPA_JPAIPAH@Z  (Idle)
01:000B2274 ?_mkUnsigned32@bit_class@@SAXPBUunsigned16@@0PAI@Z  (Idle)
01:000B22AC ?_mkInteger32@bit_class@@SAXPBUunsigned16@@PBUinteger16@@PAH@Z  (Idle)
01:000B22EC ?_mkUnsigned64@bit_class@@SAXIIPAPA_K@Z  (Idle)
01:000B2340 ?_mkInteger64@bit_class@@SAXIHPAPA_J@Z  (Idle)
01:000B239C weakPointer?_initObject@@@QAGXQAV1@H@Z 
01:000B23C0 ?@create_object@weakPointer_class@@SGQAVweakPointer@@@XZ 
01:000B23DC weakPointer?_InternalFinalizer@@@QAGXQAV1@@Z 
--- From 'Obj\namedvalue.obj'
01:000B2430 ?classInfo@namedValue_class@@SAXPAPB_W0@Z 
01:000B244C ?_tryMapLookUp@namedValue_class@@SAXPAU?$__list_struct@UnamedValue@@@@PB_WPAPAUvalue_struct@core_class@@@Z 
01:000B24B0 ?_tryMapLookUpIgnoreCase@namedValue_class@@SAXPAU?$__list_struct@UnamedValue@@@@PB_WPAPAUvalue_struct@core_class@@@Z 
01:000B251C ?_mapLookUp@namedValue_class@@SAXPAU?$__list_struct@UnamedValue@@@@PB_WPAPAUvalue_struct@core_class@@@Z 
01:000B2618 ?nameNotInMap@namedValue_class@@SAXPAXPAPB_W1@Z 
01:000B2640 ?_mapLookUp@namedValue_class@@SAXPAU?$__list_struct@UnamedValue@@@@PB_WPAUvalue_struct@core_class@@PAPAU34@@Z  (Idle)
01:000B267C ?_lookUp_nd@namedValue_class@@SAXPAU?$__list_struct@UnamedValue@@@@PB_WPAPAUvalue_struct@core_class@@@Z 
01:000B26EC ?_getNamed_integer@namedValue_class@@SAXPAU?$__list_struct@UnamedValue@@@@PB_WPAH@Z  (Idle)
01:000B271C ?_tryGetNamed_integer@namedValue_class@@SAXPAU?$__list_struct@UnamedValue@@@@PB_WPAH@Z  (Idle)
01:000B275C ?_getNamedDefault_integer@namedValue_class@@SAXPAU?$__list_struct@UnamedValue@@@@PB_WHPAH@Z  (Idle)
01:000B27B4 ?_getNamed_unsigned@namedValue_class@@SAXPAU?$__list_struct@UnamedValue@@@@PB_WPAI@Z  (Idle)
01:000B27E4 ?_tryGetNamed_unsigned@namedValue_class@@SAXPAU?$__list_struct@UnamedValue@@@@PB_WPAI@Z  (Idle)
01:000B2824 ?_getNamedDefault_unsigned@namedValue_class@@SAXPAU?$__list_struct@UnamedValue@@@@PB_WIPAI@Z  (Idle)
01:000B287C ?_getNamed_real@namedValue_class@@SAXPAU?$__list_struct@UnamedValue@@@@PB_WPAPAN@Z  (Idle)
01:000B28AC ?_tryGetNamed_real@namedValue_class@@SAXPAU?$__list_struct@UnamedValue@@@@PB_WPAPAN@Z  (Idle)
01:000B28EC ?_getNamedDefault_real@namedValue_class@@SAXPAU?$__list_struct@UnamedValue@@@@PB_WPANPAPAN@Z  (Idle)
01:000B2944 ?_getNamed_char@namedValue_class@@SAXPAU?$__list_struct@UnamedValue@@@@PB_WPA_W@Z  (Idle)
01:000B2974 ?_tryGetNamed_char@namedValue_class@@SAXPAU?$__list_struct@UnamedValue@@@@PB_WPA_W@Z  (Idle)
01:000B29B8 ?_getNamedDefault_char@namedValue_class@@SAXPAU?$__list_struct@UnamedValue@@@@PB_W_WPA_W@Z  (Idle)
01:000B2A14 ?_getNamed_string@namedValue_class@@SAXPAU?$__list_struct@UnamedValue@@@@PB_WPAPB_W@Z  (Idle)
--- From 'Obj\exception.obj'
01:000B2A44 ?_tryGetNamed_string@namedValue_class@@SAXPAU?$__list_struct@UnamedValue@@@@PB_WPAPB_W@Z 
--- From 'Obj\namedvalue.obj'
01:000B2A84 ?_getNamedDefault_string@namedValue_class@@SAXPAU?$__list_struct@UnamedValue@@@@PB_W1PAPB_W@Z  (Idle)
01:000B2ADC ?_getNamed_boolean@namedValue_class@@SAXPAU?$__list_struct@UnamedValue@@@@PB_WPAPAUboolean_struct@_builtIn_class@@@Z  (Idle)
01:000B2B0C ?_tryGetNamed_boolean@namedValue_class@@SAXPAU?$__list_struct@UnamedValue@@@@PB_WPAPAUboolean_struct@_builtIn_class@@@Z  (Idle)
01:000B2B4C ?_getNamedDefault_boolean@namedValue_class@@SAXPAU?$__list_struct@UnamedValue@@@@PB_WPAUboolean_struct@_builtIn_class@@PAPAU34@@Z  (Idle)
01:000B2BA4 ?_getNamed_binary@namedValue_class@@SAXPAU?$__list_struct@UnamedValue@@@@PB_WQAPAE@Z  (Idle)
01:000B2C28 ?_tryGetNamed_binary@namedValue_class@@SAXPAU?$__list_struct@UnamedValue@@@@PB_WQAPAE@Z  (Idle)
01:000B2C68 ?_getNamedDefault_binary@namedValue_class@@SAXPAU?$__list_struct@UnamedValue@@@@PB_WQAEQAPAE@Z  (Idle)
01:000B2C98 ?_getNamed_object@namedValue_class@@SAXPAU?$__list_struct@UnamedValue@@@@PB_WPAPAV3@@@Z  (Idle)
01:000B2D1C ?_tryGetNamed_object@namedValue_class@@SAXPAU?$__list_struct@UnamedValue@@@@PB_WPAPAV3@@@Z  (Idle)
01:000B2D5C ?_getNamedDefault_object@namedValue_class@@SAXPAU?$__list_struct@UnamedValue@@@@PB_WQAV3@@PAPAV3@@@Z  (Idle)
01:000B2D8C ?_getNamed_pointer@namedValue_class@@SAXPAU?$__list_struct@UnamedValue@@@@PB_WPAPAX@Z  (Idle)
01:000B2E10 ?_tryGetNamed_pointer@namedValue_class@@SAXPAU?$__list_struct@UnamedValue@@@@PB_WPAPAX@Z  (Idle)
01:000B2E50 ?_getNamedDefault_pointer@namedValue_class@@SAXPAU?$__list_struct@UnamedValue@@@@PB_WPAXPAPAX@Z  (Idle)
01:000B2EA8 ?_getNamed_handle@namedValue_class@@SAXPAU?$__list_struct@UnamedValue@@@@PB_WAAU3@@Z  (Idle)
01:000B2F2C ?_tryGetNamed_handle@namedValue_class@@SAXPAU?$__list_struct@UnamedValue@@@@PB_WAAU3@@Z  (Idle)
01:000B2F6C ?_getNamedDefault_handle@namedValue_class@@SAXPAU?$__list_struct@UnamedValue@@@@PB_WPBU3@AAU3@@Z  (Idle)
01:000B2FC4 ?_getNamed_gmtTimeValue@namedValue_class@@SAXPAU?$__list_struct@UnamedValue@@@@PB_WPAAAU3@@Z  (Idle)
01:000B2FF4 ?_tryGetNamed_gmtTimeValue@namedValue_class@@SAXPAU?$__list_struct@UnamedValue@@@@PB_WPAAAU3@@Z  (Idle)
01:000B3034 ?_getNamedDefault_gmtTimeValue@namedValue_class@@SAXPAU?$__list_struct@UnamedValue@@@@PB_WPAPBU3@PAAAU3@@Z  (Idle)
01:000B308C ?_getNamed_integer64@namedValue_class@@SAXPAU?$__list_struct@UnamedValue@@@@PB_WPAPA_J@Z  (Idle)
01:000B3110 ?_tryGetNamed_integer64@namedValue_class@@SAXPAU?$__list_struct@UnamedValue@@@@PB_WPAPA_J@Z  (Idle)
01:000B3150 ?_getNamedDefault_integer64@namedValue_class@@SAXPAU?$__list_struct@UnamedValue@@@@PB_WPA_JPAPA_J@Z  (Idle)
01:000B3180 ?_getNamed_unsigned64@namedValue_class@@SAXPAU?$__list_struct@UnamedValue@@@@PB_WPAPA_K@Z  (Idle)
01:000B3204 ?_tryGetNamed_unsigned64@namedValue_class@@SAXPAU?$__list_struct@UnamedValue@@@@PB_WPAPA_K@Z  (Idle)
01:000B3244 ?_getNamedDefault_unsigned64@namedValue_class@@SAXPAU?$__list_struct@UnamedValue@@@@PB_WPA_KPAPA_K@Z  (Idle)
--- From 'Obj\std.obj'
01:000B3280 ?classInfo@std_class@@SAXPAPB_W0@Z  (Idle)
--- From 'Obj\exception.obj'
01:000B329C ?_fromTo@std_class@@SAXHHPAH@Z 
--- From 'Obj\std.obj'
01:000B32EC ?_downTo@std_class@@SAXHHPAH@Z 
--- From 'Obj\programcontrol.obj'
01:000B3340 ?_between@std_class@@SAXHHPAH@Z 
--- From 'Obj\std.obj'
01:000B33E8 ?_fromToInStep@std_class@@SAXHHPBUpositive@@PAH@Z 
01:000B3438 ?_downToInStep@std_class@@SAXHHPBUpositive@@PAH@Z 
--- From 'Obj\programcontrol.obj'
01:000B3490 ?_betweenInStep@std_class@@SAXHHPBUpositive@@PAH@Z 
01:000B354C ?_countFrom@std_class@@SAXHPAH@Z 
01:000B3580 ?_countFromInStep@std_class@@SAXHPBUpositive@@PAH@Z 
--- From 'Obj\std.obj'
01:000B35B8 ?_countDownFrom@std_class@@SAXHPAH@Z 
01:000B35F4 ?_countDownFromInStep@std_class@@SAXHPBUpositive@@PAH@Z 
--- From 'Obj\programcontrol.obj'
01:000B3634 ?repeat@std_class@@SAXXZ 
--- From 'Obj\std.obj'
01:000B3654 ?for@std_class@@SAXPAHHH@Z  (Idle)
01:000B3678 ?for@std_class@@SAXPAHHHPBUpositive@@@Z  (Idle)
01:000B36A0 ?downto@std_class@@SAXPAHHH@Z  (Idle)
01:000B36C4 ?_fromTo@std_class@@SAXIIPAI@Z 
01:000B3714 ?_downTo@std_class@@SAXIIPAI@Z 
01:000B3764 ?_between@std_class@@SAXIIPAI@Z  (Idle)
--- From 'Obj\toolbars.obj'
01:000B3810 ?classInfo@statusLine_class@@SAXPAPB_W0@Z  (Idle)
--- From 'Obj\taskwindow.obj'
01:000B382C ?create@statusLine_class@@SAXPBUwindowHandle@vpiDomains@@@Z 
--- From 'Obj\toolbars.obj'
01:000B3854 ?classInfo@projectToolbar_class@@SAXPAPB_W0@Z  (Idle)
--- From 'Obj\taskwindow.obj'
01:000B3870 ?create@projectToolbar_class@@SAXPBUwindowHandle@vpiDomains@@@Z 
01:000B38A0 ?classInfo@taskWindow_class@@SAXPAPB_W0@Z  (Idle)
01:000B38BC ?new@taskWindow_class@@SAXQAVtaskWindow@@@@Z 
01:000B38D8 ?onShow@taskWindow_class@@SAXQAVtaskWindow@@@QAVwindow@@@H@Z 
01:000B39A8 ?onDestroy@taskWindow_class@@SAXQAVtaskWindow@@@QAVwindow@@@@Z 
01:000B39B0 ?onHelpAbout@taskWindow_class@@SAXQAVtaskWindow@@@QAVwindow@@@PBUmenuTag@vpiDomains@@@Z 
01:000B39F4 ?onFileExit@taskWindow_class@@SAXQAVtaskWindow@@@QAVwindow@@@PBUmenuTag@vpiDomains@@@Z 
01:000B3A04 ?onSizeChanged@taskWindow_class@@SAXQAVtaskWindow@@@QAVwindow@@@@Z 
01:000B3A30 ?onEditNewClientFiz@taskWindow_class@@SAXQAVtaskWindow@@@QAVwindow@@@PBUmenuTag@vpiDomains@@@Z 
01:000B3A84 ?onEditNewClientYur@taskWindow_class@@SAXQAVtaskWindow@@@QAVwindow@@@PBUmenuTag@vpiDomains@@@Z 
01:000B3AD8 ?onFileInfoFiz@taskWindow_class@@SAXQAVtaskWindow@@@QAVwindow@@@PBUmenuTag@vpiDomains@@@Z 
01:000B3B2C ?onFileInfoYur@taskWindow_class@@SAXQAVtaskWindow@@@QAVwindow@@@PBUmenuTag@vpiDomains@@@Z 
01:000B3B80 ?onFileDogovor@taskWindow_class@@SAXQAVtaskWindow@@@QAVwindow@@@PBUmenuTag@vpiDomains@@@Z 
01:000B3BD4 ?onClientDoc@taskWindow_class@@SAXQAVtaskWindow@@@QAVwindow@@@PBUmenuTag@vpiDomains@@@Z 
01:000B3C28 ?onHelpLocal@taskWindow_class@@SAXQAVtaskWindow@@@QAVwindow@@@PBUmenuTag@vpiDomains@@@Z 
01:000B3C7C ?generatedInitialize@taskWindow_class@@SAXQAVtaskWindow@@@@Z 
01:000B3FD0 ?generatedOnShow@taskWindow_class@@SAXQAVtaskWindow@@@QAVwindow@@@H@Z 
--- From 'Obj\main.obj'
01:000B4024 ?_new@taskWindow_class@@SAXPAPAVtaskWindow@@@@Z 
--- From 'Obj\taskwindow.obj'
01:000B404C ?classInfo@aboutDialog_class@@SAXPAPB_W0@Z  (Idle)
01:000B4068 ?_display@aboutDialog_class@@SAXQAVwindow@@@PAPAVaboutDialog@@@@Z 
01:000B4090 ?new@aboutDialog_class@@SAXQAVaboutDialog@@@QAVwindow@@@@Z 
01:000B40B0 ?generatedInitialize@aboutDialog_class@@SAXQAVaboutDialog@@@@Z 
01:000B446C ?_new@aboutDialog_class@@SAXQAVwindow@@@PAPAVaboutDialog@@@@Z 
01:000B51AC taskWindow?_initObject@@@QAGXQAV1@H@Z 
01:000B51E0 ?@create_object@taskWindow_class@@SGQAVtaskWindow@@@XZ 
01:000B51FC taskWindow?_InternalFinalizer@@@QAGXQAV1@@Z 
01:000B6A34 aboutDialog?_initObject@@@QAGXQAV1@H@Z 
01:000B6A70 ?@create_object@aboutDialog_class@@SGQAVaboutDialog@@@XZ 
01:000B6A8C aboutDialog?_InternalFinalizer@@@QAGXQAV1@@Z 
--- From 'Obj\core.obj'
01:000B6AA0 ?_tryGetSome@core_class@@SAXQAVrTypeLibrary@TypeLibraries@RunTime@VIP@@PAUoptional_struct@1@PAXPAPAX@Z  (Idle)
01:000B6AC0 ?_booleanValue@core_class@@SAXPAUvalue_struct@1@PAPAUboolean_struct@_builtIn_class@@@Z 
01:000B6B00 ?_unsigned64Value@core_class@@SAXPAUvalue_struct@1@PAPA_K@Z 
01:000B6B40 ?_integer64Value@core_class@@SAXPAUvalue_struct@1@PAPA_J@Z 
01:000B6B80 ?_unsignedValue@core_class@@SAXPAUvalue_struct@1@PAI@Z 
01:000B6BC0 ?_integerValue@core_class@@SAXPAUvalue_struct@1@PAH@Z 
01:000B6C00 ?_realValue@core_class@@SAXPAUvalue_struct@1@PAPAN@Z 
01:000B6C40 ?_charValue@core_class@@SAXPAUvalue_struct@1@PA_W@Z 
01:000B6C84 ?_stringValue@core_class@@SAXPAUvalue_struct@1@PAPB_W@Z 
01:000B6CC4 ?_binaryValue@core_class@@SAXPAUvalue_struct@1@QAPAE@Z 
01:000B6D04 ?_objectValue@core_class@@SAXPAUvalue_struct@1@PAPAVobject@@@@Z 
01:000B6D44 ?_gmtTimeValueValue@core_class@@SAXPAUvalue_struct@1@PAAAUgmtTimeValue@@@Z 
01:000B6D84 ?_localTimeValueValue@core_class@@SAXPAUvalue_struct@1@PAAAUlocalTimeValue@@@Z  (Idle)
01:000B6DC4 ?_pointerValue@core_class@@SAXPAUvalue_struct@1@PAPAX@Z  (Idle)
01:000B6E04 ?unexpectedValueKind@core_class@@SAXPAXPAPB_W1@Z 
01:000B6E2C ?_toUnsigned64@core_class@@SAXPAUunsigned64_struct_struct@1@PAPA_K@Z 
01:000B6E68 ?_fromUnsigned64@core_class@@SAXPA_KPAPAUunsigned64_struct_struct@1@@Z 
01:000B6EA4 ?_toInteger64@core_class@@SAXPAUinteger64_struct_struct@1@PAPA_J@Z  (Idle)
01:000B6EE0 ?_fromInteger64@core_class@@SAXPA_JPAPAUinteger64_struct_struct@1@@Z 
01:000B6F1C ?classInfo@core_class@@SAXPAPB_W0@Z 
01:000B6F38 $extract$core$predicate$(i,boolean(o),i)$c$_m3 
01:000B6FFC $extract$core$predicate$(i,unsigned64(o),i)$c$_m3 
01:000B70C0 $extract$core$predicate$(i,integer64(o),i)$c$_m3 
01:000B7184 $extract$core$predicate$(i,unsigned(o),i)$c$_m3 
01:000B7248 $extract$core$predicate$(i,integer(o),i)$c$_m3 
01:000B730C $extract$core$predicate$(i,real(o),i)$c$_m3 
01:000B73D0 $extract$core$predicate$(i,char(o),i)$c$_m3 
01:000B7498 $extract$core$predicate$(i,string(o),i)$c$_m3 
01:000B755C $extract$core$predicate$(i,binary(o),i)$c$_m3 
01:000B7620 $extract$core$predicate$(i,object(o),i)$c$_m3 
01:000B76E4 $extract$core$predicate$(i,gmttimevalue(o),i)$c$_m3 
01:000B77A8 $extract$core$predicate$(i,localtimevalue(o),i)$c$_m3 
01:000B786C $extract$core$predicate$(i,pointer(o),i)$c$_m3 
--- From 'Obj\exception.obj'
01:000B7930 ?classInfo@runtime_exception_class@@SAXPAPB_W0@Z 
01:000B794C ?internalError@runtime_exception_class@@SAXPAXPAPB_W1@Z 
01:000B7974 ?exceptionUnderException@runtime_exception_class@@SAXPAXPAPB_W1@Z 
01:000B799C ?fromString@runtime_exception_class@@SAXPAXPAPB_W1@Z 
01:000B79C4 ?fromBinary@runtime_exception_class@@SAXPAXPAPB_W1@Z 
01:000B79EC ?mismatchVersion@runtime_exception_class@@SAXPAXPAPB_W1@Z 
01:000B7A14 ?ctrlC@runtime_exception_class@@SAXPAXPAPB_W1@Z 
01:000B7A3C ?ctrlBreak@runtime_exception_class@@SAXPAXPAPB_W1@Z 
01:000B7A64 ?closeApplication@runtime_exception_class@@SAXPAXPAPB_W1@Z 
01:000B7A8C ?logOff@runtime_exception_class@@SAXPAXPAPB_W1@Z 
01:000B7AB4 ?shutDown@runtime_exception_class@@SAXPAXPAPB_W1@Z 
01:000B7ADC ?expectedSymbolFromToTerm@runtime_exception_class@@SAXPAXPAPB_W1@Z 
01:000B7B04 ?wrongNumberArgumentForFormat@runtime_exception_class@@SAXPAXPAPB_W1@Z 
01:000B7B2C ?objectConversion@runtime_exception_class@@SAXPAXPAPB_W1@Z 
01:000B7B54 ?invalidFormat@runtime_exception_class@@SAXPAXPAPB_W1@Z 
01:000B7B7C ?invalidTerm@runtime_exception_class@@SAXPAXPAPB_W1@Z 
01:000B7BA4 ?integerExpected@runtime_exception_class@@SAXPAXPAPB_W1@Z 
01:000B7BCC ?arithmeticOverflow@runtime_exception_class@@SAXPAXPAPB_W1@Z 
01:000B7BF4 ?noRangeNumber@runtime_exception_class@@SAXPAXPAPB_W1@Z 
01:000B7C1C ?functorNotFound@runtime_exception_class@@SAXPAXPAPB_W1@Z 
01:000B7C44 ?functorNameExpected@runtime_exception_class@@SAXPAXPAPB_W1@Z 
01:000B7C6C ?cyclicInheritance@runtime_exception_class@@SAXPAXPAPB_W1@Z 
01:000B7C94 ?parserUnexpectedEOS@runtime_exception_class@@SAXPAXPAPB_W1@Z 
01:000B7CBC ?determFact@runtime_exception_class@@SAXPAXPAPB_W1@Z 
01:000B7CE4 ?realOverflow@runtime_exception_class@@SAXPAXPAPB_W1@Z 
01:000B7D0C ?negZero@runtime_exception_class@@SAXPAXPAPB_W1@Z 
01:000B7D34 ?unGetChar@runtime_exception_class@@SAXPAXPAPB_W1@Z 
01:000B7D5C ?vip6runInternalError@runtime_exception_class@@SAXPAXPAPB_W1@Z 
01:000B7D84 ?notSupportFunction@runtime_exception_class@@SAXPAXPAPB_W1@Z 
01:000B7DAC ?unsupportedFormat@runtime_exception_class@@SAXPAXPAPB_W1@Z 
01:000B7DD4 ?invalidTermRepresentation@runtime_exception_class@@SAXPAXPAPB_W1@Z 
01:000B7DFC ?consult_WrongComment@runtime_exception_class@@SAXPAXPAPB_W1@Z 
01:000B7E24 ?consult_WrongUsageOfKeyword@runtime_exception_class@@SAXPAXPAPB_W1@Z 
01:000B7E4C ?retractSingleFact@runtime_exception_class@@SAXPAXPAPB_W1@Z 
01:000B7E74 ?expectedChar@runtime_exception_class@@SAXPAXPAPB_W1@Z 
01:000B7E9C ?threadCreation@runtime_exception_class@@SAXPAXPAPB_W1@Z 
01:000B7EC4 ?systemException@runtime_exception_class@@SAXPAXPAPB_W1@Z 
01:000B7EEC ?osError@runtime_exception_class@@SAXPAXPAPB_W1@Z 
01:000B7F14 ?gcAbend@runtime_exception_class@@SAXPAXPAPB_W1@Z 
01:000B7F3C ?gcError@runtime_exception_class@@SAXPAXPAPB_W1@Z 
01:000B7F64 ?heapOverflow@runtime_exception_class@@SAXPAXPAPB_W1@Z 
01:000B7F8C ?freeVariable@runtime_exception_class@@SAXPAXPAPB_W1@Z 
01:000B7FB4 ?singleFactHasNoValue@runtime_exception_class@@SAXPAXPAPB_W1@Z 
01:000B7FDC ?accessToNotInitializedFact@runtime_exception_class@@SAXPAXPAPB_W1@Z 
01:000B8004 ?chainDB_DBAlreadyOpen@runtime_exception_class@@SAXPAXPAPB_W1@Z 
01:000B802C ?chainDB_InvalidDBFileName@runtime_exception_class@@SAXPAXPAPB_W1@Z 
01:000B8054 ?chainDB_NotOpenDB@runtime_exception_class@@SAXPAXPAPB_W1@Z 
01:000B807C ?chainDB_ExistsBTree@runtime_exception_class@@SAXPAXPAPB_W1@Z 
01:000B80A4 ?chainDB_ExistsDBInPlace@runtime_exception_class@@SAXPAXPAPB_W1@Z 
01:000B80CC ?chainDB_InvalidOrderValue@runtime_exception_class@@SAXPAXPAPB_W1@Z 
01:000B80F4 ?chainDB_InvalidKeyValue@runtime_exception_class@@SAXPAXPAPB_W1@Z 
01:000B811C ?chainDB_UnableOpenDB@runtime_exception_class@@SAXPAXPAPB_W1@Z 
01:000B8144 ?chainDB_InvalidDB@runtime_exception_class@@SAXPAXPAPB_W1@Z 
01:000B816C ?chainDB_UnableDeleteDB@runtime_exception_class@@SAXPAXPAPB_W1@Z 
01:000B8194 ?chainDB_InvalidRefVal@runtime_exception_class@@SAXPAXPAPB_W1@Z 
01:000B81BC ?chainDB_AbsentChain@runtime_exception_class@@SAXPAXPAPB_W1@Z 
01:000B81E4 ?chainDB_AbsentBTree@runtime_exception_class@@SAXPAXPAPB_W1@Z 
01:000B820C ?chainDB_InvalidBTreeSel@runtime_exception_class@@SAXPAXPAPB_W1@Z 
01:000B8234 ?chainDB_DeleteOpenBTree@runtime_exception_class@@SAXPAXPAPB_W1@Z 
01:000B825C ?chainDB_NotFoundKeyAndRef@runtime_exception_class@@SAXPAXPAPB_W1@Z 
01:000B8284 ?chainDB_IncorrectDBVersion@runtime_exception_class@@SAXPAXPAPB_W1@Z 
01:000B82AC ?chainDB_NotInTransaction@runtime_exception_class@@SAXPAXPAPB_W1@Z 
01:000B82D4 ?chainDB_WriteROTransaction@runtime_exception_class@@SAXPAXPAPB_W1@Z 
01:000B82FC ?chainDB_AlreadyOpenTransaction@runtime_exception_class@@SAXPAXPAPB_W1@Z 
01:000B8324 ?chainDB_UpdatingROTransaction@runtime_exception_class@@SAXPAXPAPB_W1@Z 
01:000B834C ?chainDB_TimeOutTransaction@runtime_exception_class@@SAXPAXPAPB_W1@Z 
01:000B8374 ?chainDB_DuplicateKey@runtime_exception_class@@SAXPAXPAPB_W1@Z 
01:000B839C ?chainDB_WrongChainToDeleteTerm@runtime_exception_class@@SAXPAXPAPB_W1@Z 
01:000B83C4 ?chainDB_ReadWrongNumberBytes@runtime_exception_class@@SAXPAXPAPB_W1@Z 
01:000B83EC ?chainDB_WriteWrongNumberBytes@runtime_exception_class@@SAXPAXPAPB_W1@Z 
01:000B8414 ?chainDB_OSNativeError@runtime_exception_class@@SAXPAXPAPB_W1@Z 
01:000B843C ?binary_invalidBlock@runtime_exception_class@@SAXPAXPAPB_W1@Z 
01:000B8464 ?binary_invalidFormat@runtime_exception_class@@SAXPAXPAPB_W1@Z 
01:000B848C ?binary_DecodeInternalError@runtime_exception_class@@SAXPAXPAPB_W1@Z 
01:000B84B4 ?cannotLoadLibrary@runtime_exception_class@@SAXPAXPAPB_W1@Z 
01:000B84DC ?cannotGetProcAddress@runtime_exception_class@@SAXPAXPAPB_W1@Z 
01:000B8504 ?odbc_unidentifiedError@runtime_exception_class@@SAXPAXPAPB_W1@Z 
01:000B852C ?sql_invalidHandle@runtime_exception_class@@SAXPAXPAPB_W1@Z 
01:000B8554 ?sql_stillExecuting@runtime_exception_class@@SAXPAXPAPB_W1@Z 
01:000B857C ?sql_needData@runtime_exception_class@@SAXPAXPAPB_W1@Z 
01:000B85A4 ?sql_noDataFound@runtime_exception_class@@SAXPAXPAPB_W1@Z 
01:000B85CC ?sql_error@runtime_exception_class@@SAXPAXPAPB_W1@Z 
01:000B85F4 ?odbc_error@runtime_exception_class@@SAXPAXPAPB_W1@Z 
--- From 'Obj\exe.obj'
01:000B861C _runtimeExceptionRaiser 
--- From 'Obj\exception.obj'
01:000B8728 ?_exceptionFromErrorCode@runtime_exception_class@@SAXIPAX@Z 
01:000B8F6C ?notYetHandledError@runtime_exception_class@@SAXPAXPAPB_W1@Z 
01:000B8F94 ?classInfo@exception_exception_class@@SAXPAPB_W0@Z 
01:000B8FB0 ?externalError@exception_exception_class@@SAXPAXPAPB_W1@Z 
01:000B8FD8 ?raise_ExternalError@exception_exception_class@@SAXXPBUerrorCode@programControl@@PAU?$__list_struct@UnamedValue@@@@@Z  (Idle)
01:000B9044 ?classInfo@exception_class@@SAXPAPB_W0@Z 
01:000B9060 ?unknownClassInfo@exception_class@@SAXPAPB_W0@Z  (Idle)
01:000B907C ?equals@exception_class@@SAXXPAUexceptionDescriptor_struct@1@@Z  (Idle)
01:000B9110 ?_tryGetDescriptor@exception_class@@SAXPBUtraceId@@XPAPAUdescriptor_struct@1@@Z 
01:000B91C4 $findException$exception$predicate$(i,i)$b$_c19 
01:000B9228 ?_getDescriptor_nd@exception_class@@SAXPBUtraceId@@PAPAUdescriptor_struct@1@@Z 
01:000B9250 ?_getDescriptorChain_nd@exception_class@@SAXQAVerrorDescriptorInformation@@@PAPAUdescriptor_struct@1@@Z 
01:000B92C0 ?_getDescriptorChain1_nd@exception_class@@SAXQAVerrorDescriptorInformation@@@PAPAUdescriptor_struct@1@@Z 
01:000B940C ?_getDescriptorChainFromPacked_nd@exception_class@@SAXPAU?$__list_struct@UnamedValue@@@@PAPAUdescriptor_struct@1@@Z 
01:000B94C0 ?_getTraceInfo@exception_class@@SAXPBUtraceId@@PAPAUtraceInfo_struct@1@@Z 
01:000B95EC ?_getStackInfo_nd@exception_class@@SAXQAVtrapInformationObject@@@PAPAUlineInfo_struct@1@@Z 
01:000B973C ?_getModuleHandleByAddress@exception_class@@SAXPAXAAUhModule@@@Z 
01:000B9794 ?_getModuleNameByAddress@exception_class@@SAXPAXPAPB_W@Z 
01:000B97F4 ?_tryGetLineInfo@exception_class@@SAXPAXPAPAUlineInfo_struct@1@@Z 
01:000B98B4 ?_tryGetExtraInfo@exception_class@@SAXPAUdescriptor_struct@1@PB_WPAPAUvalue_struct@core_class@@@Z 
01:000B98D0 ?_searchInfoList@exception_class@@SAXPAU?$__list_struct@UnamedValue@@@@PB_WPAPAUvalue_struct@core_class@@@Z 
01:000B993C ?getExceptionInformation@exception_class@@SAXPAUexceptionDescriptor_struct@1@PAPAUclassInfoDescriptor_struct@1@PAPB_W2@Z  (Idle)
01:000B9990 ?clear_fail@exception_class@@SAXPBUtraceId@@@Z  (Idle)
01:000B999C ?clear@exception_class@@SAXPBUtraceId@@@Z  (Idle)
01:000B99A4 ?raise@exception_class@@SAXXX@Z 
--- From 'Obj\vpi.obj'
01:000B99C0 ?raise@exception_class@@SAXXXPAU?$__list_struct@UnamedValue@@@@@Z 
--- From 'Obj\exception.obj'
01:000B9A00 ?continue@exception_class@@SAXPBUtraceId@@XX@Z  (Idle)
01:000B9A20 ?continue@exception_class@@SAXPBUtraceId@@XXPAU?$__list_struct@UnamedValue@@@@@Z 
01:000B9A50 ?continue1@exception_class@@SAXQAVtrapInformationObject@@@XXPAU?$__list_struct@UnamedValue@@@@@Z 
01:000B9B74 ?_getTraceID@exception_class@@SAXPAXAAUtraceId@@@Z  (Idle)
01:000B9B84 ?_getErrorCode@exception_class@@SAXPBUtraceId@@PAI@Z 
01:000B9BCC ?_tryGetErrorDescriptorInformation@exception_class@@SAXPBUtraceId@@PAPAVerrorDescriptorInformation@@@@Z 
01:000B9BF4 ?_tryGetErrorDescriptorInformation1@exception_class@@SAXQAVtrapInformationObject@@@PAPAVerrorDescriptorInformation@@@@Z 
01:000B9C1C ?_getTrapInformationObject@exception_class@@SAXPBUtraceId@@PAPAVtrapInformationObject@@@@Z 
01:000B9CFC ?_tryGetTrapInformationObject@exception_class@@SAXPBUtraceId@@PAPAVtrapInformationObject@@@@Z 
01:000B9DA4 ?new@errorDescriptorInformation_class@@SAXQAVerrorDescriptorInformation@@@PAUclassInfoDescriptor_struct@exception_class@@PAUexceptionDescriptor_struct@4@PAUkind_struct@4@PAU?$__list_struct@UnamedValue@@@@PAPBUgmtTimeValue@@PB_WI@Z 
01:000B9DFC ?_gMTTimeFormatted@errorDescriptorInformation_class@@SAXQAVerrorDescriptorInformation@@@PAPB_W@Z 
01:000B9E18 ?_tryGetContinueException@errorDescriptorInformation_class@@SAXQAVerrorDescriptorInformation@@@PAPAV2@@@Z 
01:000B9E40 ?setContinueException@errorDescriptorInformation_class@@SAXQAVerrorDescriptorInformation@@@0@Z 
01:000B9E8C ?_createDescriptorInfo@errorDescriptorInformation_class@@SAXXXPAUkind_struct@exception_class@@PAU?$__list_struct@UnamedValue@@@@PAPAVerrorDescriptorInformation@@@@Z 
01:000B9FCC ?_formatDateTime@errorDescriptorInformation_class@@SAXPAPBUgmtTimeValue@core@@PAPB_W@Z 
01:000BA044 ?_new@errorDescriptorInformation_class@@SAXPAUclassInfoDescriptor_struct@exception_class@@PAUexceptionDescriptor_struct@3@PAUkind_struct@3@PAU?$__list_struct@UnamedValue@@@@PAPBUgmtTimeValue@@PB_WIPAPAVerrorDescriptorInformation@@@@Z 
01:000BA080 ?_exceptionDescriptor@errorDescriptorInformation_class@@SAXQAVerrorDescriptorInformation@@@PAPAUexceptionDescriptor_struct@exception_class@@@Z 
01:000BA094 ?_classInfoDescriptor@errorDescriptorInformation_class@@SAXQAVerrorDescriptorInformation@@@PAPAUclassInfoDescriptor_struct@exception_class@@@Z 
01:000BA0A8 ?_kind@errorDescriptorInformation_class@@SAXQAVerrorDescriptorInformation@@@PAPAUkind_struct@exception_class@@@Z 
01:000BA0BC ?_extraInfo@errorDescriptorInformation_class@@SAXQAVerrorDescriptorInformation@@@PAPAU?$__list_struct@UnamedValue@@@@@Z 
01:000BA0D0 ?_gMTTime@errorDescriptorInformation_class@@SAXQAVerrorDescriptorInformation@@@PAAAUgmtTimeValue@@@Z 
01:000BA0E4 ?_exceptionDescription@errorDescriptorInformation_class@@SAXQAVerrorDescriptorInformation@@@PAPB_W@Z 
01:000BA0F8 ?_threadId@errorDescriptorInformation_class@@SAXQAVerrorDescriptorInformation@@@PAI@Z 
01:000BA10C ?internal@common_exception_class@@SAXPAXPAPB_W1@Z 
01:000BA134 ?couldNotCreate@common_exception_class@@SAXPAXPAPB_W1@Z 
01:000BA15C ?removeListener@common_exception_class@@SAXPAXPAPB_W1@Z 
01:000BA184 ?exceptionInListener@common_exception_class@@SAXPAXPAPB_W1@Z 
01:000BA1AC ?nativeCallException@common_exception_class@@SAXPAXPAPB_W1@Z 
01:000BA1D4 ?unsupportedPredicate@common_exception_class@@SAXPAXPAPB_W1@Z 
01:000BA1FC ?unknown@common_exception_class@@SAXPAXPAPB_W1@Z 
01:000BA224 ?overloadingExpected@common_exception_class@@SAXPAXPAPB_W1@Z 
01:000BA24C ?raise_error@common_exception_class@@SAXXPB_W@Z 
01:000BA314 ?raise_exception@common_exception_class@@SAXXXPB_W@Z  (Idle)
01:000BA3DC ?raise_user@common_exception_class@@SAXXPB_W1@Z  (Idle)
01:000BA3FC ?raise_user@common_exception_class@@SAXXPB_W1PAU?$__list_struct@UnamedValue@@@@@Z 
01:000BA420 ?raise_user@common_exception_class@@SAXXXPB_W2PAU?$__list_struct@UnamedValue@@@@@Z 
01:000BA4D8 ?raise_definiteUser@common_exception_class@@SAXXPB_W1@Z  (Idle)
01:000BA4F8 ?raise_definiteUser@common_exception_class@@SAXXPB_W1PAU?$__list_struct@UnamedValue@@@@@Z 
01:000BA51C ?raise_definiteUser@common_exception_class@@SAXXXPB_W2PAU?$__list_struct@UnamedValue@@@@@Z 
01:000BA5E4 ?raise_packed@common_exception_class@@SAXPAUtraceInfo_struct@3@XPB_W@Z  (Idle)
01:000BA710 ?raise_errorf@common_exception_class@@SAXXPB_W1@Z  (Idle)
01:000BA818 ?raise_couldNotCreate@common_exception_class@@SAXXPB_WPAU?$__list_struct@UnamedValue@@@@@Z  (Idle)
01:000BA884 ?raise_removeListener@common_exception_class@@SAXXPB_W@Z 
01:000BA8F4 ?raise_nativeCallExceptionPosition@common_exception_class@@SAXXPB_WPAU?$__list_struct@UnamedValue@@@@@Z  (Idle)
01:000BA910 ?raise_nativeCallException@common_exception_class@@SAXXPB_WPAU?$__list_struct@UnamedValue@@@@@Z 
01:000BAA30 ?raise_nativeCallExceptionPosition@common_exception_class@@SAXXPB_WI1PAU?$__list_struct@UnamedValue@@@@@Z  (Idle)
--- From 'Obj\exe_api.obj'
01:000BAA50 ?raise_nativeCallException@common_exception_class@@SAXXPB_WIPAU?$__list_struct@UnamedValue@@@@@Z 
--- From 'Obj\exception.obj'
01:000BAA84 ?raise_nativeCallException@common_exception_class@@SAXXPB_WI1PAU?$__list_struct@UnamedValue@@@@@Z 
01:000BAB94 ?raise_unsupportedPredicate@common_exception_class@@SAXXPB_W@Z 
01:000BAC04 ?raise_overloadingExpected@common_exception_class@@SAXX@Z 
01:000BAC24 ?continue_exceptionInListener@common_exception_class@@SAXPBUtraceId@exception@@XPB_W@Z  (Idle)
01:000BAC94 ?continue_unknown@common_exception_class@@SAXPBUtraceId@exception@@XPB_W@Z 
01:000BAD60 ?continue_user@common_exception_class@@SAXPBUtraceId@exception@@XPB_W2@Z  (Idle)
--- From 'Obj\vpi.obj'
01:000BAD84 ?continue_user@common_exception_class@@SAXPBUtraceId@exception@@XPB_W2PAU?$__list_struct@UnamedValue@@@@@Z 
--- From 'Obj\exception.obj'
01:000BADA8 ?continue_user@common_exception_class@@SAXPBUtraceId@exception@@XXPB_W3PAU?$__list_struct@UnamedValue@@@@@Z 
01:000BAE60 ?continue_definiteUser@common_exception_class@@SAXPBUtraceId@exception@@XPB_W2@Z  (Idle)
01:000BAE84 ?continue_definiteUser@common_exception_class@@SAXPBUtraceId@exception@@XPB_W2PAU?$__list_struct@UnamedValue@@@@@Z 
01:000BAEA8 ?continue_definiteUser@common_exception_class@@SAXPBUtraceId@exception@@XXPB_W3PAU?$__list_struct@UnamedValue@@@@@Z 
01:000BAF74 ?isDefiniteUserError@common_exception_class@@SAXPBUtraceId@exception@@@Z 
01:000BAFB0 ?getLastError@common_exception_class@@SAXPAIPAPB_W@Z 
01:000BAFCC ?_getLastErrorDescription@common_exception_class@@SAXIPAPB_W@Z 
01:000BB008 ?classInfo@common_exception_class@@SAXPAPB_W0@Z 
01:000BB024 ?checkNonZeroResult@common_exception_class@@SAXXHPB_W@Z  (Idle)
01:000BB054 ?checkNonZeroResult@common_exception_class@@SAXXHPB_WPAU?$__list_struct@UnamedValue@@@@@Z  (Idle)
01:000BB080 ?checkNoApiException@common_exception_class@@SAXXIPB_W@Z  (Idle)
01:000BB0A8 ?checkNoApiException@common_exception_class@@SAXXIPB_WPAU?$__list_struct@UnamedValue@@@@@Z  (Idle)
01:000BB0D0 ?checkNoApiException@common_exception_class@@SAXXIPB_W2PAU?$__list_struct@UnamedValue@@@@@Z  (Idle)
01:000BB104 errorDescriptorInformation?_initObject@@@QAGXQAV1@H@Z 
01:000BB11C ?@create_object@errorDescriptorInformation_class@@SGQAVerrorDescriptorInformation@@@XZ 
01:000BB138 errorDescriptorInformation?_InternalFinalizer@@@QAGXQAV1@@Z 
--- From 'Obj\programcontrol.obj'
01:000BB150 ?classInfo@programControl_class@@SAXPAPB_W0@Z  (Idle)
01:000BB16C ?repeat@programControl_class@@SAXXZ  (Idle)
01:000BB174 ?_sequence_multi@programControl_class@@SAXHHPAH@Z  (Idle)
01:000BB17C ?_sequence_nd@programControl_class@@SAXHHPBUpositive@@PAH@Z  (Idle)
01:000BB184 ?_sequenceUnlimited_multi@programControl_class@@SAXHPAH@Z  (Idle)
01:000BB18C ?_sequenceUnlimited_multi@programControl_class@@SAXHPBUpositive@@PAH@Z  (Idle)
01:000BB194 ?_unpackCursor@programControl_class@@SAXPAUpackedCursor_struct@1@PAPAUcursor_struct@1@@Z  (Idle)
--- From 'Obj\exe.obj'
01:000BB208 ?setRuntimeExceptionRaiser@programControl_class@@SAXXPAX@Z 
--- From 'Obj\programcontrol.obj'
01:000BB244 ?RemoveMe  (Idle)
--- From 'Obj\vpi.obj'
01:000BB260 ?classInfo@vpiDde_class@@SAXPAPB_W0@Z  (Idle)
01:000BB27C ?classInfo@vpiCommonDialogs_class@@SAXPAPB_W0@Z  (Idle)
01:000BB298 ?_getString@vpiCommonDialogs_class@@SAXPB_W00PAPB_W@Z  (Idle)
01:000BB2E4 ?_getString@vpiCommonDialogs_class@@SAXPBUwindowHandle@vpiDomains@@PB_W11PAPB_W@Z 
01:000BB4B0 ?_dlg_getstring_eh@vpiCommonDialogs_class@@SAXPBUwindowHandle@@PAUevent_struct@vpiDomains_class@@PAH@Z 
01:000BB518 ?ok_getstring@vpiCommonDialogs_class@@SAXPBUwindowHandle@vpiDomains@@@Z 
01:000BB56C ?init_getstring@vpiCommonDialogs_class@@SAXPBUwindowHandle@vpiDomains@@@Z 
01:000BB5A0 ?_ask@vpiCommonDialogs_class@@SAXPB_WPAU?$__list_struct@Ustring@@@@PAH@Z  (Idle)
01:000BB5F0 ?_ask@vpiCommonDialogs_class@@SAXPB_W0PAU?$__list_struct@Ustring@@@@PAH@Z  (Idle)
01:000BB63C ?_ask@vpiCommonDialogs_class@@SAXPBUwindowHandle@vpiDomains@@PB_W1PAU?$__list_struct@Ustring@@@@PAH@Z  (Idle)
01:000BB644 ?_askLocal@vpiCommonDialogs_class@@SAXPBUwindowHandle@vpiDomains@@PB_W1PAU?$__list_struct@Ustring@@@@PAH@Z 
01:000BB704 ?_dlg_ask_eh@vpiCommonDialogs_class@@SAXPBUwindowHandle@@PAUevent_struct@vpiDomains_class@@PAH@Z 
01:000BB7A0 ?_getButtonsList@vpiCommonDialogs_class@@SAXPAU?$__list_struct@Ustring@@@@PB_WPAHPAPAU?$__list_struct@Uwindef@@@@@Z 
01:000BB9D4 ?_getFirstButton@vpiCommonDialogs_class@@SAXPB_WPAPAUwindef_struct@vpiDomains_class@@@Z 
01:000BBA40 ?_getSecondButton@vpiCommonDialogs_class@@SAXPB_WPAPAUwindef_struct@vpiDomains_class@@@Z 
01:000BBAAC ?_getLastButton@vpiCommonDialogs_class@@SAXPB_WPAPAUwindef_struct@vpiDomains_class@@@Z 
01:000BBB18 ?_getStaticText@vpiCommonDialogs_class@@SAXPB_WPAPAUwindef_struct@vpiDomains_class@@@Z 
01:000BBB84 ?_getAskResult@vpiCommonDialogs_class@@SAXHPAH@Z 
01:000BBBC4 ?_listSelect@vpiCommonDialogs_class@@SAXPB_WPAU?$__list_struct@Ustring@@@@HPAPB_WPAHAAUbooleanInt@@@Z  (Idle)
01:000BBC28 ?_listSelect@vpiCommonDialogs_class@@SAXPBUwindowHandle@vpiDomains@@PB_WPAU?$__list_struct@Ustring@@@@HPAPB_WPAHAAUbooleanInt@@@Z 
01:000BBC88 ?_listSelect@vpiCommonDialogs_class@@SAXPBUwindowHandle@vpiDomains@@PB_WPAU?$__list_struct@Ustring@@@@HPAPB_WPAHPBUbooleanInt@@AAU5@@Z 
01:000BBCF4 ?_listSelect@vpiCommonDialogs_class@@SAXPBUwindowHandle@vpiDomains@@PB_WPAU?$__list_struct@Ustring@@@@HPAPB_WPAHPBUbooleanInt@@6AAU5@@Z 
01:000BBED0 ?_dlg_list_select_eh@vpiCommonDialogs_class@@SAXPBUwindowHandle@@PAUevent_struct@vpiDomains_class@@PAH@Z 
01:000BBFD0 ?resizeControls@vpiCommonDialogs_class@@SAXPBUwindowHandle@vpiDomains@@HH@Z 
01:000BC1D0 ?_toPositiveList@vpiCommonDialogs_class@@SAXPAU?$__list_struct@Uinteger@@@@PAPAU?$__list_struct@Upositive@@@@@Z 
01:000BC248 ?storeResult_listSelect@vpiCommonDialogs_class@@SAXPBUwindowHandle@vpiDomains@@@Z 
01:000BC2F0 ?storeListSelectResult@vpiCommonDialogs_class@@SAXPBUwindowHandle@vpiDomains@@PAU?$__list_struct@Ustring@@@@PAU?$__list_struct@Upositive@@@@@Z 
01:000BC364 ?storeNewValue@vpiCommonDialogs_class@@SAXPBUwindowHandle@vpiDomains@@PB_W@Z 
01:000BC3A4 ?_getComboFlags@vpiCommonDialogs_class@@SAXPBUbooleanInt@@AAUwsFlag@vpiDomains@@@Z 
01:000BC3C8 ?init_listSelect@vpiCommonDialogs_class@@SAXPBUwindowHandle@vpiDomains@@@Z 
01:000BC420 ?note@vpiCommonDialogs_class@@SAXPB_W@Z  (Idle)
01:000BC438 ?error@vpiCommonDialogs_class@@SAXPB_W@Z 
01:000BC450 ?_getFileName@vpiCommonDialogs_class@@SAXPB_WPAU?$__list_struct@Ustring@@@@0PAU?$__list_struct@Uinteger@@@@0PAPAU?$__list_struct@U2@@@PAPB_W@Z  (Idle)
01:000BC47C ?_getOpenFileNameList@vpiCommonDialogs_class@@SAXPB_WPAU?$__list_struct@Ustring@@@@0PAPAU?$__list_struct@U2@@@@Z  (Idle)
01:000BC4A0 ?_getFont@vpiCommonDialogs_class@@SAXPBUfont@vpiDomains@@AAU23@@Z  (Idle)
01:000BC4C4 ?_getColor@vpiCommonDialogs_class@@SAXPBUcolor@vpiDomains@@AAU23@@Z  (Idle)
01:000BC4F0 ?setCustomColors@vpiCommonDialogs_class@@SAXQAE@Z  (Idle)
01:000BC504 ?_getCustomColors@vpiCommonDialogs_class@@SAXQAPAE@Z  (Idle)
01:000BC52C ?_getParentWindow@vpiCommonDialogs_class@@SAXAAUwindowHandle@vpiDomains@@@Z 
01:000BC554 ?_getParentWindowForFocus@vpiCommonDialogs_class@@SAXPBUwindowHandle@vpiDomains@@AAU23@@Z 
01:000BC5A8 ?_checkOrGetTopLevel@vpiCommonDialogs_class@@SAXPBUwindowHandle@vpiDomains@@PBUwintype@3@AAU23@@Z 
01:000BC63C ?isTopLevelType@vpiCommonDialogs_class@@SAXPBUwintype@vpiDomains@@@Z 
01:000BC664 ?isNonVPIParent@vpiCommonDialogs_class@@SAXPBUwintype@vpiDomains@@@Z 
01:000BC680 ?_askBox@vpiCommonDialogs_class@@SAXPB_W0HHPAH@Z 
01:000BC6C4 ?_class_facts_initializer@vpiCommonDialogs_class@@SGXXZ 
01:000BC700 ?classInfo@vpi_class@@SAXPAPB_W0@Z 
01:000BC71C ?init@vpi_class@@SAXXZ 
01:000BC734 ?init@vpi_class@@SAXPAU?$__list_struct@Uwsflag@@@@XPAUmenu_struct@vpiDomains_class@@PB_W3@Z 
01:000BC760 ?_winCreateResDialog@vpi_class@@SAXPBUwindowHandle@vpiDomains@@PBUwintype@3@PBUresid@3@XHAAU23@@Z  (Idle)
01:000BC798 ?_getResStr@vpi_class@@SAXPBUresid@vpiDomains@@PAPB_W@Z  (Idle)
01:000BC7C4 ?_winGetResDialog@vpi_class@@SAXPBUresid@vpiDomains@@PAPAU?$__list_struct@Uwindef@3@@@@Z  (Idle)
01:000BC7F0 ?_checkExistDialog@vpi_class@@SAXPBUresid@vpiDomains@@AAUbooleanInt@@@Z  (Idle)
01:000BC81C ?_checkExistString@vpi_class@@SAXPBUresid@vpiDomains@@AAUbooleanInt@@@Z  (Idle)
01:000BC848 ?_menuGetRes@vpi_class@@SAXPBUresid@vpiDomains@@PAPAUmenu_struct@vpiDomains_class@@@Z  (Idle)
01:000BC874 ?_pictGetFromRes@vpi_class@@SAXPBUresid@vpiDomains@@AAUpicture@3@@Z  (Idle)
01:000BC8A0 ?_pictLoad@vpi_class@@SAXPAUbitmapId_struct@vpiDomains_class@@IIIAAUpicture@vpiDomains@@@Z 
01:000BC9CC ?pictDraw@vpi_class@@SAXPBUwindowHandle@vpiDomains@@PBUpicture@3@PAUpnt_struct@vpiDomains_class@@PBUrop@3@@Z 
01:000BC9E8 ?pictDraw@vpi_class@@SAXPBUwindowHandle@vpiDomains@@PBUpicture@3@PAUrct_struct@vpiDomains_class@@2PBUrop@3@@Z 
01:000BCA08 ?cursorSet@vpi_class@@SAXPBUwindowHandle@vpiDomains@@PBUcursor@3@@Z 
01:000BCA20 ?caretSet@vpi_class@@SAXPBUwindowHandle@vpiDomains@@PBUpositive@@1@Z 
01:000BCA3C ?drawText@vpi_class@@SAXPBUwindowHandle@vpiDomains@@HHPB_W@Z 
01:000BCA58 ?drawTextInRect@vpi_class@@SAXPBUwindowHandle@vpiDomains@@PAUrct_struct@vpiDomains_class@@PB_WPAU?$__list_struct@Uinteger@@@@@Z 
01:000BCA74 ?_mfLoad@vpi_class@@SAXPB_WAAUmetafile@vpiDomains@@@Z  (Idle)
01:000BCA98 ?winGetTextExtent@vpi_class@@SAXPBUwindowHandle@vpiDomains@@PB_WAAUpositive@@2@Z 
01:000BCAB4 ?_processEvents@vpi_class@@SAXAAUbooleanInt@@@Z  (Idle)
01:000BCADC ?_processEvents@vpi_class@@SAXPBUbooleanInt@@AAU2@@Z 
01:000BCAF8 ?_winGetAttrVal@vpi_class@@SAXPBUwindowHandle@vpiDomains@@HPAH@Z 
01:000BCB24 ?_fontCreateByName@vpi_class@@SAXPBUwindowHandle@vpiDomains@@PB_WPBUpositive@@AAUfont@3@@Z  (Idle)
01:000BCB44 ?_fontCreateByName@vpi_class@@SAXPB_WPBUpositive@@AAUfont@vpiDomains@@@Z 
01:000BCC7C ?dumpErrorHandler@vpi_class@@SAXPBUwindowHandle@@PBUtraceId@exception@@@Z  (Idle)
01:000BCD64 ?_dumpErroreventHandler@vpi_class@@SAXPBUwindowHandle@@PAUevent_struct@vpiDomains_class@@PAH@Z 
01:000BCEA4 _vpiExceptionRaiser 
01:000BCF74 ?_exceptionFromErrorCode@vpi_class@@SAXIPAX@Z 
01:000BCFAC ?_tryGetVpiError@vpi_class@@SAXIPAX@Z 
01:000BD8EC ?notYetHandledVpiError@vpi_class@@SAXPAXPAPB_W1@Z 
01:000BD914 ?vpi_winBadHandle@vpi_class@@SAXPAXPAPB_W1@Z 
01:000BD93C ?vpi_winBadType@vpi_class@@SAXPAXPAPB_W1@Z 
01:000BD964 ?vpi_data_alloc@vpi_class@@SAXPAXPAPB_W1@Z 
01:000BD98C ?vpi_listEmpty@vpi_class@@SAXPAXPAPB_W1@Z 
01:000BD9B4 ?vpi_listMember@vpi_class@@SAXPAXPAPB_W1@Z 
01:000BD9DC ?vpi_unableFileOpen@vpi_class@@SAXPAXPAPB_W1@Z 
01:000BDA04 ?vpi_unableFileCreate@vpi_class@@SAXPAXPAPB_W1@Z 
01:000BDA2C ?vpi_fileNameEmpty@vpi_class@@SAXPAXPAPB_W1@Z 
01:000BDA54 ?vpi_unsupportedPlatform@vpi_class@@SAXPAXPAPB_W1@Z 
01:000BDA7C ?vpi_vpiNotInit@vpi_class@@SAXPAXPAPB_W1@Z 
01:000BDAA4 ?vpi_illegalValue@vpi_class@@SAXPAXPAPB_W1@Z 
01:000BDACC ?vpi_notSupport@vpi_class@@SAXPAXPAPB_W1@Z 
01:000BDAF4 ?vpi_dlgNotFound@vpi_class@@SAXPAXPAPB_W1@Z 
01:000BDB1C ?vpi_cursorNotFound@vpi_class@@SAXPAXPAPB_W1@Z 
01:000BDB44 ?vpi_iconNotFound@vpi_class@@SAXPAXPAPB_W1@Z 
01:000BDB6C ?vpi_menuNotFound@vpi_class@@SAXPAXPAPB_W1@Z 
01:000BDB94 ?vpi_bmpNotFound@vpi_class@@SAXPAXPAPB_W1@Z 
01:000BDBBC ?vpi_stringNotFound@vpi_class@@SAXPAXPAPB_W1@Z 
01:000BDBE4 ?vpi_unablePictureCreate@vpi_class@@SAXPAXPAPB_W1@Z 
01:000BDC0C ?vpi_unableLoadPicture@vpi_class@@SAXPAXPAPB_W1@Z 
01:000BDC34 ?vpi_ivalidWindowType@vpi_class@@SAXPAXPAPB_W1@Z 
01:000BDC5C ?vpi_unableOpenPicture@vpi_class@@SAXPAXPAPB_W1@Z 
01:000BDC84 ?vpi_manyPictures@vpi_class@@SAXPAXPAPB_W1@Z 
01:000BDCAC ?vpi_unableKillTimer@vpi_class@@SAXPAXPAPB_W1@Z 
01:000BDCD4 ?vpi_toManyTimers@vpi_class@@SAXPAXPAPB_W1@Z 
01:000BDCFC ?vpi_badFont@vpi_class@@SAXPAXPAPB_W1@Z 
01:000BDD24 ?vpi_unableGetFont@vpi_class@@SAXPAXPAPB_W1@Z 
01:000BDD4C ?vpi_predicateNotExist@vpi_class@@SAXPAXPAPB_W1@Z 
01:000BDD74 ?vpi_unableRunApp@vpi_class@@SAXPAXPAPB_W1@Z 
01:000BDD9C ?vpi_wrongAppId@vpi_class@@SAXPAXPAPB_W1@Z 
01:000BDDC4 ?vpi_cannotGetWindow@vpi_class@@SAXPAXPAPB_W1@Z 
01:000BDDEC ?vpi_prnOpen@vpi_class@@SAXPAXPAPB_W1@Z 
01:000BDE14 ?vpi_prnStart@vpi_class@@SAXPAXPAPB_W1@Z 
01:000BDE3C ?vpi_prnMem@vpi_class@@SAXPAXPAPB_W1@Z 
01:000BDE64 ?vpi_prnEnd@vpi_class@@SAXPAXPAPB_W1@Z 
01:000BDE8C ?vpi_prnBegin@vpi_class@@SAXPAXPAPB_W1@Z 
01:000BDEB4 ?vpi_prnData@vpi_class@@SAXPAXPAPB_W1@Z 
01:000BDEDC ?vpi_notEvenNumber@vpi_class@@SAXPAXPAPB_W1@Z 
01:000BDF04 ?vpi_unableRegisterClass@vpi_class@@SAXPAXPAPB_W1@Z 
01:000BDF2C ?vpi_checkDestroy@vpi_class@@SAXPAXPAPB_W1@Z 
01:000BDF54 ?vpi_checkDraw@vpi_class@@SAXPAXPAPB_W1@Z 
01:000BDF7C ?vpi_cantAddToLbox@vpi_class@@SAXPAXPAPB_W1@Z 
01:000BDFA4 ?vpi_winCtlBadPropery@vpi_class@@SAXPAXPAPB_W1@Z 
01:000BDFCC ?vpi_winCrtResDlg@vpi_class@@SAXPAXPAPB_W1@Z 
01:000BDFF4 ?vpi_winCrtDynDlg@vpi_class@@SAXPAXPAPB_W1@Z 
01:000BE01C ?vpi_winCreate@vpi_class@@SAXPAXPAPB_W1@Z 
01:000BE044 ?vpi_winCreateDyn@vpi_class@@SAXPAXPAPB_W1@Z 
01:000BE06C ?vpi_winClass@vpi_class@@SAXPAXPAPB_W1@Z 
01:000BE094 ?vpi_winCtlId@vpi_class@@SAXPAXPAPB_W1@Z 
01:000BE0BC ?vpi_unableSendEvent@vpi_class@@SAXPAXPAPB_W1@Z 
01:000BE0E4 ?vpi_unablePendEvent@vpi_class@@SAXPAXPAPB_W1@Z 
01:000BE10C ?vpi_winInvalidPos@vpi_class@@SAXPAXPAPB_W1@Z 
01:000BE134 ?vpi_unableMove@vpi_class@@SAXPAXPAPB_W1@Z 
01:000BE15C ?vpi_win_ctlhndl@vpi_class@@SAXPAXPAPB_W1@Z 
01:000BE184 ?vpi_win_active@vpi_class@@SAXPAXPAPB_W1@Z 
01:000BE1AC ?vpi_metaImpossiblePlay@vpi_class@@SAXPAXPAPB_W1@Z 
01:000BE1D4 ?vpi_metaImpossibleLoad@vpi_class@@SAXPAXPAPB_W1@Z 
01:000BE1FC ?vpi_metaClose@vpi_class@@SAXPAXPAPB_W1@Z 
01:000BE224 ?vpi_metaBadFormat@vpi_class@@SAXPAXPAPB_W1@Z 
01:000BE24C ?vpi_metaCreateDC@vpi_class@@SAXPAXPAPB_W1@Z 
01:000BE274 ?vpi_metaToMany@vpi_class@@SAXPAXPAPB_W1@Z 
01:000BE29C ?vpi_menuCreate@vpi_class@@SAXPAXPAPB_W1@Z 
01:000BE2C4 ?vpi_menuSet@vpi_class@@SAXPAXPAPB_W1@Z 
01:000BE2EC ?vpi_menuFind@vpi_class@@SAXPAXPAPB_W1@Z 
01:000BE314 ?vpi_menuOwndrSubmenu@vpi_class@@SAXPAXPAPB_W1@Z 
01:000BE33C ?vpi_menuMdi@vpi_class@@SAXPAXPAPB_W1@Z 
01:000BE364 ?vpi_helpInvalidConst@vpi_class@@SAXPAXPAPB_W1@Z 
01:000BE38C ?vpi_clipUnableAccess@vpi_class@@SAXPAXPAPB_W1@Z 
01:000BE3B4 ?vpi_clipGetBin@vpi_class@@SAXPAXPAPB_W1@Z 
01:000BE3DC ?vpi_clipGetPict@vpi_class@@SAXPAXPAPB_W1@Z 
01:000BE404 ?vpi_clipGetMf@vpi_class@@SAXPAXPAPB_W1@Z 
01:000BE42C ?vpi_ddeSyncAdviceTimeout@vpi_class@@SAXPAXPAPB_W1@Z 
01:000BE454 ?vpi_ddeServerIsBusy@vpi_class@@SAXPAXPAPB_W1@Z 
01:000BE47C ?vpi_ddeSyncDataTimeout@vpi_class@@SAXPAXPAPB_W1@Z 
01:000BE4A4 ?vpi_ddeNotInitialized@vpi_class@@SAXPAXPAPB_W1@Z 
01:000BE4CC ?vpi_ddeClientPerformsServerTrans@vpi_class@@SAXPAXPAPB_W1@Z 
01:000BE4F4 ?vpi_ddeSyncExecTimeout@vpi_class@@SAXPAXPAPB_W1@Z 
01:000BE51C ?vpi_ddeInvalidParam@vpi_class@@SAXPAXPAPB_W1@Z 
01:000BE544 ?vpi_ddeMemConsume@vpi_class@@SAXPAXPAPB_W1@Z 
01:000BE56C ?vpi_ddeMemAllocFailed@vpi_class@@SAXPAXPAPB_W1@Z 
01:000BE594 ?vpi_ddeTransactionFailed@vpi_class@@SAXPAXPAPB_W1@Z 
01:000BE5BC ?vpi_ddeClientConservationFailed@vpi_class@@SAXPAXPAPB_W1@Z 
01:000BE5E4 ?vpi_ddeSyncPokeTimeout@vpi_class@@SAXPAXPAPB_W1@Z 
01:000BE60C ?vpi_ddePostFailed@vpi_class@@SAXPAXPAPB_W1@Z 
01:000BE634 ?vpi_ddeUnableInitTransaction@vpi_class@@SAXPAXPAPB_W1@Z 
01:000BE65C ?vpi_ddeUnableCompleteTransaction@vpi_class@@SAXPAXPAPB_W1@Z 
01:000BE684 ?vpi_ddeInternalError@vpi_class@@SAXPAXPAPB_W1@Z 
01:000BE6AC ?vpi_dde_advice_end_timeout@vpi_class@@SAXPAXPAPB_W1@Z 
01:000BE6D4 ?vpi_ddeInvalidId@vpi_class@@SAXPAXPAPB_W1@Z 
01:000BE6FC ?vpi_ddeSyserror@vpi_class@@SAXPAXPAPB_W1@Z 
01:000BE724 ?vpi_ddeInitFail@vpi_class@@SAXPAXPAPB_W1@Z 
01:000BE74C ?trySetFocusOnFirstControl@vpi_class@@SAXPBUwindowHandle@vpiDomains@@@Z  (Idle)
01:000BE7B0 ?_createCustomControl@vpi_class@@SAXXPAUrct_struct@vpiDomains_class@@PBUunitType@vpiDomains@@PB_WPBUwindowHandle@5@PAU?$__list_struct@Uwsflag@@@@PBUctlid@5@AAU65@@Z 
01:000BE820 ?_createCustomControl@vpi_class@@SAXXPAUrct_struct@vpiDomains_class@@PBUunitType@vpiDomains@@PB_WPBUwindowHandle@5@PAU?$__list_struct@Uwsflag@@@@PBUctlid@5@PBUbooleanInt@@AAU65@@Z 
01:000BE8E0 ?registerCustomCtrl@vpi_class@@SAXXZ 
01:000BE92C ?_dummyEventHandler@vpi_class@@SAXPBUwindowHandle@@PAUevent_struct@vpiDomains_class@@PAH@Z 
01:000BE938 ?winCenter@vpi_class@@SAXPBUwindowHandle@vpiDomains@@@Z 
01:000BE96C ?winCenter@vpi_class@@SAXPBUwindowHandle@vpiDomains@@PAUrct_struct@vpiDomains_class@@@Z 
01:000BE994 ?rctCenter@vpi_class@@SAXPAUrct_struct@vpiDomains_class@@PAPAU23@@Z 
01:000BE9D0 ?rctCenter@vpi_class@@SAXPBUwindowHandle@vpiDomains@@PAUrct_struct@vpiDomains_class@@PAPAU45@@Z 
01:000BEB34 ?winMapPnt@vpi_class@@SAXPAUpnt_struct@vpiDomains_class@@PBUwindowHandle@vpiDomains@@1PAPAU23@@Z 
01:000BEB90 ?_winCtlGetText@vpi_class@@SAXPBUwindowHandle@vpiDomains@@PBUctlid@3@PAPB_W@Z  (Idle)
01:000BEBB8 ?winCtlSelectText@vpi_class@@SAXPBUwindowHandle@vpiDomains@@PBUctlid@3@@Z  (Idle)
01:000BEBF4 ?winCtlIsChecked@vpi_class@@SAXPBUwindowHandle@vpiDomains@@PBUctlid@3@@Z  (Idle)
01:000BEC28 ?winCtlSetFocus@vpi_class@@SAXPBUwindowHandle@vpiDomains@@PBUctlid@3@@Z  (Idle)
01:000BEC48 ?winCtlSetState@vpi_class@@SAXPBUwindowHandle@vpiDomains@@PBUctlid@3@PAU?$__list_struct@Uwsflag@@@@@Z  (Idle)
01:000BEC6C ?mdiWinGetRestoredRect@vpi_class@@SAXPBUwindowHandle@vpiDomains@@PAPAUrct_struct@vpiDomains_class@@@Z 
01:000BED44 ?dialogWinSetRestoredRect@vpi_class@@SAXPBUwindowHandle@vpiDomains@@PAUrct_struct@vpiDomains_class@@@Z  (Idle)
01:000BEDD4 ?dialogWinGetRestoredRect@vpi_class@@SAXPBUwindowHandle@vpiDomains@@PAPAUrct_struct@vpiDomains_class@@@Z  (Idle)
01:000BEE6C ?_test_taskwindow@vpi_class@@SAXPBUwindowHandle@vpiDomains@@AAUbooleanInt@@@Z 
01:000BEE98 ?winCtlRadioGet@vpi_class@@SAXPBUwindowHandle@vpiDomains@@PAU?$__list_struct@Uinteger@@@@AAUctlid@3@@Z  (Idle)
01:000BEEEC ?decomposeRGB@vpi_class@@SAXPBUcolor@vpiDomains@@AAUinteger16@@11@Z  (Idle)
01:000BEFA4 ?winCtlGetNextTabStop@vpi_class@@SAXPBUwindowHandle@vpiDomains@@0AAU23@@Z  (Idle)
01:000BEFCC ?winCtlGetPrevTabStop@vpi_class@@SAXPBUwindowHandle@vpiDomains@@0AAU23@@Z  (Idle)
01:000BEFF4 ?_menuPopUp@vpi_class@@SAXPBUwindowHandle@vpiDomains@@PAUmenu_struct@vpiDomains_class@@PAUpnt_struct@5@PBUmenuAlign@3@PAPAUboolean_struct@_builtIn_class@@@Z  (Idle)
--- From 'Obj\exe.obj'
01:000BF040 ?classInfo@mainExe_class@@SAXPAPB_W0@Z 
--- From 'Obj\main.obj'
01:000BF05C ?run@mainExe_class@@SAXX@Z 
--- From 'Obj\exe.obj'
01:000BF134 ?runCom@mainExe_class@@SAXXPAU?$__list_struct@UcoInit@exe_api@@@@@Z 
01:000BF1B4 ?runCom@mainExe_class@@SAXX@Z  (Idle)
01:000BF1DC ?runOle@mainExe_class@@SAXX@Z  (Idle)
01:000BF268 ?checkResult@mainExe_class@@SAXPBUhResult@@PB_WPAU?$__list_struct@UnamedValue@@@@@Z 
01:000BF2EC ?_getCommandLine@mainExe_class@@SAXPAPB_W@Z  (Idle)
01:000BF35C ?_parseCommandLine@mainExe_class@@SAXPB_W_W0PAPB_W@Z 
01:000BF458 ?_getPosition@mainExe_class@@SAXPB_W0AAUcharCount@@@Z 
01:000BF498 ?getFileName@mainExe_class@@SAXPAPB_W0@Z  (Idle)
01:000BF4D4 ?_getFileName@mainExe_class@@SAXPAPB_W@Z 
01:000BF538 ?_getCurrentHinstance@mainExe_class@@SAXAAUhModule@@@Z 
--- From 'Obj\exe_api.obj'
01:000BF560 ?_getModuleNameByAddress@exe_api_class@@SAXPBUhModule@@PAPB_W@Z  (Idle)
01:000BF61C ?_isOSConsoleApplication@exe_api_class@@SAXPB_WPAPAUboolean_struct@_builtIn_class@@@Z  (Idle)
01:000BF830 ?coInitialize@exe_api_class@@SAXPAU?$__list_struct@UcoInit@@@@@Z 
01:000BF8CC ?coUninitialize@exe_api_class@@SAXXZ 
01:000BF8D8 ?_toCoInitFlag@exe_api_class@@SAXPAU?$__list_struct@UcoInit@@@@PAI@Z 
01:000BF93C ?_coInitMap@exe_api_class@@SAXPAUcoInit_struct@1@PAI@Z 
01:000BF978 ?classInfo@exe_api_class@@SAXPAPB_W0@Z 
--- From '.\ReleasePE\VIPDll.obj'
01:000BF9A0 _PROLOG_Goal 
--- From 'Obj\main.obj'
01:000BF9BC ?classInfo@main_class@@SAXPAPB_W0@Z  (Idle)
01:000BF9D8 ?run@main_class@@SAXXZ 
--- From '.\ReleasePE\VIPMain.obj'
01:000BFA00 _VIPStartUp@0  (Idle)
--- From '.\ReleasePE\VIPDll.obj'
01:000BFA70 _VIPSetDllHook@4  (Idle)
01:000BFA90 ?tryCallHook@VIPDllHook@RunTime@VIP@@QBEHPAXK0@Z 
01:000BFAE0 ?VIPDllGetHandleModule@RunTime@VIP@@YAPAXXZ 
01:000BFAF0 _VIPDllMain@12  (Idle)
--- From '.\ReleasePE\VIPPE.obj'
01:000BFBE0 ?VIP_PE_Dialog@@YAXXZ 
Frame 0C0000   Size 097B80.  Name=<  .rdata>, 	Chars=40000040h. [IR]
0C0000:000000 0053A0   VIPInter::VIPInter::.rdata F=4
--- From 'Obj\exe_api.obj'
02:000C0000 $runtimeLinkNamesRun$_global$0$domain$$type_library$  (Idle)
02:000C0010 $runtimeLinkNamesRun$_global$0$domain$ 
02:000C0050 interface$runtimeLinkNamesRun 
02:000C00D0 $disposable$_global$0$domain$$type_library$  (Idle)
02:000C00E0 $disposable$_global$0$domain$ 
02:000C0110 interface$disposable 
02:000C0170 $object$_global$0$domain$$type_library$ 
02:000C0180 $object$_global$0$domain$ 
02:000C01A0 interface$object 
02:000C0240 $outputStream_string$_global$0$domain$$type_library$ 
02:000C0250 $outputStream_string$_global$0$domain$ 
02:000C0290 interface$outputStream_string 
02:000C0320 $mode$stream$0$domain$$type_library$ 
02:000C034C $mode$stream$0$domain$ 
02:000C03A0 $stream$_global$0$domain$$type_library$  (Idle)
02:000C03B0 $stream$_global$0$domain$ 
02:000C03D0 interface$stream 
02:000C0430 $stdIOState$_global$0$domain$$type_library$ 
02:000C0440 $stdIOState$_global$0$domain$ 
02:000C0470 interface$stdIOState 
02:000C04E0 $outputStream$_global$0$domain$$type_library$ 
02:000C04F0 $outputStream$_global$0$domain$ 
02:000C0520 interface$outputStream 
02:000C0590 $inputStream$_global$0$domain$$type_library$ 
02:000C05A0 $inputStream$_global$0$domain$ 
02:000C05D0 interface$inputStream 
02:000C0640 $offsetPtr$bufferSupport$0$domain$$type_library$  (Idle)
02:000C065C $offsetPtr$bufferSupport$0$domain$ 
02:000C06A0 $bufferSupport$_global$0$domain$$type_library$  (Idle)
02:000C06B0 $bufferSupport$_global$0$domain$ 
02:000C06E0 interface$bufferSupport 
02:000C0750 $trapInformationObject$_global$0$domain$$type_library$  (Idle)
02:000C0760 $trapInformationObject$_global$0$domain$ 
02:000C07A0 interface$trapInformationObject 
02:000C0840 $errorDescriptorInformation$_global$0$domain$$type_library$ 
02:000C0850 $errorDescriptorInformation$_global$0$domain$ 
02:000C08A0 interface$errorDescriptorInformation 
--- From 'Obj\templateexpander.obj'
02:000C0950 $regExp$_global$0$domain$$type_library$  (Idle)
02:000C0960 $regExp$_global$0$domain$ 
02:000C0980 interface$regExp 
--- From 'Obj\exe_api.obj'
02:000C09E0 $weakPointer$_global$0$domain$$type_library$  (Idle)
02:000C09F0 $weakPointer$_global$0$domain$ 
02:000C0A20 interface$weakPointer 
02:000C0A90 $outputStream_binary$_global$0$domain$$type_library$  (Idle)
02:000C0AA0 $outputStream_binary$_global$0$domain$ 
02:000C0AE0 interface$outputStream_binary 
--- From 'Obj\taskwindow.obj'
02:000C0B70 $resourceIdentifiers$_global$0$domain$$type_library$  (Idle)
02:000C0B80 $resourceIdentifiers$_global$0$domain$ 
02:000C0BC0 interface$resourceIdentifiers 
02:000C0C30 $formNewClientFiz$_global$0$domain$$type_library$  (Idle)
02:000C0C40 $formNewClientFiz$_global$0$domain$ 
02:000C0C80 interface$formNewClientFiz 
--- From 'Obj\main.obj'
02:000C0D10 $windowGDI$_global$0$domain$$type_library$ 
02:000C0D20 $windowGDI$_global$0$domain$ 
02:000C0D50 interface$windowGDI 
02:000C0DB0 $orientation$popupWindow$0$domain$$type_library$ 
02:000C0DC0 $orientation$popupWindow$0$domain$ 
02:000C0E40 $origo$popupWindow$0$domain$$type_library$ 
02:000C0E60 $origo$popupWindow$0$domain$ 
02:000C0E90 $popupWindow$_global$0$domain$$type_library$  (Idle)
02:000C0EA0 $popupWindow$_global$0$domain$ 
02:000C0ED0 interface$popupWindow 
02:000C0F30 $pictureCanvas$_global$0$domain$$type_library$  (Idle)
02:000C0F40 $pictureCanvas$_global$0$domain$ 
02:000C0F70 interface$pictureCanvas 
02:000C0FE0 $windowExtension$_global$0$domain$$type_library$ 
02:000C0FF0 $windowExtension$_global$0$domain$ 
02:000C1020 interface$windowExtension 
02:000C10B0 $postActionQueue$_global$0$domain$$type_library$ 
02:000C10C0 $postActionQueue$_global$0$domain$ 
02:000C10F0 interface$postActionQueue 
02:000C1180 $formWindowExtension$_global$0$domain$$type_library$ 
02:000C1190 $formWindowExtension$_global$0$domain$ 
02:000C11D0 interface$formWindowExtension 
02:000C1270 $drawWindowExtension$_global$0$domain$$type_library$ 
02:000C1280 $drawWindowExtension$_global$0$domain$ 
02:000C12C0 interface$drawWindowExtension 
02:000C1360 $drawControlExtension$_global$0$domain$$type_library$ 
02:000C1370 $drawControlExtension$_global$0$domain$ 
02:000C13B0 interface$drawControlExtension 
02:000C1450 $documentWindowExtension$_global$0$domain$$type_library$ 
02:000C1460 $documentWindowExtension$_global$0$domain$ 
02:000C14A0 interface$documentWindowExtension 
02:000C1550 $dialogExtension$_global$0$domain$$type_library$ 
02:000C1560 $dialogExtension$_global$0$domain$ 
02:000C1590 interface$dialogExtension 
02:000C1620 $controlExtension$_global$0$domain$$type_library$ 
02:000C1630 $controlExtension$_global$0$domain$ 
02:000C1670 interface$controlExtension 
02:000C1700 $containerWindowSupport$_global$0$domain$$type_library$  (Idle)
02:000C1710 $containerWindowSupport$_global$0$domain$ 
02:000C1750 interface$containerWindowSupport 
02:000C1800 $versionControl$_global$0$domain$$type_library$ 
02:000C1810 $versionControl$_global$0$domain$ 
02:000C1840 interface$versionControl 
02:000C18C0 $timerControl$_global$0$domain$$type_library$  (Idle)
02:000C18D0 $timerControl$_global$0$domain$ 
02:000C1900 interface$timerControl 
02:000C1980 $scrollControl$_global$0$domain$$type_library$  (Idle)
02:000C1990 $scrollControl$_global$0$domain$ 
02:000C19C0 interface$scrollControl 
02:000C1A40 $realControl$_global$0$domain$$type_library$  (Idle)
02:000C1A50 $realControl$_global$0$domain$ 
02:000C1A80 interface$realControl 
02:000C1B00 $radioButtonGroup$_global$0$domain$$type_library$ 
02:000C1B10 $radioButtonGroup$_global$0$domain$ 
02:000C1B50 interface$radioButtonGroup 
02:000C1BE0 $listEdit$_global$0$domain$$type_library$  (Idle)
02:000C1BF0 $listEdit$_global$0$domain$ 
02:000C1C20 interface$listEdit 
02:000C1C90 $listControl$_global$0$domain$$type_library$  (Idle)
02:000C1CA0 $listControl$_global$0$domain$ 
02:000C1CD0 interface$listControl 
02:000C1D50 $listButton$_global$0$domain$$type_library$ 
02:000C1D60 $listButton$_global$0$domain$ 
02:000C1D90 interface$listButton 
02:000C1E00 $listBox$_global$0$domain$$type_library$ 
02:000C1E10 $listBox$_global$0$domain$ 
02:000C1E30 interface$listBox 
02:000C1EA0 $integerControl$_global$0$domain$$type_library$  (Idle)
02:000C1EB0 $integerControl$_global$0$domain$ 
02:000C1EE0 interface$integerControl 
02:000C1F60 $iconControl$_global$0$domain$$type_library$ 
02:000C1F70 $iconControl$_global$0$domain$ 
02:000C1FA0 interface$iconControl 
02:000C2020 $borderStyle$groupBox$0$domain$$type_library$ 
02:000C2030 $borderStyle$groupBox$0$domain$ 
02:000C20E0 $groupBox$_global$0$domain$$type_library$  (Idle)
02:000C20F0 $groupBox$_global$0$domain$ 
02:000C2120 interface$groupBox 
02:000C2190 $editControl$_global$0$domain$$type_library$ 
02:000C21A0 $editControl$_global$0$domain$ 
02:000C21D0 interface$editControl 
02:000C2250 $containerControl$_global$0$domain$$type_library$ 
02:000C2260 $containerControl$_global$0$domain$ 
02:000C22A0 interface$containerControl 
02:000C2330 $actionResponse$button$0$domain$$type_library$  (Idle)
02:000C2340 $actionResponse$button$0$domain$ 
02:000C23B0 $button$_global$0$domain$$type_library$ 
02:000C23C0 $button$_global$0$domain$ 
02:000C23E0 interface$button 
02:000C2440 $textControl$_global$0$domain$$type_library$ 
02:000C2450 $textControl$_global$0$domain$ 
02:000C2480 interface$textControl 
02:000C2500 $state$radioButton$0$domain$$type_library$ 
02:000C2510 $state$radioButton$0$domain$ 
02:000C2560 $radioButton$_global$0$domain$$type_library$ 
02:000C2570 $radioButton$_global$0$domain$ 
02:000C25A0 interface$radioButton 
02:000C2620 $state$checkButton$0$domain$$type_library$ 
02:000C2630 $state$checkButton$0$domain$ 
02:000C2690 $checkButton$_global$0$domain$$type_library$  (Idle)
02:000C26A0 $checkButton$_global$0$domain$ 
02:000C26D0 interface$checkButton 
02:000C2750 $closeResponse$frameDecoration$0$domain$$type_library$  (Idle)
02:000C2760 $closeResponse$frameDecoration$0$domain$ 
02:000C2800 $border$frameDecoration$0$domain$$type_library$  (Idle)
02:000C2810 $border$frameDecoration$0$domain$ 
02:000C28A0 $decorationButton$frameDecoration$0$domain$$type_library$ 
02:000C28B0 $decorationButton$frameDecoration$0$domain$ 
02:000C2950 $decoration$frameDecoration$0$domain$$type_library$  (Idle)
02:000C297C $decoration$frameDecoration$0$domain$ 
02:000C29D0 $frameDecoration$_global$0$domain$$type_library$  (Idle)
02:000C29E0 $frameDecoration$_global$0$domain$ 
02:000C2A10 interface$frameDecoration 
02:000C2A80 $formWindow$_global$0$domain$$type_library$  (Idle)
02:000C2A90 $formWindow$_global$0$domain$ 
02:000C2AC0 interface$formWindow 
02:000C2B20 $keyUpResponse$drawWindow$0$domain$$type_library$  (Idle)
02:000C2B30 $keyUpResponse$drawWindow$0$domain$ 
02:000C2BB0 $keyDownResponse$drawWindow$0$domain$$type_library$  (Idle)
02:000C2BC0 $keyDownResponse$drawWindow$0$domain$ 
02:000C2C50 $charResponse$drawWindow$0$domain$$type_library$  (Idle)
02:000C2C60 $charResponse$drawWindow$0$domain$ 
02:000C2CE0 $eraseBackgroundResponse$drawWindow$0$domain$$type_library$  (Idle)
02:000C2CF0 $eraseBackgroundResponse$drawWindow$0$domain$ 
02:000C2DD0 $scrollInfo$drawWindow$0$domain$$type_library$  (Idle)
02:000C2DFC $scrollInfo$drawWindow$0$domain$ 
02:000C2E40 $scrollBarInfoRgState$drawWindow$0$domain$$type_library$ 
02:000C2E70 $scrollBarInfoRgState$drawWindow$0$domain$ 
02:000C2EE0 $scrollBarInfo$drawWindow$0$domain$$type_library$  (Idle)
02:000C2F0C $scrollBarInfo$drawWindow$0$domain$ 
02:000C2F60 $drawWindow$_global$0$domain$$type_library$ 
02:000C2F70 $drawWindow$_global$0$domain$ 
02:000C2FA0 interface$drawWindow 
02:000C3000 $documentWindow$_global$0$domain$$type_library$ 
02:000C3010 $documentWindow$_global$0$domain$ 
02:000C3040 interface$documentWindow 
02:000C30B0 $childWindow$_global$0$domain$$type_library$  (Idle)
02:000C30C0 $childWindow$_global$0$domain$ 
02:000C30F0 interface$childWindow 
02:000C3150 $nativeResponse$window$0$domain$$type_library$  (Idle)
02:000C3174 $nativeResponse$window$0$domain$ 
02:000C3200 $contextMenuInput$window$0$domain$$type_library$  (Idle)
02:000C3224 $contextMenuInput$window$0$domain$ 
02:000C3280 $contextMenuResponse$window$0$domain$$type_library$  (Idle)
02:000C3290 $contextMenuResponse$window$0$domain$ 
02:000C3330 $window$_global$0$domain$$type_library$ 
02:000C3340 $window$_global$0$domain$ 
02:000C3360 interface$window 
02:000C33B0 $validateResult$dialog$0$domain$$type_library$  (Idle)
02:000C33DC $validateResult$dialog$0$domain$ 
02:000C3450 $unit$dialog$0$domain$$type_library$  (Idle)
02:000C3460 $unit$dialog$0$domain$ 
02:000C34C0 $dialog$_global$0$domain$$type_library$ 
02:000C34D0 $dialog$_global$0$domain$ 
02:000C34F0 interface$dialog 
02:000C3540 $anchorEdge$control$0$domain$$type_library$ 
02:000C3550 $anchorEdge$control$0$domain$ 
02:000C35C0 $validateResult$control$0$domain$$type_library$  (Idle)
02:000C35EC $validateResult$control$0$domain$ 
02:000C3660 $control$_global$0$domain$$type_library$ 
02:000C3670 $control$_global$0$domain$ 
02:000C3690 interface$control 
02:000C36E0 $containerWindow$_global$0$domain$$type_library$ 
02:000C36F0 $containerWindow$_global$0$domain$ 
02:000C3720 interface$containerWindow 
02:000C3790 $endSessionResponse$applicationWindow$0$domain$$type_library$  (Idle)
02:000C37A0 $endSessionResponse$applicationWindow$0$domain$ 
02:000C3860 $applicationWindow$_global$0$domain$$type_library$ 
02:000C3870 $applicationWindow$_global$0$domain$ 
02:000C38B0 interface$applicationWindow 
--- From 'Obj\taskwindow.obj'
02:000C3930 $formNewClientYur$_global$0$domain$$type_library$  (Idle)
02:000C3940 $formNewClientYur$_global$0$domain$ 
02:000C3980 interface$formNewClientYur 
02:000C3A10 $formClientFiz$_global$0$domain$$type_library$  (Idle)
02:000C3A20 $formClientFiz$_global$0$domain$ 
02:000C3A50 interface$formClientFiz 
02:000C3AD0 $formClientYur$_global$0$domain$$type_library$  (Idle)
02:000C3AE0 $formClientYur$_global$0$domain$ 
02:000C3B10 interface$formClientYur 
02:000C3B90 $tabs$_global$0$domain$$type_library$  (Idle)
02:000C3BA0 $tabs$_global$0$domain$ 
02:000C3BC0 interface$tabs 
02:000C3C00 $yurReport$_global$0$domain$$type_library$  (Idle)
02:000C3C10 $yurReport$_global$0$domain$ 
02:000C3C40 interface$yurReport 
02:000C3CA0 $fizReport$_global$0$domain$$type_library$  (Idle)
02:000C3CB0 $fizReport$_global$0$domain$ 
02:000C3CE0 interface$fizReport 
02:000C3D40 $userControlSupport$_global$0$domain$$type_library$  (Idle)
02:000C3D50 $userControlSupport$_global$0$domain$ 
02:000C3D90 interface$userControlSupport 
02:000C3E40 $nullControlSupport$_global$0$domain$$type_library$  (Idle)
02:000C3E50 $nullControlSupport$_global$0$domain$ 
02:000C3E90 interface$nullControlSupport 
02:000C3F40 $drawControlSupport$_global$0$domain$$type_library$  (Idle)
02:000C3F50 $drawControlSupport$_global$0$domain$ 
02:000C3F90 interface$drawControlSupport 
02:000C4040 $controlSupport$_global$0$domain$$type_library$  (Idle)
02:000C4050 $controlSupport$_global$0$domain$ 
02:000C4080 interface$controlSupport 
02:000C4120 $commonControlSupport$_global$0$domain$$type_library$  (Idle)
02:000C4130 $commonControlSupport$_global$0$domain$ 
02:000C4170 interface$commonControlSupport 
--- From 'Obj\tabcontrol.obj'
02:000C4230 $tabPage$_global$0$domain$$type_library$ 
02:000C4240 $tabPage$_global$0$domain$ 
02:000C4260 interface$tabPage 
02:000C42E0 $location$tabControl$0$domain$$type_library$ 
02:000C42F0 $location$tabControl$0$domain$ 
02:000C4360 $pageChangeResponse$tabControl$0$domain$$type_library$  (Idle)
02:000C4370 $pageChangeResponse$tabControl$0$domain$ 
02:000C4400 $tabControl$_global$0$domain$$type_library$ 
02:000C4410 $tabControl$_global$0$domain$ 
02:000C4440 interface$tabControl 
02:000C44D0 $tabPageContainer$_global$0$domain$$type_library$ 
02:000C44E0 $tabPageContainer$_global$0$domain$ 
02:000C4520 interface$tabPageContainer 
--- From 'Obj\gui.obj'
02:000C45C0 $errorPresentationDialog$_global$0$domain$$type_library$  (Idle)
02:000C45D0 $errorPresentationDialog$_global$0$domain$ 
02:000C4610 interface$errorPresentationDialog 
--- From 'Obj\guisupport.obj'
02:000C46D0 $waitableTimer$_global$0$domain$$type_library$  (Idle)
02:000C46E0 $waitableTimer$_global$0$domain$ 
02:000C4710 interface$waitableTimer 
02:000C4790 $thread$_global$0$domain$$type_library$  (Idle)
02:000C47A0 $thread$_global$0$domain$ 
02:000C47C0 interface$thread 
02:000C4820 $syncObject$_global$0$domain$$type_library$ 
02:000C4830 $syncObject$_global$0$domain$ 
02:000C4860 interface$syncObject 
02:000C48D0 $semaphore$_global$0$domain$$type_library$  (Idle)
02:000C48E0 $semaphore$_global$0$domain$ 
02:000C4910 interface$semaphore 
02:000C4980 $mutex$_global$0$domain$$type_library$ 
02:000C4990 $mutex$_global$0$domain$ 
02:000C49B0 interface$mutex 
02:000C4A10 $event$_global$0$domain$$type_library$  (Idle)
02:000C4A20 $event$_global$0$domain$ 
02:000C4A40 interface$event 
02:000C4AA0 $criticalSection$_global$0$domain$$type_library$ 
02:000C4AB0 $criticalSection$_global$0$domain$ 
02:000C4AE0 interface$criticalSection 
--- From 'Obj\binary.obj'
02:000C4B60 $inputSupport$_global$0$domain$$type_library$  (Idle)
02:000C4B70 $inputSupport$_global$0$domain$ 
02:000C4BA0 interface$inputSupport 
02:000C4C30 $inputBuffer$_global$0$domain$$type_library$ 
02:000C4C40 $inputBuffer$_global$0$domain$ 
02:000C4C70 interface$inputBuffer 
02:000C4D00 $outputSupport$_global$0$domain$$type_library$  (Idle)
02:000C4D10 $outputSupport$_global$0$domain$ 
02:000C4D40 interface$outputSupport 
02:000C4DE0 $outputBuffer$_global$0$domain$$type_library$ 
02:000C4DF0 $outputBuffer$_global$0$domain$ 
02:000C4E20 interface$outputBuffer 
--- From 'Obj\taskwindow.obj'
02:000C4EC0 $verticalSize$messageForm$0$domain$$type_library$ 
02:000C4EE8 $verticalSize$messageForm$0$domain$ 
02:000C4F50 $messageForm$_global$0$domain$$type_library$  (Idle)
02:000C4F60 $messageForm$_global$0$domain$ 
02:000C4F90 interface$messageForm 
02:000C5020 $messageControl$_global$0$domain$$type_library$ 
02:000C5030 $messageControl$_global$0$domain$ 
02:000C5060 interface$messageControl 
02:000C5100 $formHelp$_global$0$domain$$type_library$  (Idle)
02:000C5110 $formHelp$_global$0$domain$ 
02:000C5140 interface$formHelp 
02:000C51A0 $formDocs$_global$0$domain$$type_library$  (Idle)
02:000C51B0 $formDocs$_global$0$domain$ 
02:000C51E0 interface$formDocs 
--- From 'Obj\main.obj'
02:000C5240 $taskWindow$_global$0$domain$$type_library$  (Idle)
02:000C5250 $taskWindow$_global$0$domain$ 
02:000C5280 interface$taskWindow 
02:000C52F0 $aboutDialog$_global$0$domain$$type_library$  (Idle)
02:000C5300 $aboutDialog$_global$0$domain$ 
02:000C5330 interface$aboutDialog 
0C0000:0053A0 074990   VIPClass::VIPClass::.rdata F=4
--- From 'Obj\formdocs.obj'
02:000C53A0 class$formDocs 
02:000C7B4C class$formDocs$vtable$  (Idle)
--- From 'Obj\formhelp.obj'
02:000C85F0 class$formHelp 
02:000CAD54 class$formHelp$vtable$  (Idle)
--- From 'Obj\locale_api.obj'
02:000CB7A0 class$locale_api 
02:000CB830 class$locale_native 
--- From 'Obj\registry.obj'
02:000CB8C0 class$registry 
02:000CB8DC $rootKey$registry$0$domain$ 
02:000CB90C $rootKey$registry$0$domain$$type_library$ 
02:000CBA10 class$registry_exception 
--- From 'Obj\string8_api.obj'
02:000CBAA0 class$string8_api 
02:000CBB30 class$string8_native 
--- From 'Obj\regexp.obj'
02:000CBBD0 class$regExp 
02:000CBC34 class$regExp$vtable$ 
02:000CBCF0 class$regExp_exception 
--- From 'Obj\registry_api.obj'
02:000CBD70 class$registry_api 
02:000CBF20 class$registry_native 
02:000CBF48 $pUnsigned$registry_native$0$domain$ 
02:000CBF60 $pUnsigned$registry_native$0$domain$$type_library$  (Idle)
02:000CBF78 $securityAttr$registry_native$0$domain$ 
02:000CBF90 $securityAttr$registry_native$0$domain$$type_library$  (Idle)
--- From 'Obj\formnewclientfiz.obj'
02:000CC070 class$formNewClientFiz 
02:000CEC98 class$formNewClientFiz$vtable$  (Idle)
--- From 'Obj\formnewclientyur.obj'
02:000CFA40 class$formNewClientYur 
02:000D2594 class$formNewClientYur$vtable$  (Idle)
--- From 'Obj\formclientfiz.obj'
02:000D32D0 class$formClientFiz 
02:000D5C58 class$formClientFiz$vtable$  (Idle)
--- From 'Obj\formclientyur.obj'
02:000D67E0 class$formClientYur 
02:000D90C4 class$formClientYur$vtable$  (Idle)
--- From 'Obj\forms.obj'
02:000D9C00 class$fizReport 
02:000DBF10 class$fizReport$vtable$  (Idle)
02:000DC930 class$yurReport 
02:000DEC14 class$yurReport$vtable$  (Idle)
02:000DF630 class$tabs 
02:000E1DC4 class$tabs$vtable$  (Idle)
--- From 'Obj\tabcontrol.obj'
02:000E2830 class$tabControl 
02:000E4B78 class$tabControl$vtable$  (Idle)
02:000E5760 class$tabPage 
02:000E581C class$tabPage$vtable$ 
02:000E5B20 class$tabPageContainer 
02:000E5BB4 class$tabPageContainer$vtable$ 
02:000E5F00 class$tabPageWindowExtension 
02:000E5F64 class$tabPageWindowExtension$vtable$ 
--- From 'Obj\controlsupport.obj'
02:000E60D0 class$commonControlSupport 
02:000E7658 class$commonControlSupport$vtable$  (Idle)
--- From 'Obj\messagecontrol.obj'
02:000E7D10 class$controlSupport 
02:000E7F48 class$controlSupport$vtable$ 
--- From 'Obj\controlsupport.obj'
02:000E8520 class$drawControlSupport 
02:000EB2E4 class$drawControlSupport$vtable$  (Idle)
02:000EC310 class$nullControlSupport 
02:000EDE14 class$nullControlSupport$vtable$  (Idle)
--- From 'Obj\controls.obj'
02:000EE5F0 class$standardControlSupport 
02:000EFB78 class$standardControlSupport$vtable$ 
--- From 'Obj\controlsupport.obj'
02:000F01E0 class$userControlSupport 
02:000F2FD4 class$userControlSupport$vtable$ 
--- From 'Obj\templateexpander.obj'
02:000F3F80 class$templateExpander 
--- From 'Obj\errorpresentationdialog.obj'
02:000F4010 class$errorPresentationDialog 
02:000F5F58 class$errorPresentationDialog$vtable$  (Idle)
--- From 'Obj\multithread.obj'
02:000F6AE0 class$criticalSection 
02:000F6B44 class$criticalSection$vtable$ 
02:000F6C70 class$consoleSync 
02:000F6D28 class$consoleSync$vtable$ 
02:000F6DD0 class$event 
02:000F6E88 class$event$vtable$ 
02:000F6F30 class$mutex 
02:000F6FE8 class$mutex$vtable$ 
02:000F7090 class$semaphore 
02:000F7148 class$semaphore$vtable$ 
02:000F7200 class$syncObject 
02:000F72A0 class$syncObject$vtable$ 
02:000F73B0 class$thread 
02:000F74E0 class$thread$vtable$ 
02:000F7630 class$waitableTimer 
02:000F76E8 class$waitableTimer$vtable$ 
--- From 'Obj\multithread_api.obj'
02:000F77B0 class$multiThread_api 
02:000F7850 class$multiThread_native 
02:000F78E8 $startupinfo_api$multiThread_native$0$domain$ 
02:000F7900 $startupinfo_api$multiThread_native$0$domain$$type_library$  (Idle)
02:000F791C $processInformation_api$multiThread_native$0$domain$ 
02:000F7934 $processInformation_api$multiThread_native$0$domain$$type_library$  (Idle)
02:000F7958 $critical_section$multiThread_native$0$domain$ 
02:000F7970 $critical_section$multiThread_native$0$domain$$type_library$ 
02:000F79A8 $selectorEntry$multiThread_native$0$domain$ 
02:000F79C0 $selectorEntry$multiThread_native$0$domain$$type_library$  (Idle)
--- From 'Obj\binary.obj'
02:000F7B30 class$outputSupport 
02:000F7BDC class$outputSupport$vtable$ 
--- From 'Obj\vpieditor.obj'
02:000F7D80 class$runtimeLinkNamesEdit 
02:000F7E20 class$vpiEditor 
02:000F7E54 $hyper_event$vpiEditor$0$domain$ 
02:000F7E70 $hyper_event$vpiEditor$0$domain$$type_library$  (Idle)
02:000F7E84 $assoc$vpiEditor$0$domain$ 
02:000F7E9C $assoc$vpiEditor$0$domain$$type_library$  (Idle)
02:000F7EB4 $leftMargin$vpiEditor$0$domain$ 
02:000F7ECC $leftMargin$vpiEditor$0$domain$$type_library$  (Idle)
02:000F7ED0 $colorType$vpiEditor$0$domain$ 
02:000F7F3C $colorType$vpiEditor$0$domain$$type_library$ 
02:000F7F54 $colorSettings$vpiEditor$0$domain$ 
02:000F7F6C $colorSettings$vpiEditor$0$domain$$type_library$ 
02:000F7F84 $colorOption$vpiEditor$0$domain$ 
02:000F7F9C $colorOption$vpiEditor$0$domain$$type_library$ 
02:000F7FA0 $bookmarkType$vpiEditor$0$domain$ 
02:000F7FB8 $bookmarkType$vpiEditor$0$domain$$type_library$ 
02:000F7FD0 $bookmarkItem$vpiEditor$0$domain$ 
02:000F7FE8 $bookmarkItem$vpiEditor$0$domain$$type_library$  (Idle)
02:000F7FEC $editorFunction$vpiEditor$0$domain$ 
02:000F8024 $editorFunction$vpiEditor$0$domain$$type_library$  (Idle)
02:000F8068 $re_pattern_buffer$vpiEditor$0$domain$ 
02:000F8080 $re_pattern_buffer$vpiEditor$0$domain$$type_library$  (Idle)
02:000F8090 $p_regoff_t$vpiEditor$0$domain$ 
02:000F80A8 $p_regoff_t$vpiEditor$0$domain$$type_library$ 
02:000F80C0 $re_registers$vpiEditor$0$domain$ 
02:000F80D8 $re_registers$vpiEditor$0$domain$$type_library$  (Idle)
02:000F80EC $regmatch_t$vpiEditor$0$domain$ 
02:000F8104 $regmatch_t$vpiEditor$0$domain$$type_library$  (Idle)
--- From 'Obj\binary.obj'
02:000F8740 class$inputSupport 
02:000F87D4 class$inputSupport$vtable$ 
--- From 'Obj\string8.obj'
02:000F8910 class$string8 
--- From 'Obj\string_api.obj'
02:000F8A00 class$string_native 
--- From 'Obj\string.obj'
02:000F8A90 class$inputStream_string 
02:000F8CEC class$inputStream_string$vtable$  (Idle)
02:000F8F10 class$outputStream_string 
02:000F91C4 class$outputStream_string$vtable$  (Idle)
02:000F9470 class$string 
02:000F948C $caseSensitivity$string$0$domain$ 
02:000F94AC $caseSensitivity$string$0$domain$$type_library$  (Idle)
02:000F94B0 $adjustBehaviour$string$0$domain$ 
02:000F94D0 $adjustBehaviour$string$0$domain$$type_library$  (Idle)
02:000F94D4 $adjustSide$string$0$domain$ 
02:000F94F0 $adjustSide$string$0$domain$$type_library$  (Idle)
02:000F9740 class$string_local 
02:000F97B0 class$string_exception 
--- From 'Obj\filesystem_api.obj'
02:000F9830 class$fileSystem_api 
02:000F984C $fileAttributeAtom$fileSystem_api$0$domain$ 
02:000F9884 $fileAttributeAtom$fileSystem_api$0$domain$$type_library$  (Idle)
02:000F9888 $accessPermit$fileSystem_api$0$domain$ 
02:000F98AC $accessPermit$fileSystem_api$0$domain$$type_library$  (Idle)
02:000F9F20 class$fileSystem_native 
02:000F9F48 $pointerToI32$fileSystem_native$0$domain$ 
02:000F9F60 $pointerToI32$fileSystem_native$0$domain$$type_library$  (Idle)
02:000F9FA0 $fileInfo$fileSystem_native$0$domain$ 
02:000F9FB8 $fileInfo$fileSystem_native$0$domain$$type_library$  (Idle)
02:000F9FE8 $fileAttributesInfo$fileSystem_native$0$domain$ 
02:000FA000 $fileAttributesInfo$fileSystem_native$0$domain$$type_library$  (Idle)
--- From 'Obj\filesystem.obj'
02:000FA02C $shFileOpStruct$fileSystem_native$0$domain$ 
--- From 'Obj\filesystem_api.obj'
02:000FA044 $shFileOpStruct$fileSystem_native$0$domain$$type_library$  (Idle)
--- From 'Obj\filesystem.obj'
02:000FA070 $browseinfo$fileSystem_native$0$domain$ 
--- From 'Obj\filesystem_api.obj'
02:000FA088 $browseinfo$fileSystem_native$0$domain$$type_library$  (Idle)
02:000FA0A4 $file_notify_information$fileSystem_native$0$domain$ 
02:000FA0BC $file_notify_information$fileSystem_native$0$domain$$type_library$  (Idle)
02:000FA0DC $overlapped$fileSystem_native$0$domain$ 
02:000FA0F4 $overlapped$fileSystem_native$0$domain$$type_library$  (Idle)
--- From 'Obj\windowsapi.obj'
02:000FA2C0 class$windowsAPI 
02:000FA2F0 $security_Attributes$windowsAPI$0$domain$ 
02:000FA308 $security_Attributes$windowsAPI$0$domain$$type_library$  (Idle)
--- From 'Obj\memory_api.obj'
02:000FA3B0 class$memory_native 
02:000FA3FC $process_memory_counters$memory_native$0$domain$ 
02:000FA414 $process_memory_counters$memory_native$0$domain$$type_library$  (Idle)
02:000FA43C $memory_basic_information$memory_native$0$domain$ 
02:000FA454 $memory_basic_information$memory_native$0$domain$$type_library$  (Idle)
02:000FA4A0 $memoryStatusEx$memory_native$0$domain$ 
02:000FA4B8 $memoryStatusEx$memory_native$0$domain$$type_library$  (Idle)
--- From 'Obj\runtime_api.obj'
02:000FA5E0 class$runtime_api 
--- From 'Obj\time_api.obj'
02:000FA720 class$time_api 
02:000FA7A0 class$time_native 
02:000FA7FC $systemTime$time_native$0$domain$ 
02:000FA814 $systemTime$time_native$0$domain$$type_library$  (Idle)
02:000FA958 $timeZoneAPI$time_native$0$domain$ 
02:000FA970 $timeZoneAPI$time_native$0$domain$$type_library$  (Idle)
02:000FA984 $fileTime$time_native$0$domain$ 
02:000FA99C $fileTime$time_native$0$domain$$type_library$  (Idle)
--- From 'Obj\exceptiondump.obj'
02:000FAA90 class$exceptionDump 
--- From 'Obj\math.obj'
02:000FAB30 class$math 
02:000FAB4C $inCircle$math$0$domain$ 
02:000FAB70 $inCircle$math$0$domain$$type_library$  (Idle)
02:000FAB74 $aPeriod$math$0$domain$ 
02:000FAB98 $aPeriod$math$0$domain$$type_library$  (Idle)
02:000FAB9C $uReal$math$0$domain$ 
02:000FABC0 $uReal$math$0$domain$$type_library$  (Idle)
02:000FAC20 class$math_exception 
--- From 'Obj\gui_api.obj'
02:000FAC90 class$gui_api 
02:000FACDC $windowPlacement$gui_api$0$domain$ 
02:000FACF4 $windowPlacement$gui_api$0$domain$$type_library$  (Idle)
02:000FAD90 class$gui_Native 
02:000FADC4 $mouseMovePoint$gui_Native$0$domain$ 
02:000FADDC $mouseMovePoint$gui_Native$0$domain$$type_library$  (Idle)
02:000FAE18 $security_descriptor$gui_Native$0$domain$ 
02:000FAE30 $security_descriptor$gui_Native$0$domain$$type_library$  (Idle)
02:000FAE60 $acl$gui_Native$0$domain$ 
02:000FAE78 $acl$gui_Native$0$domain$$type_library$ 
02:000FAE9C $copyDataStruct$gui_Native$0$domain$ 
02:000FAEB4 $copyDataStruct$gui_Native$0$domain$$type_library$  (Idle)
02:000FAED0 $trackMouseEvent$gui_Native$0$domain$ 
02:000FAEE8 $trackMouseEvent$gui_Native$0$domain$$type_library$  (Idle)
02:000FAF10 $msg$gui_Native$0$domain$ 
02:000FAF28 $msg$gui_Native$0$domain$$type_library$  (Idle)
02:000FAF5C $wndClass$gui_Native$0$domain$ 
02:000FAF74 $wndClass$gui_Native$0$domain$$type_library$  (Idle)
02:000FAF9C $windowPos$gui_Native$0$domain$ 
02:000FAFB4 $windowPos$gui_Native$0$domain$$type_library$  (Idle)
--- From 'Obj\vpi.obj'
02:000FAFEC $windowPlacement$gui_Native$0$domain$ 
--- From 'Obj\gui_api.obj'
02:000FB004 $windowPlacement$gui_Native$0$domain$$type_library$  (Idle)
02:000FB078 $windowInfo$gui_Native$0$domain$ 
02:000FB090 $windowInfo$gui_Native$0$domain$$type_library$  (Idle)
02:000FB0CC $dlgTemplate$gui_Native$0$domain$ 
02:000FB0E4 $dlgTemplate$gui_Native$0$domain$$type_library$  (Idle)
02:000FB108 $accel$gui_Native$0$domain$ 
02:000FB120 $accel$gui_Native$0$domain$$type_library$  (Idle)
02:000FB15C $menuItemInfo$gui_Native$0$domain$ 
02:000FB174 $menuItemInfo$gui_Native$0$domain$$type_library$  (Idle)
02:000FB194 $drawTextParams$gui_Native$0$domain$ 
02:000FB1AC $drawTextParams$gui_Native$0$domain$$type_library$  (Idle)
02:000FB1CC $size$gui_Native$0$domain$ 
02:000FB1E4 $size$gui_Native$0$domain$$type_library$  (Idle)
02:000FB208 $paintStruct$gui_Native$0$domain$ 
02:000FB220 $paintStruct$gui_Native$0$domain$$type_library$  (Idle)
02:000FB240 $iconInfo$gui_Native$0$domain$ 
02:000FB258 $iconInfo$gui_Native$0$domain$$type_library$  (Idle)
02:000FB280 $scrollInfo$gui_Native$0$domain$ 
02:000FB298 $scrollInfo$gui_Native$0$domain$$type_library$  (Idle)
02:000FB2E0 $scrollBarInfo$gui_Native$0$domain$ 
02:000FB2F8 $scrollBarInfo$gui_Native$0$domain$$type_library$  (Idle)
--- From 'Obj\controls.obj'
02:000FB310 $logbrush$gui_Native$0$domain$ 
--- From 'Obj\gui_api.obj'
02:000FB328 $logbrush$gui_Native$0$domain$$type_library$  (Idle)
02:000FB33C $tagInitCommonControlsEx$gui_Native$0$domain$ 
02:000FB354 $tagInitCommonControlsEx$gui_Native$0$domain$$type_library$  (Idle)
--- From 'Obj\filesystem.obj'
02:000FB740 class$directory 
02:000FB75C $volumeType$directory$0$domain$ 
02:000FB788 $volumeType$directory$0$domain$$type_library$  (Idle)
02:000FB8E0 class$file 
02:000FB8FC $overwrite$file$0$domain$ 
02:000FB920 $overwrite$file$0$domain$$type_library$  (Idle)
02:000FBA50 class$fileName 
02:000FBB00 class$fileSystem_exception 
02:000FBBA0 class$fileVersion 
02:000FBBD4 $versionInformation$fileVersion$0$domain$ 
02:000FBBEC $versionInformation$fileVersion$0$domain$$type_library$  (Idle)
02:000FBC08 $fileVersionInformation$fileVersion$0$domain$ 
02:000FBC20 $fileVersionInformation$fileVersion$0$domain$$type_library$  (Idle)
02:000FBFC0 class$inputStream_file 
02:000FC324 class$inputStream_file$vtable$  (Idle)
02:000FC650 class$messageFile 
02:000FC6CC class$messageFile$vtable$ 
02:000FC7F0 class$outputStream_file 
02:000FCA64 class$outputStream_file$vtable$  (Idle)
--- From 'Obj\systeminformation_api.obj'
02:000FCD10 class$systemInformation_api 
02:000FCDE0 class$systemInformation_native 
02:000FCE4C $system_Info$systemInformation_native$0$domain$ 
02:000FCE64 $system_Info$systemInformation_native$0$domain$$type_library$  (Idle)
02:000FD194 $osVersionInfo$systemInformation_native$0$domain$ 
02:000FD1AC $osVersionInfo$systemInformation_native$0$domain$$type_library$  (Idle)
02:000FD4FC $osVersionInfoEX$systemInformation_native$0$domain$ 
02:000FD514 $osVersionInfoEX$systemInformation_native$0$domain$$type_library$  (Idle)
02:000FD524 $ptrCharCount$systemInformation_native$0$domain$ 
02:000FD53C $ptrCharCount$systemInformation_native$0$domain$$type_library$  (Idle)
--- From 'Obj\boolean.obj'
02:000FD6C0 class$boolean 
--- From 'Obj\vpitoolbar.obj'
02:000FD720 class$vpiToolbar 
02:000FD778 $style$vpiToolbar$0$domain$ 
02:000FD7A4 $style$vpiToolbar$0$domain$$type_library$ 
02:000FD7A8 $control_style$vpiToolbar$0$domain$ 
02:000FD7C4 $control_style$vpiToolbar$0$domain$$type_library$ 
02:000FD7C8 $text_style$vpiToolbar$0$domain$ 
02:000FD7E4 $text_style$vpiToolbar$0$domain$$type_library$ 
02:000FD864 $control$vpiToolbar$0$domain$ 
02:000FD88C $control$vpiToolbar$0$domain$$type_library$ 
02:000FD8C4 $value$vpiToolbar$0$domain$ 
02:000FD8E8 $value$vpiToolbar$0$domain$$type_library$  (Idle)
--- From 'Obj\vpidomains.obj'
02:000FE000 class$vpiDomains 
--- From 'Obj\gui.obj'
02:000FE02C $pnt$vpiDomains$0$domain$ 
--- From 'Obj\main.obj'
02:000FE044 $pnt$vpiDomains$0$domain$$type_library$ 
--- From 'Obj\vpi.obj'
02:000FE060 $rct$vpiDomains$0$domain$ 
--- From 'Obj\main.obj'
02:000FE078 $rct$vpiDomains$0$domain$$type_library$ 
--- From 'Obj\vpidomains.obj'
02:000FE08C $brush$vpiDomains$0$domain$ 
02:000FE0A4 $brush$vpiDomains$0$domain$$type_library$ 
02:000FE0BC $pen$vpiDomains$0$domain$ 
02:000FE0D4 $pen$vpiDomains$0$domain$$type_library$ 
02:000FE0FC $drawtools$vpiDomains$0$domain$ 
02:000FE114 $drawtools$vpiDomains$0$domain$$type_library$  (Idle)
--- From 'Obj\messagecontrol.obj'
02:000FE140 $menu$vpiDomains$0$domain$ 
--- From 'Obj\gui.obj'
02:000FE160 $menu$vpiDomains$0$domain$$type_library$ 
--- From 'Obj\vpidomains.obj'
02:000FE164 $keyModifier$vpiDomains$0$domain$ 
02:000FE17C $keyModifier$vpiDomains$0$domain$$type_library$ 
02:000FE198 $acceleratorKey$vpiDomains$0$domain$ 
02:000FE1B4 $acceleratorKey$vpiDomains$0$domain$$type_library$ 
--- From 'Obj\messagecontrol.obj'
02:000FE214 $menuItem$vpiDomains$0$domain$ 
--- From 'Obj\vpidomains.obj'
02:000FE238 $menuItem$vpiDomains$0$domain$$type_library$ 
--- From 'Obj\messagecontrol.obj'
02:000FE460 $event$vpiDomains$0$domain$ 
--- From 'Obj\gui.obj'
02:000FE500 $event$vpiDomains$0$domain$$type_library$ 
--- From 'Obj\vpidomains.obj'
02:000FE518 $handledFlag$vpiDomains$0$domain$ 
02:000FE534 $handledFlag$vpiDomains$0$domain$$type_library$  (Idle)
02:000FE580 $controlInfo$vpiDomains$0$domain$ 
02:000FE5B4 $controlInfo$vpiDomains$0$domain$$type_library$ 
02:000FE5F0 $stateInfo$vpiDomains$0$domain$ 
02:000FE61C $stateInfo$vpiDomains$0$domain$$type_library$ 
--- From 'Obj\vpi.obj'
02:000FE6FC $windef$vpiDomains$0$domain$ 
--- From 'Obj\vpidomains.obj'
02:000FE730 $windef$vpiDomains$0$domain$$type_library$  (Idle)
--- From 'Obj\vpi.obj'
02:000FE74C $wdef$vpiDomains$0$domain$ 
--- From 'Obj\vpidomains.obj'
02:000FE764 $wdef$vpiDomains$0$domain$$type_library$ 
02:000FE77C $accelerator$vpiDomains$0$domain$ 
02:000FE794 $accelerator$vpiDomains$0$domain$$type_library$  (Idle)
02:000FE7BC $bitmapId$vpiDomains$0$domain$ 
02:000FE7DC $bitmapId$vpiDomains$0$domain$$type_library$ 
02:000FE7F0 $ddeserviceInfo$vpiDomains$0$domain$ 
02:000FE808 $ddeserviceInfo$vpiDomains$0$domain$$type_library$  (Idle)
02:000FE838 $ddedata$vpiDomains$0$domain$ 
02:000FE85C $ddedata$vpiDomains$0$domain$$type_library$ 
02:000FE930 $ddeevent$vpiDomains$0$domain$ 
02:000FE978 $ddeevent$vpiDomains$0$domain$$type_library$ 
02:000FE97C $alignment$vpiDomains$0$domain$ 
02:000FE99C $alignment$vpiDomains$0$domain$$type_library$  (Idle)
02:000FF220 class$vpiOwnerDraw 
--- From 'Obj\controls.obj'
02:000FF2A0 class$checkButton 
02:00100018 class$checkButton$vtable$ 
02:00100400 class$radioButton 
02:00101178 class$radioButton$vtable$ 
02:00101560 class$textControl 
02:001022D4 class$textControl$vtable$ 
02:00102670 class$button 
02:00103410 class$button$vtable$ 
02:001037E0 class$containerControl 
02:00106538 class$containerControl$vtable$ 
02:001072C0 class$control_exception 
02:00107350 class$editControl 
02:001080B0 class$editControl$vtable$ 
02:001084D0 class$groupBox 
02:0010989C class$groupBox$vtable$  (Idle)
02:00109DE0 class$iconControl 
02:0010BE18 class$iconControl$vtable$  (Idle)
02:0010C730 class$integerControl 
02:0010D970 class$integerControl$vtable$ 
02:0010DF30 class$listBox 
02:0010F094 class$listBox$vtable$ 
02:0010F520 class$listButton 
02:001106D0 class$listButton$vtable$ 
02:00110AD0 class$listControl 
02:001118D4 class$listControl$vtable$ 
02:00111E10 class$listEdit 
02:00113650 class$listEdit$vtable$  (Idle)
02:00113DF0 class$radioButtonGroup 
02:00113E9C class$radioButtonGroup$vtable$ 
02:00114080 class$realControl 
02:001152C0 class$realControl$vtable$ 
02:00115870 class$scrollControl 
02:00116604 class$scrollControl$vtable$ 
02:00116990 class$versionControl 
02:00117870 class$versionControl$vtable$ 
02:00117C10 class$timerControl 
02:00119198 class$timerControl$vtable$  (Idle)
--- From 'Obj\taskwindow.obj'
02:00119860 class$applicationWindow 
02:0011AAE8 class$applicationWindow$vtable$ 
02:0011B010 class$dialog 
02:0011DB90 class$dialog$vtable$ 
--- From 'Obj\messagecontrol.obj'
02:0011EB80 class$window 
02:0011F164 class$window$vtable$ 
--- From 'Obj\gui.obj'
02:0011FE80 class$childWindow 
02:00120DE4 class$childWindow$vtable$ 
02:00121110 class$documentWindow 
02:00122A58 class$documentWindow$vtable$ 
02:00123340 class$drawWindow 
02:001243F8 class$drawWindow$vtable$ 
--- From 'Obj\messagecontrol.obj'
02:00124E20 class$formWindow 
02:00127DAC class$formWindow$vtable$ 
--- From 'Obj\gui.obj'
02:001294E0 class$frameDecoration 
02:0012955C class$frameDecoration$vtable$ 
02:00129680 class$gui_exception 
02:001296F0 class$pictureCanvas 
02:0012979C class$pictureCanvas$vtable$  (Idle)
02:00129D70 class$popupWindow 
02:0012C320 class$popupWindow$vtable$  (Idle)
--- From 'Obj\guisupport.obj'
02:0012D300 class$containerWindowSupport 
02:0012D408 class$containerWindowSupport$vtable$ 
02:0012D670 class$guiSupport_exception 
02:0012D710 class$postActionQueue 
02:0012D78C class$postActionQueue$vtable$ 
--- From 'Obj\messagecontrol.obj'
02:0012D890 class$messageControl 
02:0012EEB4 class$messageControl$vtable$  (Idle)
02:0012F5D0 class$messageForm 
02:00131D64 class$messageForm$vtable$  (Idle)
--- From 'Obj\stream.obj'
02:00132870 class$stdio 
02:00132930 class$stdIOState 
02:001329C4 class$stdIOState$vtable$ 
02:00132AD0 class$stream_exception 
--- From 'Obj\binary.obj'
02:00132B50 class$binary 
02:00132BB0 class$ensureNonAtomicBinary_Private 
02:00132C40 class$binary_exception 
02:00132CC0 class$inputStream_binary 
02:00132F10 class$inputStream_binary$vtable$  (Idle)
02:00133130 class$outputStream_binary 
02:001333D8 class$outputStream_binary$vtable$  (Idle)
--- From 'Obj\list.obj'
02:00133680 class$list 
--- From 'Obj\memory.obj'
02:001336D0 class$bit 
02:001336EC $unsigned4$bit$0$domain$ 
02:00133704 $unsigned4$bit$0$domain$$type_library$  (Idle)
02:00133870 class$memory 
02:001338A4 $contextMap$memory$0$domain$ 
02:001338BC $contextMap$memory$0$domain$$type_library$  (Idle)
02:00133D50 class$weakPointer 
02:00133E38 class$weakPointer$vtable$ 
--- From 'Obj\namedvalue.obj'
02:00133F70 class$namedValue 
--- From 'Obj\std.obj'
02:00133FE0 class$std 
--- From 'Obj\toolbars.obj'
02:00134030 class$projectToolbar 
02:001340C0 class$statusLine 
--- From 'Obj\taskwindow.obj'
02:00134140 class$aboutDialog 
02:00135E48 class$aboutDialog$vtable$  (Idle)
02:001365D0 class$taskWindow 
02:00137954 class$taskWindow$vtable$  (Idle)
--- From 'Obj\core.obj'
02:00137D70 class$core 
--- From 'Obj\vpi.obj'
02:00137D8C $unsigned8$core$0$domain$ 
--- From 'Obj\core.obj'
02:00137DA4 $unsigned8$core$0$domain$$type_library$ 
--- From 'Obj\exe_api.obj'
02:00137DA8 $unsigned16$core$0$domain$ 
--- From 'Obj\core.obj'
02:00137DC0 $unsigned16$core$0$domain$$type_library$ 
02:00137DC4 $unsigned32$core$0$domain$ 
--- From 'Obj\main.obj'
02:00137DDC $unsigned32$core$0$domain$$type_library$ 
--- From 'Obj\core.obj'
02:00137DF0 $unsigned64_struct$core$0$domain$ 
02:00137E08 $unsigned64_struct$core$0$domain$$type_library$  (Idle)
02:00137E0C $integer8$core$0$domain$ 
02:00137E24 $integer8$core$0$domain$$type_library$ 
--- From 'Obj\vpi.obj'
02:00137E28 $integer16$core$0$domain$ 
--- From 'Obj\core.obj'
02:00137E40 $integer16$core$0$domain$$type_library$ 
02:00137E44 $integer32$core$0$domain$ 
02:00137E5C $integer32$core$0$domain$$type_library$ 
02:00137E70 $integer64_struct$core$0$domain$ 
02:00137E88 $integer64_struct$core$0$domain$$type_library$  (Idle)
--- From 'Obj\exe_api.obj'
02:00137E9C $namedValue$core$0$domain$ 
--- From 'Obj\exception.obj'
02:00137EB4 $namedValue$core$0$domain$$type_library$ 
--- From 'Obj\core.obj'
02:00137ED4 $codePage$core$0$domain$ 
--- From 'Obj\exe_api.obj'
02:00137EF4 $codePage$core$0$domain$$type_library$ 
--- From 'Obj\core.obj'
02:00137F48 $nativeGuid$core$0$domain$ 
02:00137F60 $nativeGuid$core$0$domain$$type_library$  (Idle)
02:00137F64 $byteCountOptional$core$0$domain$ 
02:00137F7C $byteCountOptional$core$0$domain$$type_library$  (Idle)
--- From 'Obj\exe_api.obj'
02:00137F80 $byteCount$core$0$domain$ 
--- From 'Obj\core.obj'
02:00137F98 $byteCount$core$0$domain$$type_library$ 
02:00137F9C $charCountOptional$core$0$domain$ 
02:00137FB4 $charCountOptional$core$0$domain$$type_library$  (Idle)
--- From 'Obj\exe.obj'
02:00137FB8 $charCount$core$0$domain$ 
--- From 'Obj\core.obj'
02:00137FD0 $charCount$core$0$domain$$type_library$ 
02:00137FD4 $positiveOptional$core$0$domain$ 
02:00137FEC $positiveOptional$core$0$domain$$type_library$  (Idle)
--- From 'Obj\exe_api.obj'
02:00137FF0 $positive$core$0$domain$ 
--- From 'Obj\core.obj'
02:00138008 $positive$core$0$domain$$type_library$ 
02:0013801C $tuple$core$2$domain$ 
02:00138048 $tuple$core$3$domain$ 
02:00138078 $tuple$core$4$domain$ 
02:001380AC $tuple$core$5$domain$ 
02:001380E4 $tuple$core$6$domain$ 
02:00138120 $tuple$core$7$domain$ 
02:00138160 $tuple$core$8$domain$ 
02:001381A4 $tuple$core$9$domain$ 
02:001381EC $tuple$core$10$domain$ 
02:00138238 $tuple$core$11$domain$ 
02:00138288 $tuple$core$12$domain$ 
02:001382B4 $optional$core$1$domain$ 
02:001382D0 $sortOrder$core$0$domain$ 
02:001382EC $sortOrder$core$0$domain$$type_library$  (Idle)
--- From 'Obj\exe_api.obj'
02:001383B8 $value$core$0$domain$ 
--- From 'Obj\core.obj'
02:00138410 $value$core$0$domain$$type_library$ 
--- From 'Obj\exception.obj'
02:00138880 class$common_exception 
02:00138910 class$errorDescriptorInformation 
02:00138A24 class$errorDescriptorInformation$vtable$ 
02:00138C40 class$exception 
02:00138C5C $kind$exception$0$domain$ 
02:00138C78 $kind$exception$0$domain$$type_library$ 
02:00138C8C $classInfoDescriptor$exception$0$domain$ 
02:00138CA4 $classInfoDescriptor$exception$0$domain$$type_library$ 
02:00138CBC $exceptionDescriptor$exception$0$domain$ 
02:00138CD4 $exceptionDescriptor$exception$0$domain$$type_library$ 
02:00138D18 $descriptor$exception$0$domain$ 
02:00138D30 $descriptor$exception$0$domain$$type_library$ 
02:00138D58 $traceInfo$exception$0$domain$ 
02:00138D70 $traceInfo$exception$0$domain$$type_library$ 
02:00138D94 $lineInfo$exception$0$domain$ 
02:00138DB0 $lineInfo$exception$0$domain$$type_library$ 
02:00138F50 class$exception_exception 
02:00138FE0 class$runtime_exception 
--- From 'Obj\programcontrol.obj'
02:00139070 class$programControl 
02:0013909C $packedCursor$programControl$0$domain$ 
02:001390B4 $packedCursor$programControl$0$domain$$type_library$  (Idle)
02:001390CC $cursor$programControl$0$domain$ 
02:001390E4 $cursor$programControl$0$domain$$type_library$  (Idle)
--- From 'Obj\vpi.obj'
02:001391F0 class$vpi 
02:001392C0 class$vpiCommonDialogs 
02:001394A0 class$vpiDde 
--- From 'Obj\exe.obj'
02:001394F0 class$mainExe 
--- From 'Obj\exe_api.obj'
02:00139560 class$exe_api 
02:0013957C $coInit$exe_api$0$domain$ 
02:001395A0 $coInit$exe_api$0$domain$$type_library$  (Idle)
02:00139690 class$exe_native 
02:001396F0 $shellExecuteInfo$exe_native$0$domain$ 
02:00139708 $shellExecuteInfo$exe_native$0$domain$$type_library$  (Idle)
--- From 'Obj\main.obj'
02:001397B0 class$main 
02:001397F0 class$_global 
02:00139860 class$_builtIn 
02:0013987C $integer$_builtIn$0$domain$ 
02:00139894 $integer$_builtIn$0$domain$$type_library$ 
02:00139898 $unsigned$_builtIn$0$domain$ 
02:001398B0 $unsigned$_builtIn$0$domain$$type_library$ 
02:001398B4 $real$_builtIn$0$domain$ 
02:001398D8 $real$_builtIn$0$domain$$type_library$ 
02:001398DC $real32$_builtIn$0$domain$ 
02:00139900 $real32$_builtIn$0$domain$$type_library$  (Idle)
02:00139904 $$byte$_builtIn$0$domain$ 
02:0013991C $$byte$_builtIn$0$domain$$type_library$  (Idle)
02:00139920 $string$_builtIn$0$domain$ 
02:0013992C $string$_builtIn$0$domain$$type_library$ 
02:00139930 $symbol$_builtIn$0$domain$ 
02:0013993C $symbol$_builtIn$0$domain$$type_library$  (Idle)
02:00139940 $string8$_builtIn$0$domain$ 
02:0013994C $string8$_builtIn$0$domain$$type_library$ 
02:00139950 $char$_builtIn$0$domain$ 
02:0013995C $char$_builtIn$0$domain$$type_library$ 
02:00139960 $binary$_builtIn$0$domain$ 
02:00139970 $binary$_builtIn$0$domain$$type_library$ 
02:00139974 $binarynonatomic$_builtIn$0$domain$ 
02:00139984 $binarynonatomic$_builtIn$0$domain$$type_library$ 
02:00139988 $pointer$_builtIn$0$domain$ 
02:00139994 $pointer$_builtIn$0$domain$$type_library$ 
02:00139998 $handle$_builtIn$0$domain$ 
02:001399A4 $handle$_builtIn$0$domain$$type_library$ 
02:001399A8 $prolog$arrowtype$$_builtIn$0$domain$ 
02:001399B4 $prolog$arrowtype$$_builtIn$0$domain$$type_library$ 
02:001399B8 $arrowtype$$_builtIn$0$domain$ 
02:001399C4 $arrowtype$$_builtIn$0$domain$$type_library$ 
02:001399C8 $factdb$_builtIn$0$domain$ 
02:001399D4 $factdb$_builtIn$0$domain$$type_library$  (Idle)
02:001399D8 $...$_builtIn$0$domain$ 
02:001399E4 $...$_builtIn$0$domain$$type_library$  (Idle)
02:001399E8 $integer64$_builtIn$0$domain$ 
02:00139A08 $integer64$_builtIn$0$domain$$type_library$ 
02:00139A0C $unsigned64$_builtIn$0$domain$ 
02:00139A2C $unsigned64$_builtIn$0$domain$$type_library$ 
02:00139A48 $*$_builtIn$1$domain$ 
02:00139A6C $domEmptyTypeLib$_builtIn$0$domain$ 
02:00139A84 $domEmptyTypeLib$_builtIn$0$domain$$type_library$  (Idle)
02:00139A88 $boolean$_builtIn$0$domain$ 
02:00139AA4 $boolean$_builtIn$0$domain$$type_library$ 
02:00139AA8 $compareResult$_builtIn$0$domain$ 
02:00139AC8 $compareResult$_builtIn$0$domain$$type_library$  (Idle)
0C0000:079D30 01DE4C   .rdata::.rdata::.rdata F=4
--- From '.\ReleasePE\VIPDll.obj'
02:00157A98 _VIPStartOfDictionary 
--- From '.\ReleasePE\VIPPE.obj'
02:00157AD0 ??_C@_0JO@IKLJBBEK@This?5application?5is?5created?5with@ 
02:00157B70 ??_C@_0L@DLNDOIBH@Attention?$CB?$AA@ 
Frame 158000   Size 001290.  Name=<  VIPini>, 	Chars=40000040h. [IR]
158000:000000 000004   VIPini$A::VIPini$A::VIPini F=4
--- From 'Obj\main.obj'
03:00158000 _VIPStartOfClassDescriptors 
158000:000004 0003AC   VIPini$C::VIPini$C::VIPini F=4
158000:0003B0 000008   VIPini$E::VIPini$E::VIPini F=4
Frame 15A000   Size 000010.  Name=<  VIPsym>, 	Chars=40000040h. [IR]
15A000:000000 000004   VIPsym$A::VIPsym$A::VIPsym F=4
--- From 'Obj\main.obj'
04:0015A000 _VIPStartOfSymbols 
15A000:000004 000000   VIPsym$C::VIPsym$C::VIPsym F=4
15A000:000004 000008   VIPsym$E::VIPsym$E::VIPsym F=4
Frame 15B000   Size 001B30.  Name=<  VIPtpl>, 	Chars=40000040h. [IR]
15B000:000000 000004   VIPtpl$A::VIPtpl$A::VIPtpl F=4
--- From 'Obj\main.obj'
05:0015B000 _VIPStartOfTypeLibraries 
15B000:000004 001B20   VIPtpl$C::VIPtpl$C::VIPtpl F=4
15B000:001B24 000008   VIPtpl$E::VIPtpl$E::VIPtpl F=4
Frame 15D000   Size 0002A0.  Name=<   .data>, 	Chars=C0000040h. [IRW]
15D000:000000 000288   .data::DATA::DGROUP F=4
15D000:000288 00000C   .bss::BSS::DGROUP F=4
Frame 15E000   Size 000380.  Name=<  PRODBG>, 	Chars=40000040h. [IR]
15E000:000000 000380   PRODBG::PRODBG::PRODBG F=4
Frame 15F000   Size 000180.  Name=< .gcroot>, 	Chars=C0000040h. [IRW]
15F000:000000 00017C   .gcroot::.gcroot::.gcroot F=4
--- Total Cnt   =  5296 --------
[import] 'Obj\memory.obj' VIP7Run.dll. ?bitLeft@RunTime@VIP@@YAIII@Z 
[import] 'Obj\gui.obj' vip7vpi.dll. ?font_GetAttrs@VIP_VPI@@YAPAGPADPAPAUfontstyle_struct@1@PAH@Z 
[import] 'Obj\vpi.obj' vip7vpi.dll. ?win_SetFocus@VIP_VPI@@YAXJ@Z 
[import] 'Obj\gui.obj' USER32.dll. _SetWindowLongW@12 
[import] 'Obj\gui.obj' vip7vpi.dll. ?draw_Line@VIP_VPI@@YAXJPAUpnt_struct@1@0@Z 
[import] 'Obj\exception.obj' VIP7Kernel.dll. ?MEM_alloc_nil@Kernel@VIP@@YGPBEXZ 
[import] 'Obj\gui.obj' vip7vpi.dll. ?win_SetDrawTools@VIP_VPI@@YAXJPAUdrawtools_struct@1@@Z 
[import] 'Obj\gui.obj' USER32.dll. _GetParent@4 
[import] 'Obj\gui.obj' vip7vpi.dll. ?win_Clear_0@VIP_VPI@@YAXJJ@Z 
[import] 'Obj\vpi.obj' vip7vpi.dll. ?win_Move@VIP_VPI@@YAXJPAUrect_struct@1@@Z 
[import] 'Obj\gui.obj' vip7vpi.dll. ?pict_Close@VIP_VPI@@YAJJ@Z 
[import] 'Obj\guisupport.obj' VIP7Run.dll. ?Comparison@RunTime@VIP@@YG?AW4compareResult@_builtIn_class@@PBVRObject@12@0@Z 
[import] 'Obj\vpitoolbar.obj' GDI32.dll. _ExtFloodFill@20 
[import] 'Obj\tabcontrol.obj' USER32.dll. _UnregisterHotKey@8 
[import] 'Obj\gui.obj' vip7vpi.dll. ?win_GetNativeGraphicContext@VIP_VPI@@YAJJPAH@Z 
[import] 'Obj\controls.obj' USER32.dll. _CreateWindowExW@48 
[import] 'Obj\gui.obj' vip7vpi.dll. ?pict_Open@VIP_VPI@@YAJPAUrect_struct@1@@Z 
[import] 'Obj\vpi.obj' VIP7Kernel.dll. ?AllocHeapWCTS@Kernel@VIP@@YGQAEIIII@Z 
[import] 'Obj\vpi.obj' vip7vpi.dll. ?pict_DrawEx_0@VIP_VPI@@YAXJJPAUpnt_struct@1@HH@Z 
[import] 'Obj\memory.obj' VIP7Run.dll. ?bitAnd@RunTime@VIP@@YAIII@Z 
[import] 'Obj\gui.obj' vip7vpi.dll. ?draw_Polyline@VIP_VPI@@YAXJPAUpntlist_struct@1@@Z 
[import] 'Obj\memory.obj' VIP7Run.dll. ?bitOr@RunTime@VIP@@YAIII@Z 
[import] 'Obj\gui.obj' vip7vpi.dll. ?win_Invalidate_1@VIP_VPI@@YAXJPAUrect_struct@1@@Z 
[import] 'Obj\vpi.obj' VIP7Run.dll. ?Error_DetermFactIsAlreadyAsserted@RunTime@VIP@@YAXQBVrTypeLibrary@12@I@Z 
[import] 'Obj\vpi.obj' vip7vpi.dll. ?win_SetState@VIP_VPI@@YAXJPAUwsflags_struct@1@@Z 
[import] 'Obj\vpi.obj' vip7vpi.dll. ?vpi_GetAttrVal@VIP_VPI@@YAJJ@Z 
[import] 'Obj\controls.obj' vip7vpi.dll. ?lbox_Resume@VIP_VPI@@YAXJ@Z 
[import] 'Obj\vpi.obj' vip7vpi.dll. ?cb_PutString@VIP_VPI@@YAXPBG@Z 
[import] 'Obj\controls.obj' vip7vpi.dll. ?lbox_Add_1@VIP_VPI@@YAXJHPAUslist_struct@1@@Z 
[import] 'Obj\memory.obj' VIP7Kernel.dll. ?GetTrapTop@Kernel@VIP@@YGQAVTBackTrackBlock@12@XZ 
[import] 'Obj\controls.obj' vip7vpi.dll. ?lbox_Suspend@VIP_VPI@@YAXJ@Z 
[import] 'Obj\multithread.obj' KERNEL32.dll. _SetCriticalSectionSpinCount@8 
[import] 'Obj\filesystem.obj' VIP7Run.dll. ?RetractFactDataBase@RunTime@VIP@@YGXQBVfactDbValue@12@@Z 
[import] 'Obj\multithread.obj' KERNEL32.dll. _TryEnterCriticalSection@4 
[import] 'Obj\math.obj' VIP7Run.dll. ?string2Term@RunTime@VIP@@YGPBXQBVrTypeLibrary@12@PBG@Z 
[import] 'Obj\multithread.obj' KERNEL32.dll. _InitializeCriticalSectionAndSpinCount@8 
[import] 'Obj\binary.obj' VIP7Kernel.dll. ?Stkb3@Kernel@VIP@@YAXXZ 
[import] 'Obj\filesystem.obj' KERNEL32.dll. _CreateFileW@28 
[import] 'Obj\binary.obj' VIP7Run.dll. ?FinishRetract@RunTime@VIP@@YGXPAVrFactItem@12@PAPAV312@@Z 
[import] 'Obj\filesystem.obj' KERNEL32.dll. _CloseHandle@4 
[import] 'Obj\gui.obj' VIP7Run.dll. ?AssertANonDetermFact_WithContext@RunTime@VIP@@YGXTRTerm@12@PAVrFactList@12@II@Z 
[import] 'Obj\multithread.obj' KERNEL32.dll. _GetThreadTimes@20 
[import] 'Obj\binary.obj' VIP7Run.dll. ?AssertZNonDetermFact_WithContext@RunTime@VIP@@YGXTRTerm@12@PAVrFactList@12@II@Z 
[import] 'Obj\memory.obj' VIP7Kernel.dll. ?RegisterWeakPointer@Kernel@VIP@@YGXPAPAXPAX@Z 
[import] 'Obj\vpitoolbar.obj' vip7vpi.dll. ?win_CreateControl@VIP_VPI@@YAJHPAUrect_struct@1@PBGJPAUwsflags_struct@1@H@Z 
[import] 'Obj\multithread.obj' KERNEL32.dll. _ResumeThread@4 
[import] 'Obj\memory.obj' VIP7Run.dll. ?CompareTermsProlog@RunTime@VIP@@YAHXZ 
[import] 'Obj\memory.obj' VIP7Kernel.dll. ?UnRegisterWeakPointer@Kernel@VIP@@YGXPAPAX@Z 
[import] 'Obj\gui.obj' vip7vpi.dll. ?win_PostEvent@VIP_VPI@@YAXJPAUevent_struct@1@@Z 
[import] 'Obj\multithread.obj' KERNEL32.dll. _GetThreadPriority@4 
[import] 'Obj\vpi.obj' VIP7Run.dll. ?ConvertIR@RunTime@VIP@@YGNPBV?$rNumericTypeDescriptor@H@12@PBV?$rNumericTypeDescriptor@N@12@H@Z 
[import] 'Obj\memory.obj' KERNEL32.dll. _IsBadReadPtr@8 
[import] 'Obj\vpi.obj' VIP7Run.dll. ?toString@RunTime@VIP@@YGPBGQBVrTypeLibrary@12@PBX@Z 
[import] 'Obj\memory.obj' VIP7Kernel.dll. ?memProf_ContextOpen@Kernel@VIP@@YGIII@Z 
[import] 'Obj\gui.obj' vip7vpi.dll. ?vpi_SetAttrVal@VIP_VPI@@YAXJJ@Z 
[import] 'Obj\memory.obj' VIP7Kernel.dll. ?memProf_ContextClose@Kernel@VIP@@YGXI@Z 
[import] 'Obj\vpi.obj' vip7vpi.dll. ?win_GetType@VIP_VPI@@YAHJ@Z 
[import] 'Obj\memory.obj' VIP7Run.dll. ?bitRight@RunTime@VIP@@YAIII@Z 
[import] 'Obj\gui.obj' vip7vpi.dll. ?win_SetBackMode@VIP_VPI@@YAXJH@Z 
[import] 'Obj\multithread_api.obj' KERNEL32.dll. _CancelWaitableTimer@4 
[import] 'Obj\gui.obj' vip7vpi.dll. ?timer_Kill@VIP_VPI@@YAXJ@Z 
[import] 'Obj\multithread_api.obj' KERNEL32.dll. _OpenWaitableTimerW@12 
[import] 'Obj\gui.obj' vip7vpi.dll. ?timer_Set@VIP_VPI@@YAJJI@Z 
[import] 'Obj\multithread_api.obj' KERNEL32.dll. _ReleaseSemaphore@12 
[import] 'Obj\gui.obj' vip7vpi.dll. ?win_GetFocus@VIP_VPI@@YAJXZ 
[import] 'Obj\multithread_api.obj' KERNEL32.dll. _CreateSemaphoreW@16 
[import] 'Obj\vpitoolbar.obj' VIP7Run.dll. ?abs_ii@RunTime@VIP@@YAHH@Z 
[import] 'Obj\multithread_api.obj' KERNEL32.dll. _OpenMutexW@12 
[import] 'Obj\vpitoolbar.obj' vip7vpi.dll. ?rect_PntInside@VIP_VPI@@YAXPAUrect_struct@1@PAUpnt_struct@1@@Z 
[import] 'Obj\multithread_api.obj' KERNEL32.dll. _PulseEvent@4 
[import] 'Obj\registry_api.obj' ADVAPI32.dll. _RegOpenKeyExW@20 
[import] 'Obj\multithread_api.obj' KERNEL32.dll. _SetEvent@4 
[import] 'Obj\registry_api.obj' ADVAPI32.dll. _RegCloseKey@4 
[import] 'Obj\multithread_api.obj' KERNEL32.dll. _CreateEventW@16 
[import] 'Obj\exe_api.obj' VIP7Kernel.dll. ?AllocAtomicHeapWithContext@Kernel@VIP@@YGQAEIII@Z 
[import] 'Obj\outputstreamsupport.obj' VIP7Run.dll. ?writeBytes2Stream@RunTime@VIP@@YGXQAVROutputStreamImpl@12@QBEI@Z 
[import] 'Obj\registry_api.obj' ADVAPI32.dll. _RegCreateKeyExW@36 
[import] 'Obj\outputstreamsupport.obj' VIP7Run.dll. ?saveDatabase@RunTime@VIP@@YGXQBVfactDbValue@12@QAVROutputStreamImpl@12@@Z 
[import] 'Obj\registry_api.obj' ADVAPI32.dll. _RegDeleteKeyW@8 
[import] 'Obj\outputstreamsupport.obj' VIP7Run.dll. ?write2Stream@RunTime@VIP@@YGXQAVROutputStreamImpl@12@IIQBVrEllipsisArguments@12@@Z 
[import] 'Obj\gui.obj' VIP7Kernel.dll. ?Succeed_Prolog@Kernel@VIP@@YAXXZ 
[import] 'Obj\vpi.obj' vip7vpi.dll. ?win_GetParent@VIP_VPI@@YAJJ@Z 
[import] 'Obj\exe.obj' VIP7Kernel.dll. ?Cut_Prolog@Kernel@VIP@@YAXXZ 
[import] 'Obj\vpi.obj' vip7vpi.dll. ?win_Destroy@VIP_VPI@@YAXJ@Z 
[import] 'Obj\registry_api.obj' ADVAPI32.dll. _RegEnumKeyExW@32 
[import] 'Obj\controls.obj' vip7vpi.dll. ?lbox_GetSelIndex@VIP_VPI@@YAHJ@Z 
[import] 'Obj\registry_api.obj' ADVAPI32.dll. _RegSetValueExW@24 
[import] 'Obj\vpi.obj' vip7vpi.dll. ?dlg_ChooseColor@VIP_VPI@@YAJJJ@Z 
[import] 'Obj\registry_api.obj' ADVAPI32.dll. _RegQueryValueExW@24 
[import] 'Obj\vpi.obj' vip7vpi.dll. ?win_GetCtlHandle@VIP_VPI@@YAJJH@Z 
[import] 'Obj\registry_api.obj' ADVAPI32.dll. _RegDeleteValueW@8 
[import] 'Obj\gui.obj' vip7vpi.dll. ?draw_Rect@VIP_VPI@@YAXJPAUrect_struct@1@@Z 
[import] 'Obj\registry_api.obj' ADVAPI32.dll. _RegEnumValueW@32 
[import] 'Obj\gui.obj' vip7vpi.dll. ?win_SetBrush@VIP_VPI@@YAXJPAUbrush_struct@1@@Z 
[import] 'Obj\gui.obj' vip7vpi.dll. ?win_Create@VIP_VPI@@YAJHPAUrect_struct@1@PBGPAUmenu_struct@1@JPAUwsflags_struct@1@PAUPROLOG_EHANDLER_STRUCT@1@J@Z 
[import] 'Obj\vpitoolbar.obj' vip7vpi.dll. ?font_Create@VIP_VPI@@YAPADHPAUfontstyle_struct@1@H@Z 
[import] 'Obj\vpi.obj' VIP7Run.dll. ?ConvertUI@RunTime@VIP@@YGHPBV?$rNumericTypeDescriptor@I@12@PBV?$rNumericTypeDescriptor@H@12@I@Z 
[import] 'Obj\gui.obj' vip7vpi.dll. ?win_SetForeColor@VIP_VPI@@YAXJJ@Z 
[import] 'Obj\controls.obj' USER32.dll. _SetWindowPos@28 
[import] 'Obj\gui.obj' vip7vpi.dll. ?win_SetBackColor@VIP_VPI@@YAXJJ@Z 
[import] 'Obj\memory.obj' VIP7Run.dll. ?ConvertIU@RunTime@VIP@@YGIPBV?$rNumericTypeDescriptor@H@12@PBV?$rNumericTypeDescriptor@I@12@H@Z 
[import] 'Obj\gui.obj' vip7vpi.dll. ?win_Clear_1@VIP_VPI@@YAXJPAUrect_struct@1@J@Z 
[import] 'Obj\binary.obj' KERNEL32.dll. _lstrlenA@4 
[import] 'Obj\gui.obj' vip7vpi.dll. ?win_Invalidate_0@VIP_VPI@@YAXJ@Z 
[import] 'Obj\vpi.obj' vip7vpi.dll. ?win_MapPoints@VIP_VPI@@YAPAUpntlist_struct@1@JJPAU21@@Z 
[import] 'Obj\vpieditor.obj' vip7edit.dll. ?edit_IndentSize_0@VIP_EDIT@@YAXH@Z 
[import] 'Obj\exe_api.obj' VIP7Run.dll. ?ConvertUU@RunTime@VIP@@YGIPBV?$rNumericTypeDescriptor@I@12@0I@Z 
[import] 'Obj\vpieditor.obj' vip7edit.dll. ?edit_GetSearchOptions@VIP_EDIT@@YAXPAH00@Z 
[import] 'Obj\gui.obj' vip7vpi.dll. ?win_GetFontMetrics@VIP_VPI@@YAXJPAH00@Z 
[import] 'Obj\vpieditor.obj' vip7edit.dll. ?edit_GetTabSize@VIP_EDIT@@YAHXZ 
[import] 'Obj\gui.obj' vip7vpi.dll. ?cursor_GetPos@VIP_VPI@@YAPAUpnt_struct@1@J@Z 
[import] 'Obj\vpieditor.obj' vip7edit.dll. ?edit_SetColorSettings@VIP_EDIT@@YAXKHPAUcolor_settings_struct@1@@Z 
[import] 'Obj\gui.obj' vip7vpi.dll. ?win_ReleaseMouse@VIP_VPI@@YAXXZ 
[import] 'Obj\inputstreamsupport.obj' VIP7Run.dll. ?ParseBytes@RunTime@VIP@@YGPBVTBinary@@QAVRInputStreamImpl@12@I@Z 
[import] 'Obj\guisupport.obj' VIP7Run.dll. ?TryConvertObject@RunTime@VIP@@YGQBVRObject@12@QBVRInterfaceDescriptor@12@QBV312@@Z 
[import] 'Obj\inputstreamsupport.obj' VIP7Run.dll. ?ParseFromStream@RunTime@VIP@@YGPBXQBVrTypeLibrary@12@QAVRInputStreamImpl@12@I@Z 
[import] 'Obj\gui.obj' vip7vpi.dll. ?win_CaptureMouse@VIP_VPI@@YAXJ@Z 
[import] 'Obj\inputstreamsupport.obj' VIP7Run.dll. ?ungetChar@RunTime@VIP@@YGXQAVRInputStreamImpl@12@@Z 
[import] 'Obj\vpitoolbar.obj' vip7vpi.dll. ?pict_GetSize@VIP_VPI@@YAXJPAH0PAJ@Z 
[import] 'Obj\vpi.obj' VIP7Kernel.dll. ?OSCopyMemory@Kernel@VIP@@YAXPAXPBXI@Z 
[import] 'Obj\gui.obj' vip7vpi.dll. ?rect_Intersect@VIP_VPI@@YAPAUrect_struct@1@PAU21@0@Z 
[import] 'Obj\string8.obj' KERNEL32.dll. _IsValidCodePage@4 
[import] 'Obj\controls.obj' GDI32.dll. _SetTextColor@8 
[import] 'Obj\binary.obj' VIP7Run.dll. ?InitInputParser@RunTime@VIP@@YGPAVRInputStreamImpl@12@QAVRROBufferProvider@12@QAEI@Z 
[import] 'Obj\controls.obj' USER32.dll. _GetSysColorBrush@4 
[import] 'Obj\filesystem.obj' VIP7Run.dll. ?UniversalNumericConvert4_prolog@RunTime@VIP@@YGXPBVrNumericTypeDescriptor_common@12@0HPAX@Z 
[import] 'Obj\gui.obj' USER32.dll. _SetFocus@4 
[import] 'Obj\string.obj' VIP7Run.dll. ?trimLast@RunTime@VIP@@YAPBGPBG@Z 
[import] 'Obj\controls.obj' vip7vpi.dll. ?win_SetEditCtlReadOnly@VIP_VPI@@YAXJH@Z 
[import] 'Obj\string.obj' VIP7Run.dll. ?isAlpha@RunTime@VIP@@YG_NPBG@Z 
[import] 'Obj\controls.obj' USER32.dll. _DrawTextW@20 
[import] 'Obj\string.obj' USER32.dll. _CharUpperW@4 
[import] 'Obj\regexp.obj' VIP7regExp2.dll. ?VIP_re_getLastError@regExp@@YAPAGH@Z 
[import] 'Obj\filesystem_api.obj' VIP7Run.dll. ?search@RunTime@VIP@@YG_NPBG0QAI@Z 
[import] 'Obj\regexp.obj' VIP7regExp2.dll. ?VIP_re_compile_pattern_case@regExp@@YAHPBGPAPAUVIP_buffer_info@1@H@Z 
[import] 'Obj\string.obj' VIP7Run.dll. ?replace@RunTime@VIP@@YGPBGPBG00H_N@Z 
[import] 'Obj\regexp.obj' VIP7regExp2.dll. ?VIP_re_search_range_noCompile@regExp@@YAHPAUVIP_buffer_info@1@PBGPAH2HH@Z 
[import] 'Obj\string.obj' VIP7Run.dll. ?frontToken@RunTime@VIP@@YG_NPBGAAPAG1@Z 
[import] 'Obj\regexp.obj' VIP7regExp2.dll. ?VIP_re_match_nocompilePos@regExp@@YAHPAUVIP_buffer_info@1@PBGHHPAPAUVIP_string_list@1@@Z 
[import] 'Obj\exception.obj' VIP7Run.dll. ?format2String@RunTime@VIP@@YGQBGQBGQBVrEllipsisArguments@12@@Z 
[import] 'Obj\regexp.obj' VIP7regExp2.dll. ?VIP_re_replace_compile@regExp@@YAHPBG0PAUVIP_buffer_info@1@PAPAG@Z 
[import] 'Obj\string.obj' KERNEL32.dll. _GetUserDefaultLCID@0 
[import] 'Obj\regexp.obj' VIP7regExp2.dll. ?VIP_re_search_range_compile@regExp@@YAHPBG0PAH1HHH@Z 
[import] 'Obj\binary.obj' VIP7Kernel.dll. ?OSZeroMemory@Kernel@VIP@@YAXPAXI@Z 
[import] 'Obj\exe.obj' KERNEL32.dll. _lstrlenW@4 
[import] 'Obj\filesystem.obj' VIP7Run.dll. ?Comparison_U64@RunTime@VIP@@YG?AW4compareResult@_builtIn_class@@_K0@Z 
[import] 'Obj\controls.obj' GDI32.dll. _CreateFontIndirectW@4 
[import] 'Obj\binary.obj' VIP7Run.dll. ?setMemory16@RunTime@VIP@@YGXPAGG@Z 
[import] 'Obj\controls.obj' GDI32.dll. _LineTo@12 
[import] 'Obj\exceptiondump.obj' KERNEL32.dll. _GetTempPathW@8 
[import] 'Obj\controls.obj' GDI32.dll. _MoveToEx@16 
[import] 'Obj\filesystem_api.obj' KERNEL32.dll. _SetCurrentDirectoryW@4 
[import] 'Obj\controls.obj' GDI32.dll. _DeleteObject@4 
[import] 'Obj\filesystem_api.obj' KERNEL32.dll. _GetDiskFreeSpaceExW@16 
[import] 'Obj\string8_api.obj' KERNEL32.dll. _MultiByteToWideChar@24 
[import] 'Obj\filesystem.obj' KERNEL32.dll. _MoveFileW@8 
[import] 'Obj\exe_api.obj' KERNEL32.dll. _GetLastError@0 
[import] 'Obj\filesystem_api.obj' KERNEL32.dll. _RemoveDirectoryW@4 
[import] 'Obj\controls.obj' GDI32.dll. _Rectangle@20 
[import] 'Obj\binary.obj' VIP7Run.dll. ?searchForChar@RunTime@VIP@@YGIPBGGI@Z 
[import] 'Obj\exe_api.obj' VIP7Run.dll. ?ErrorRangeSigned@RunTime@VIP@@YGXQBV?$rNumericTypeDescriptor@H@12@H@Z 
[import] 'Obj\filesystem_api.obj' KERNEL32.dll. _SetFilePointer@16 
[import] 'Obj\string8_api.obj' KERNEL32.dll. _WideCharToMultiByte@32 
[import] 'Obj\binary.obj' VIP7Run.dll. ?binarySearch@RunTime@VIP@@YAIPBEI0I@Z 
[import] 'Obj\controls.obj' GDI32.dll. _SelectObject@8 
[import] 'Obj\filesystem_api.obj' KERNEL32.dll. _GetFileSizeEx@8 
[import] 'Obj\controls.obj' GDI32.dll. _SetBkMode@8 
[import] 'Obj\runtime_api.obj' KERNEL32.dll. _GetCurrentProcess@0 
[import] 'Obj\controls.obj' GDI32.dll. _SetBkColor@8 
[import] 'Obj\exe.obj' KERNEL32.dll. _GetModuleHandleW@4 
[import] 'Obj\controls.obj' GDI32.dll. _CreatePen@12 
[import] 'Obj\time_api.obj' KERNEL32.dll. _GetLocaleInfoW@16 
[import] 'Obj\controls.obj' GDI32.dll. _CreateBrushIndirect@4 
[import] 'Obj\time_api.obj' KERNEL32.dll. _GetDateFormatW@24 
[import] 'Obj\vpi.obj' KERNEL32.dll. _ExitProcess@4 
[import] 'Obj\time_api.obj' KERNEL32.dll. _GetTimeZoneInformation@4 
[import] 'Obj\vpi.obj' USER32.dll. _ReleaseDC@8 
[import] 'Obj\time_api.obj' KERNEL32.dll. _SystemTimeToFileTime@8 
[import] 'Obj\controls.obj' USER32.dll. _GetWindowDC@4 
[import] 'Obj\time_api.obj' KERNEL32.dll. _GetSystemTimeAsFileTime@4 
[import] 'Obj\vpi.obj' GDI32.dll. _GetDeviceCaps@8 
[import] 'Obj\math.obj' VIP7Run.dll. ?trunc@RunTime@VIP@@YANN@Z 
[import] 'Obj\vpi.obj' USER32.dll. _GetDC@4 
[import] 'Obj\math.obj' VIP7Run.dll. ?round@RunTime@VIP@@YANN@Z 
[import] 'Obj\controls.obj' USER32.dll. _GetDCEx@12 
[import] 'Obj\exception.obj' VIP7Run.dll. ?tryString2Term@RunTime@VIP@@YGPBXQBVrTypeLibrary@12@PBG@Z 
[import] 'Obj\vpi.obj' vip7vpi.dll. ?vpi_ProcessEvents@VIP_VPI@@YAHHH@Z 
[import] 'Obj\math.obj' VIP7Run.dll. ?arctan@RunTime@VIP@@YANN@Z 
[import] 'Obj\gui.obj' vip7vpi.dll. ?win_GetOuterRect@VIP_VPI@@YAPAUrect_struct@1@J@Z 
[import] 'Obj\math.obj' VIP7Run.dll. ?ConvertRR@RunTime@VIP@@YGNPBV?$rNumericTypeDescriptor@N@12@0N@Z 
[import] 'Obj\controls.obj' USER32.dll. _GetClientRect@8 
[import] 'Obj\vpi.obj' USER32.dll. _SetWindowPlacement@8 
[import] 'Obj\controls.obj' USER32.dll. _LoadIconW@8 
[import] 'Obj\vpi.obj' VIP7Run.dll. ?setMemory32@RunTime@VIP@@YGXPAKK@Z 
[import] 'Obj\vpi.obj' vip7vpi.dll. ?mf_Load@VIP_VPI@@YAIPBGPAPAUrect_struct@1@PAI@Z 
[import] 'Obj\gui_api.obj' USER32.dll. _GetScrollRange@16 
[import] 'Obj\vpi.obj' vip7vpi.dll. ?caret_Set@VIP_VPI@@YAXJHHHH@Z 
[import] 'Obj\filesystem.obj' SHELL32.dll. _SHGetPathFromIDListW@8 
[import] 'Obj\vpi.obj' vip7vpi.dll. ?pict_DrawEx_1@VIP_VPI@@YAXJJPAUrect_struct@1@0HH@Z 
[import] 'Obj\filesystem.obj' KERNEL32.dll. _GetWindowsDirectoryA@8 
[import] 'Obj\vpi.obj' vip7vpi.dll. ?pict_Load@VIP_VPI@@YAJPBGHHI@Z 
[import] 'Obj\filesystem.obj' KERNEL32.dll. _GetSystemDirectoryA@8 
[import] 'Obj\vpi.obj' vip7vpi.dll. ?pict_GetFromRes@VIP_VPI@@YAJPAUHINSTANCE__@WindowsAPI@@IHHI@Z 
[import] 'Obj\filesystem.obj' SHFOLDER.dll. _SHGetFolderPathW@20 
[import] 'Obj\controls.obj' USER32.dll. _DestroyIcon@4 
[import] 'Obj\filesystem.obj' KERNEL32.dll. _SearchPathW@24 
[import] 'Obj\vpi.obj' vip7vpi.dll. ?pict_GetFromRes@VIP_VPI@@YAJPAUHINSTANCE__@WindowsAPI@@I@Z 
[import] 'Obj\filesystem.obj' ADVAPI32.dll. _IsTextUnicode@12 
[import] 'Obj\controls.obj' vip7vpi.dll. ?lbox_SetTabStops@VIP_VPI@@YAXJPAUilist_struct@1@@Z 
[import] 'Obj\filesystem.obj' KERNEL32.dll. _GetFullPathNameW@16 
[import] 'Obj\vpi.obj' vip7vpi.dll. ?menu_GetRes@VIP_VPI@@YAPAUmenu_struct@1@PAUHINSTANCE__@WindowsAPI@@I@Z 
[import] 'Obj\filesystem.obj' KERNEL32.dll. _SetFileTime@16 
[import] 'Obj\controls.obj' vip7vpi.dll. ?lbox_SetColumnWidth@VIP_VPI@@YAXJH@Z 
[import] 'Obj\messagecontrol.obj' vip7edit.dll. ?edit_CreateSubClass@VIP_EDIT@@YAXJPBGPADHHH0KPAUPROLOG_EHANDLER_STRUCT@VIP_VPI@@@Z 
[import] 'Obj\vpi.obj' vip7vpi.dll. ?vpi_CheckExistString@VIP_VPI@@YAHPAUHINSTANCE__@WindowsAPI@@I@Z 
[import] 'Obj\filesystem.obj' KERNEL32.dll. _GetFileAttributesExW@12 
[import] 'Obj\controls.obj' vip7vpi.dll. ?lbox_SetTopIndex@VIP_VPI@@YAXJH@Z 
[import] 'Obj\messagecontrol.obj' vip7edit.dll. ?edit_GotoPos@VIP_EDIT@@YAHJK@Z 
[import] 'Obj\vpi.obj' vip7vpi.dll. ?vpi_CheckExistDialog@VIP_VPI@@YAHPAUHINSTANCE__@WindowsAPI@@I@Z 
[import] 'Obj\messagecontrol.obj' vip7edit.dll. ?edit_SetReadOnly_0@VIP_EDIT@@YAXJH@Z 
[import] 'Obj\controls.obj' vip7vpi.dll. ?lbox_IsSel@VIP_VPI@@YAXJH@Z 
[import] 'Obj\filesystem.obj' KERNEL32.dll. _GetTempFileNameW@16 
[import] 'Obj\vpi.obj' vip7vpi.dll. ?win_GetResDialog@VIP_VPI@@YAPAUwindef_list_struct@1@PAUHINSTANCE__@WindowsAPI@@I@Z 
[import] 'Obj\messagecontrol.obj' vip7edit.dll. ?edit_GetSelection@VIP_EDIT@@YAXJPAK0@Z 
[import] 'Obj\vpi.obj' vip7vpi.dll. ?lbox_GetSel@VIP_VPI@@YAXJPAPAUslist_struct@1@PAPAUilist_struct@1@@Z 
[import] 'Obj\vpi.obj' vip7vpi.dll. ?menuPopUp@VIP_VPI@@YAHJPAUmenu_struct@1@PAUpnt_struct@1@H@Z 
[import] 'Obj\vpi.obj' vip7vpi.dll. ?vpi_GetResStr@VIP_VPI@@YAPAGPAUHINSTANCE__@WindowsAPI@@I@Z 
[import] 'Obj\messagecontrol.obj' vip7edit.dll. ?edit_SearchDlg@VIP_EDIT@@YAXJ@Z 
[import] 'Obj\controls.obj' vip7vpi.dll. ?lbox_GetItem@VIP_VPI@@YAPAGJH@Z 
[import] 'Obj\messagecontrol.obj' vip7edit.dll. ?edit_SetFontDlg@VIP_EDIT@@YAXJ@Z 
[import] 'Obj\vpi.obj' vip7vpi.dll. ?win_CreateResDialog@VIP_VPI@@YAJPAUHINSTANCE__@WindowsAPI@@JHIPAUPROLOG_EHANDLER_STRUCT@1@J@Z 
[import] 'Obj\filesystem.obj' KERNEL32.dll. _GetFileAttributesW@4 
[import] 'Obj\vpi.obj' vip7vpi.dll. ?vpi_Init@VIP_VPI@@YAXPAUwsflags_struct@1@PAUPROLOG_EHANDLER_STRUCT@1@PAUmenu_struct@1@PBG3@Z 
[import] 'Obj\filesystem.obj' KERNEL32.dll. _DeleteFileW@4 
[import] 'Obj\vpi.obj' vip7vpi.dll. ?vpi_InitNoTaskWindow@VIP_VPI@@YAXXZ 
[import] 'Obj\filesystem.obj' KERNEL32.dll. _CopyFileW@12 
[import] 'Obj\vpi.obj' vip7vpi.dll. ?registerExceptionHandler@VIP_VPI@@YAXP6AXHPAG@Z@Z 
[import] 'Obj\controls.obj' VERSION.dll. _GetFileVersionInfoSizeW@8 
[import] 'Obj\controls.obj' vip7vpi.dll. ?lbox_CountAll@VIP_VPI@@YAHJ@Z 
[import] 'Obj\binary.obj' VIP7Run.dll. ?ConvertUR@RunTime@VIP@@YGNPBV?$rNumericTypeDescriptor@I@12@PBV?$rNumericTypeDescriptor@N@12@I@Z 
[import] 'Obj\controls.obj' vip7vpi.dll. ?lbox_GetAll@VIP_VPI@@YAPAUslist_struct@1@J@Z 
[import] 'Obj\vpi.obj' vip7vpi.dll. ?class_Create@VIP_VPI@@YAXPBGPAUPROLOG_EHANDLER_STRUCT@1@@Z 
[import] 'Obj\controls.obj' vip7vpi.dll. ?lbox_Delete@VIP_VPI@@YAXJH@Z 
[import] 'Obj\filesystem.obj' KERNEL32.dll. _FlushFileBuffers@4 
[import] 'Obj\controls.obj' vip7vpi.dll. ?lbox_Clear@VIP_VPI@@YAXJ@Z 
[import] 'Obj\vpi.obj' USER32.dll. _GetNextDlgTabItem@12 
[import] 'Obj\vpi.obj' vip7vpi.dll. ?dlg_MessageBox@VIP_VPI@@YAHPBG0HHHH@Z 
[import] 'Obj\filesystem.obj' VIP7Run.dll. ?addUnsigned64_prolog@RunTime@VIP@@YG_K_K0@Z 
[import] 'Obj\controls.obj' vip7vpi.dll. ?lbox_Add_0@VIP_VPI@@YAXJHPBG@Z 
[import] 'Obj\systeminformation_api.obj' Secur32.dll. GetUserNameExW 
[import] 'Obj\controls.obj' vip7vpi.dll. ?lbox_Add_2@VIP_VPI@@YAXJPBG@Z 
[import] 'Obj\systeminformation_api.obj' KERNEL32.dll. _GetSystemInfo@4 
[import] 'Obj\controls.obj' vip7vpi.dll. ?win_GetTextSelection@VIP_VPI@@YAXJPAH0@Z 
[import] 'Obj\vpitoolbar.obj' vip7vpi.dll. ?win_CreateDyn@VIP_VPI@@YAJPAUwindef_list_struct@1@JPAUPROLOG_EHANDLER_STRUCT@1@J@Z 
[import] 'Obj\vpi.obj' vip7vpi.dll. ?win_SelectText@VIP_VPI@@YAXJHH@Z 
[import] 'Obj\exception.obj' VIP7Run.dll. ?Unify@RunTime@VIP@@YGXQBVrTypeLibrary@12@PAX1@Z 
[import] 'Obj\gui.obj' vip7vpi.dll. ?win_SetScrollProportion@VIP_VPI@@YAXJHI@Z 
[import] 'Obj\vpi.obj' vip7vpi.dll. ?win_GetClientRect@VIP_VPI@@YAPAUrect_struct@1@J@Z 
[import] 'Obj\gui.obj' vip7vpi.dll. ?win_GetScrollProportion@VIP_VPI@@YAIJH@Z 
[import] 'Obj\gui.obj' vip7vpi.dll. ?win_SetFont@VIP_VPI@@YAXJPAD@Z 
[import] 'Obj\vpi.obj' vip7vpi.dll. ?setGetCustomColors@VIP_VPI@@YAXPADH@Z 
[import] 'Obj\messagecontrol.obj' VIP7Run.dll. ?Error_SingleFactHasNoValue@RunTime@VIP@@YAXQBVrTypeLibrary@12@I@Z 
[import] 'Obj\gui.obj' vip7vpi.dll. ?win_SetScrollPos@VIP_VPI@@YAXJHH@Z 
[import] 'Obj\gui.obj' USER32.dll. _SendMessageW@16 
[import] 'Obj\gui.obj' vip7vpi.dll. ?win_GetScrollPos@VIP_VPI@@YAHJH@Z 
[import] 'Obj\errorpresentationdialog.obj' vip7vpi.dll. ?dlg_MessageBox@VIP_VPI@@YAHJPBG0HHHH@Z 
[import] 'Obj\vpi.obj' vip7vpi.dll. ?dlg_ChooseFont@VIP_VPI@@YAPADPADPAPAGPAH@Z 
[import] 'Obj\multithread.obj' KERNEL32.dll. _DeleteCriticalSection@4 
[import] 'Obj\gui.obj' vip7vpi.dll. ?win_SetScrollRange@VIP_VPI@@YAXJHHH@Z 
[import] 'Obj\multithread.obj' KERNEL32.dll. _EnterCriticalSection@4 
[import] 'Obj\vpi.obj' vip7vpi.dll. ?dlg_GetOpenFileNameList@VIP_VPI@@YAPAUslist_struct@1@PBGPAU21@0I@Z 
[import] 'Obj\multithread.obj' KERNEL32.dll. _WaitForMultipleObjects@16 
[import] 'Obj\gui.obj' vip7vpi.dll. ?win_GetScrollRange@VIP_VPI@@YAXJHPAH0@Z 
[import] 'Obj\multithread.obj' KERNEL32.dll. _TerminateThread@8 
[import] 'Obj\vpi.obj' vip7vpi.dll. ?dlg_GetFileName@VIP_VPI@@YAPAGPBGPAUslist_struct@1@0PAUilist_struct@1@0PAPAU21@PAH@Z 
[import] 'Obj\multithread.obj' KERNEL32.dll. _SuspendThread@4 
[import] 'Obj\vpi.obj' vip7vpi.dll. ?dlg_Error@VIP_VPI@@YAXPBG0@Z 
[import] 'Obj\multithread.obj' KERNEL32.dll. _CreateThread@24 
[import] 'Obj\gui.obj' vip7vpi.dll. ?vpi_CreateProcess@VIP_VPI@@YAJJPAG0J@Z 
[import] 'Obj\memory.obj' VIP7Kernel.dll. ?AllocHeap@Kernel@VIP@@YGPAEI@Z 
[import] 'Obj\vpi.obj' vip7vpi.dll. ?dlg_Note@VIP_VPI@@YAXPBG0@Z 
[import] 'Obj\memory.obj' VIP7Run.dll. ?bitXor@RunTime@VIP@@YAIII@Z 
[import] 'Obj\exe_api.obj' VIP7Kernel.dll. ?MEM_alloc_listElementWithContext@Kernel@VIP@@YGPBU?$__list_struct@E@@XZ 
[import] 'Obj\multithread_api.obj' KERNEL32.dll. _CreateWaitableTimerW@12 
[import] 'Obj\gui.obj' vip7vpi.dll. ?vpi_SetErrorHandler@VIP_VPI@@YAXPAUPROLOG_ERRHANDLER_STRUCT@1@@Z 
[import] 'Obj\multithread_api.obj' KERNEL32.dll. _ReleaseMutex@4 
[import] 'Obj\gui.obj' USER32.dll. _GetDlgCtrlID@4 
[import] 'Obj\multithread_api.obj' KERNEL32.dll. _ResetEvent@4 
[import] 'Obj\systeminformation_api.obj' VIP7Run.dll. ?create@RunTime@VIP@@YAPBGI@Z 
[import] 'Obj\list.obj' VIP7Run.dll. ?AllocListElementByType@RunTime@VIP@@YGPBU?$__list_struct@E@@QBVrTypeLibrary@12@@Z 
[import] 'Obj\exception.obj' KERNEL32.dll. _FormatMessageW@28 
[import] 'Obj\outputstreamsupport.obj' VIP7Run.dll. ?format2Stream@RunTime@VIP@@YGXQAVROutputStreamImpl@12@QBGQBVrEllipsisArguments@12@@Z 
[import] 'Obj\exe.obj' VIP7Kernel.dll. ?Stkb2@Kernel@VIP@@YAXXZ 
[import] 'Obj\vpi.obj' vip7vpi.dll. ?lbox_Add_3@VIP_VPI@@YAXJPAUslist_struct@1@@Z 
[import] 'Obj\gui.obj' USER32.dll. _MapDialogRect@8 
[import] 'Obj\controls.obj' vip7vpi.dll. ?win_Check@VIP_VPI@@YAXJH@Z 
[import] 'Obj\vpi.obj' VIP7Kernel.dll. ?Run_Fail@Kernel@VIP@@YAXXZ 
[import] 'Obj\vpi.obj' vip7vpi.dll. ?win_IsChecked@VIP_VPI@@YAHJ@Z 
[import] 'Obj\exe_api.obj' VIP7Kernel.dll. ?StkTrap@Kernel@VIP@@YAXXZ 
[import] 'Obj\vpitoolbar.obj' vip7vpi.dll. ?rect_Inflate@VIP_VPI@@YAPAUrect_struct@1@PAU21@HH@Z 
[import] 'Obj\exe_api.obj' VIP7Kernel.dll. ?LocalCut2@Kernel@VIP@@YAXPAE@Z 
[import] 'Obj\exe_api.obj' KERNEL32.dll. _GetModuleFileNameW@12 
[import] 'Obj\gui.obj' USER32.dll. _AdjustWindowRect@12 
[import] 'Obj\vpitoolbar.obj' VIP7Kernel.dll. ?ErrorExit_Prolog@Kernel@VIP@@YAXXZ 
[import] 'Obj\exe_api.obj' VIP7Kernel.dll. ?VIP_ErrorExit7@Kernel@VIP@@YGXPBVtrapInfo_interface@12@@Z 
[import] 'Obj\vpieditor.obj' vip7edit.dll. ?edit_SetTabSize_0@VIP_EDIT@@YAXH@Z 
[import] 'Obj\vpi.obj' vip7vpi.dll. ?vpi_GetTaskWin@VIP_VPI@@YAJXZ 
[import] 'Obj\vpieditor.obj' vip7edit.dll. ?edit_GetColorSettings@VIP_EDIT@@YAPAUcolor_settings_struct@1@KH@Z 
[import] 'Obj\gui.obj' vip7vpi.dll. ?win_GetActiveWindow@VIP_VPI@@YAJXZ 
[import] 'Obj\inputstreamsupport.obj' VIP7Run.dll. ?consultDatabase@RunTime@VIP@@YGXQBVfactDbValue@12@QAVRInputStreamImpl@12@@Z 
[import] 'Obj\gui.obj' vip7vpi.dll. ?vpi_GetProcessWindow@VIP_VPI@@YAJJ@Z 
[import] 'Obj\inputstreamsupport.obj' VIP7Run.dll. ?ParseChar@RunTime@VIP@@YGGQAVRInputStreamImpl@12@@Z 
[import] 'Obj\gui.obj' vip7vpi.dll. ?win_EnableHook@VIP_VPI@@YAXJH@Z 
[import] 'Obj\binary.obj' VIP7Kernel.dll. ?MEM_alloc_nullfunctor@Kernel@VIP@@YGPBEI@Z 
[import] 'Obj\vpi.obj' vip7vpi.dll. ?win_GetState@VIP_VPI@@YAPAUwsflags_struct@1@J@Z 
[import] 'Obj\binary.obj' VIP7Run.dll. ?InitWrite@RunTime@VIP@@YGPAVROutputStreamImpl@12@QAVRBufferProvider@12@@Z 
[import] 'Obj\gui.obj' vip7vpi.dll. ?cursor_Get@VIP_VPI@@YAHJ@Z 
[import] 'Obj\string.obj' USER32.dll. _CharLowerW@4 
[import] 'Obj\gui.obj' vip7vpi.dll. ?cursorSet@VIP_VPI@@YAXJPAUHINSTANCE__@WindowsAPI@@HH@Z 
[import] 'Obj\string.obj' VIP7Run.dll. ?replace@RunTime@VIP@@YGPBGPBG00H_NAAI@Z 
[import] 'Obj\vpi.obj' vip7vpi.dll. ?cursor_Set@VIP_VPI@@YAXJHH@Z 
[import] 'Obj\exception.obj' VIP7Run.dll. ?write2String@RunTime@VIP@@YGQBGIIQBVrEllipsisArguments@12@@Z 
[import] 'Obj\messagecontrol.obj' vip7vpi.dll. ?menu_PopUp@VIP_VPI@@YAXJPAUmenu_struct@1@PAUpnt_struct@1@H@Z 
[import] 'Obj\vpi.obj' VIP7Kernel.dll. ?MEM_alloc_listElementWCA@Kernel@VIP@@YGPBU?$__list_struct@E@@XZ 
[import] 'Obj\gui.obj' vip7vpi.dll. ?win_GetChildWindows@VIP_VPI@@YAPAUwinlist_struct@1@J@Z 
[import] 'Obj\binary.obj' VIP7Run.dll. ?setMemory8@RunTime@VIP@@YGXPAEE@Z 
[import] 'Obj\gui.obj' vip7vpi.dll. ?win_GetListDialogs@VIP_VPI@@YAPAUwinlist_struct@1@J@Z 
[import] 'Obj\filesystem.obj' KERNEL32.dll. _GetLongPathNameW@12 
[import] 'Obj\gui.obj' vip7vpi.dll. ?win_GetClassName@VIP_VPI@@YAPAGJ@Z 
[import] 'Obj\filesystem_api.obj' KERNEL32.dll. _SetVolumeLabelW@8 
[import] 'Obj\gui.obj' vip7vpi.dll. ?win_SendEvent@VIP_VPI@@YAJJPAUevent_struct@1@H@Z 
[import] 'Obj\vpi.obj' VIP7Kernel.dll. ?OSMoveMemory@Kernel@VIP@@YAXPAXPBXI@Z 
[import] 'Obj\gui.obj' vip7vpi.dll. ?win_GetHandler@VIP_VPI@@YAPAUPROLOG_EHANDLER_STRUCT@1@J@Z 
[import] 'Obj\filesystem_api.obj' KERNEL32.dll. _SetFilePointerEx@20 
[import] 'Obj\gui.obj' vip7vpi.dll. ?win_SetSubClassHandler@VIP_VPI@@YAXJPAUPROLOG_EHANDLER_STRUCT@1@H@Z 
[import] 'Obj\time_api.obj' VIP7Run.dll. ?LoadProcAddress@RunTime@VIP@@YGP6GHXZQBGQBDPAP6GHXZ@Z 
[import] 'Obj\gui.obj' vip7vpi.dll. ?win_GetFont@VIP_VPI@@YAPADJ@Z 
[import] 'Obj\controls.obj' USER32.dll. _GetSystemMetrics@4 
[import] 'Obj\gui.obj' vip7vpi.dll. ?win_SetActiveWindow@VIP_VPI@@YAXJ@Z 
[import] 'Obj\time_api.obj' KERNEL32.dll. _SystemTimeToTzSpecificLocalTime@12 
[import] 'Obj\gui.obj' vip7vpi.dll. ?win_BringToTop@VIP_VPI@@YAXJ@Z 
[import] 'Obj\time_api.obj' KERNEL32.dll. _FileTimeToSystemTime@8 
[import] 'Obj\gui.obj' vip7vpi.dll. ?win_SetIcon@VIP_VPI@@YAXJI@Z 
[import] 'Obj\math.obj' VIP7Run.dll. ?roundToInteger@RunTime@VIP@@YGHN@Z 
[import] 'Obj\gui.obj' USER32.dll. _GetMenu@4 
[import] 'Obj\math.obj' VIP7Run.dll. ?exp@RunTime@VIP@@YANN@Z 
[import] 'Obj\gui.obj' USER32.dll. _AdjustWindowRectEx@16 
[import] 'Obj\math.obj' VIP7Run.dll. ?abs_rr@RunTime@VIP@@YANN@Z 
[import] 'Obj\exe_api.obj' VIP7Kernel.dll. ?AllocHeapWithContext@Kernel@VIP@@YGQAEIII@Z 
[import] 'Obj\vpitoolbar.obj' VIP7Run.dll. ?ConvertII@RunTime@VIP@@YGHPBV?$rNumericTypeDescriptor@H@12@0H@Z 
[import] 'Obj\vpi.obj' VIP7Run.dll. ?FirstBranchConvertObject@RunTime@VIP@@YGQBVRObject@12@QBVRInterfaceDescriptor@12@QBV312@@Z 
[import] 'Obj\filesystem.obj' SHELL32.dll. _SHBrowseForFolderW@4 
[import] 'Obj\gui.obj' USER32.dll. _ScreenToClient@8 
[import] 'Obj\filesystem.obj' KERNEL32.dll. _GetSystemDirectoryW@8 
[import] 'Obj\gui.obj' USER32.dll. _ClientToScreen@8 
[import] 'Obj\filesystem.obj' VIP7Kernel.dll. ?ReleaseHeap@Kernel@VIP@@YGXPAE@Z 
[import] 'Obj\exe.obj' KERNEL32.dll. _GetCommandLineW@0 
[import] 'Obj\programcontrol.obj' VIP7Kernel.dll. ?Run_Succeed@Kernel@VIP@@YGXXZ 
[import] 'Obj\gui.obj' USER32.dll. _MoveWindow@24 
[import] 'Obj\messagecontrol.obj' vip7edit.dll. ?edit_StatusLineShow@VIP_EDIT@@YAXJH@Z 
[import] 'Obj\exe.obj' OLE32.dll. _OleUninitialize@0 
[import] 'Obj\filesystem.obj' KERNEL32.dll. _SetFileAttributesW@8 
[import] 'Obj\gui.obj' vip7vpi.dll. ?win_SetData@VIP_VPI@@YAXJJ@Z 
[import] 'Obj\messagecontrol.obj' vip7edit.dll. ?edit_AppendStr_1@VIP_EDIT@@YAXJPBGH@Z 
[import] 'Obj\exe.obj' OLE32.dll. _OleInitialize@4 
[import] 'Obj\messagecontrol.obj' vip7edit.dll. ?edit_Copy@VIP_EDIT@@YAXJ@Z 
[import] 'Obj\gui.obj' vip7vpi.dll. ?win_GetData@VIP_VPI@@YAJJ@Z 
[import] 'Obj\filesystem.obj' KERNEL32.dll. _FindFirstFileW@8 
[import] 'Obj\vpi.obj' vip7vpi.dll. ?win_SetText@VIP_VPI@@YAXJPBG@Z 
[import] 'Obj\filesystem.obj' KERNEL32.dll. _MoveFileExW@12 
[import] 'Obj\vpi.obj' vip7vpi.dll. ?win_GetText@VIP_VPI@@YAPAGJ@Z 
[import] 'Obj\controls.obj' VERSION.dll. _VerQueryValueW@16 
[import] 'Obj\vpi.obj' vip7vpi.dll. ?win_SetHandler@VIP_VPI@@YAXJPAUPROLOG_EHANDLER_STRUCT@1@@Z 
[import] 'Obj\filesystem.obj' KERNEL32.dll. _WriteFile@20 
[import] 'Obj\exe.obj' VIP7Kernel.dll. ?GarbageCollector@Kernel@VIP@@YAXXZ 
[import] 'Obj\filesystem.obj' VIP7Run.dll. ?subUnsigned64_prolog@RunTime@VIP@@YG_K_K0@Z 
[import] 'Obj\gui.obj' vip7vpi.dll. ?menu_Check_0@VIP_VPI@@YAXJIH@Z 
[import] 'Obj\systeminformation_api.obj' ADVAPI32.dll. _GetUserNameW@8 
[import] 'Obj\gui.obj' vip7vpi.dll. ?menu_Enable_0@VIP_VPI@@YAXJIH@Z 
[import] 'Obj\gui.obj' USER32.dll. _GetWindowLongW@8 
[import] 'Obj\gui.obj' vip7vpi.dll. ?menu_Get@VIP_VPI@@YAPAUmenu_struct@1@J@Z 
[import] 'Obj\tabcontrol.obj' USER32.dll. _RegisterHotKey@16 
[import] 'Obj\gui.obj' vip7vpi.dll. ?menu_Set@VIP_VPI@@YAXJPAUmenu_struct@1@@Z 
[import] 'Obj\gui.obj' VIP7Run.dll. ?bitNot@RunTime@VIP@@YAII@Z 
[import] 'Obj\gui.obj' vip7vpi.dll. ?menu_SetText_0@VIP_VPI@@YAXJIPBG@Z 
[import] 'Obj\memory.obj' VIP7Kernel.dll. ?SetTrapTop@Kernel@VIP@@YGXPAVTBackTrackBlock@12@@Z 
[import] 'Obj\gui.obj' vip7vpi.dll. ?menu_Update@VIP_VPI@@YAXJ@Z 
[import] 'Obj\multithread.obj' KERNEL32.dll. _InitializeCriticalSection@4 
[import] 'Obj\gui.obj' vip7vpi.dll. ?vpi_ArrangeMDIIcons@VIP_VPI@@YAXXZ 
[import] 'Obj\multithread.obj' KERNEL32.dll. _GetExitCodeThread@8 
[import] 'Obj\gui.obj' vip7vpi.dll. ?vpi_MoveMDIWindowsCascade@VIP_VPI@@YAXPAUilist_struct@1@@Z 
[import] 'Obj\memory.obj' KERNEL32.dll. _IsBadWritePtr@8 
[import] 'Obj\exe_api.obj' OLE32.dll. _CoUninitialize@0 
[import] 'Obj\multithread_api.obj' KERNEL32.dll. _SetWaitableTimer@24 
[import] 'Obj\exe_api.obj' OLE32.dll. _CoInitializeEx@8 
[import] 'Obj\multithread_api.obj' KERNEL32.dll. _CreateMutexW@12 
[import] 'Obj\gui.obj' vip7vpi.dll. ?vpi_MoveMDIWindowsTile@VIP_VPI@@YAXPAUilist_struct@1@@Z 
[import] 'Obj\exception.obj' KERNEL32.dll. _GetCurrentThreadId@0 
[import] 'Obj\gui.obj' vip7vpi.dll. ?draw_Arc@VIP_VPI@@YAXJPAUrect_struct@1@HHHH@Z 
[import] 'Obj\vpi.obj' vip7vpi.dll. ?lbox_SetSel@VIP_VPI@@YAXJHH@Z 
[import] 'Obj\gui.obj' vip7vpi.dll. ?draw_Ellipse@VIP_VPI@@YAXJPAUrect_struct@1@@Z 
[import] 'Obj\gui.obj' vip7vpi.dll. ?win_SetPen@VIP_VPI@@YAXJPAUpen_struct@1@@Z 
[import] 'Obj\gui.obj' vip7vpi.dll. ?draw_FloodFill@VIP_VPI@@YAXJPAUpnt_struct@1@J@Z 
[import] 'Obj\exception.obj' KERNEL32.dll. _VirtualQuery@12 
[import] 'Obj\gui.obj' vip7vpi.dll. ?draw_Icon@VIP_VPI@@YAXJHHI@Z 
[import] 'Obj\vpieditor.obj' vip7edit.dll. ?edit_IndentSize_1@VIP_EDIT@@YAXPAH@Z 
[import] 'Obj\gui.obj' vip7vpi.dll. ?draw_Pie@VIP_VPI@@YAXJPAUrect_struct@1@HHHH@Z 
[import] 'Obj\inputstreamsupport.obj' VIP7Run.dll. ?ParseLine@RunTime@VIP@@YGPBGQAVRInputStreamImpl@12@@Z 
[import] 'Obj\gui.obj' vip7vpi.dll. ?draw_Pixel@VIP_VPI@@YAXJPAUpnt_struct@1@J@Z 
[import] 'Obj\filesystem.obj' VIP7Run.dll. ?UniversalNumericConvert8_prolog@RunTime@VIP@@YGXPBVrNumericTypeDescriptor_common@12@0_JPAX@Z 
[import] 'Obj\gui.obj' vip7vpi.dll. ?draw_Polygon@VIP_VPI@@YAXJPAUpntlist_struct@1@@Z 
[import] 'Obj\filesystem.obj' VIP7Run.dll. ?searchBack@RunTime@VIP@@YG_NPBG0QAI@Z 
[import] 'Obj\gui.obj' USER32.dll. _DrawFocusRect@8 
[import] 'Obj\string.obj' KERNEL32.dll. _CompareStringW@24 
[import] 'Obj\gui.obj' vip7vpi.dll. ?draw_RoundRect@VIP_VPI@@YAXJPAUrect_struct@1@HH@Z 
[import] 'Obj\filesystem.obj' KERNEL32.dll. _FindClose@4 
[import] 'Obj\vpi.obj' vip7vpi.dll. ?draw_Text@VIP_VPI@@YAXJHHPBGH@Z 
[import] 'Obj\filesystem_api.obj' KERNEL32.dll. _CreateDirectoryW@8 
[import] 'Obj\vpi.obj' vip7vpi.dll. ?draw_TextInRect@VIP_VPI@@YAXJPAUrect_struct@1@PBGHPAUilist_struct@1@@Z 
[import] 'Obj\filesystem_api.obj' KERNEL32.dll. _GetFileSize@8 
[import] 'Obj\gui.obj' vip7vpi.dll. ?win_GetPixel@VIP_VPI@@YAJJPAUpnt_struct@1@@Z 
[import] 'Obj\time_api.obj' KERNEL32.dll. _GetTimeFormatW@24 
[import] 'Obj\gui.obj' vip7vpi.dll. ?win_ReleaseNativeGraphicContext@VIP_VPI@@YAXJJH@Z 
[import] 'Obj\exceptiondump.obj' USER32.dll. _MessageBoxW@16 
[import] 'Obj\gui.obj' vip7vpi.dll. ?win_SetDrawMode@VIP_VPI@@YAXJH@Z 
[import] 'Obj\math.obj' VIP7Run.dll. ?sqrt@RunTime@VIP@@YANN@Z 
[import] 'Obj\gui.obj' vip7vpi.dll. ?win_GetDrawMode@VIP_VPI@@YAHJ@Z 
[import] 'Obj\filesystem.obj' OLE32.dll. _CoTaskMemFree@4 
[import] 'Obj\gui.obj' vip7vpi.dll. ?win_GetBrush@VIP_VPI@@YAPAUbrush_struct@1@J@Z 
[import] 'Obj\filesystem.obj' KERNEL32.dll. _GetDriveTypeW@4 
[import] 'Obj\gui.obj' vip7vpi.dll. ?win_GetPen@VIP_VPI@@YAPAUpen_struct@1@J@Z 
[import] 'Obj\programcontrol.obj' VIP7Kernel.dll. ?SetPrologExceptionPredicate@Kernel@VIP@@YGXQBVRPrologExceptionPredicateStruct@12@PAPAV312@@Z 
[import] 'Obj\gui.obj' vip7vpi.dll. ?win_GetDrawTools@VIP_VPI@@YAPAUdrawtools_struct@1@J@Z 
[import] 'Obj\filesystem.obj' KERNEL32.dll. _GetShortPathNameW@12 
[import] 'Obj\vpi.obj' vip7vpi.dll. ?win_GetTextExtent@VIP_VPI@@YAXJPBGHPAH1@Z 
[import] 'Obj\messagecontrol.obj' vip7edit.dll. ?edit_SearchAgain@VIP_EDIT@@YAXJ@Z 
[import] 'Obj\gui.obj' vip7vpi.dll. ?win_SetMapScale@VIP_VPI@@YAXJPAUpnt_struct@1@000@Z 
[import] 'Obj\controls.obj' VERSION.dll. _GetFileVersionInfoW@16 
[import] 'Obj\gui.obj' vip7vpi.dll. ?win_GetMapScale@VIP_VPI@@YAXJPAPAUpnt_struct@1@000@Z 
[import] 'Obj\filesystem.obj' VIP7Run.dll. ?uint64rem_prolog@RunTime@VIP@@YG_K_K0@Z 
[import] 'Obj\gui.obj' vip7vpi.dll. ?win_SetMapMode@VIP_VPI@@YAXJH@Z 
[import] 'Obj\systeminformation_api.obj' KERNEL32.dll. _GetVersionExW@4 
[import] 'Obj\gui.obj' vip7vpi.dll. ?win_GetMapMode@VIP_VPI@@YAHJ@Z 
[import] 'Obj\vpi.obj' vip7vpi.dll. ?win_SendEvent@VIP_VPI@@YAJJPAUevent_struct@1@@Z 
[import] 'Obj\gui.obj' vip7vpi.dll. ?caret_Off@VIP_VPI@@YAXJ@Z 
[import] 'Obj\multithread.obj' KERNEL32.dll. _LeaveCriticalSection@4 
[import] 'Obj\gui.obj' vip7vpi.dll. ?caret_Size@VIP_VPI@@YAXJHH@Z 
[import] 'Obj\multithread.obj' KERNEL32.dll. _SetThreadPriority@8 
[import] 'Obj\gui.obj' USER32.dll. _GetScrollInfo@12 
[import] 'Obj\multithread_api.obj' KERNEL32.dll. _OpenSemaphoreW@12 
[import] 'Obj\gui.obj' USER32.dll. _GetScrollBarInfo@12 
[import] 'Obj\vpi.obj' vip7vpi.dll. ?win_CreateDynDialog@VIP_VPI@@YAJJPAUwindef_list_struct@1@PAUPROLOG_EHANDLER_STRUCT@1@J@Z 
[import] 'Obj\gui.obj' USER32.dll. _ScrollWindowEx@32 
[import] 'Obj\exception.obj' VIP7Kernel.dll. ?GetLineFromAddrProlog@Kernel@VIP@@YGXPBXPAIPAPBG@Z 
[import] 'Obj\gui.obj' vip7vpi.dll. ?win_Scroll@VIP_VPI@@YAXJPAUrect_struct@1@HH@Z 
[import] 'Obj\inputstreamsupport.obj' VIP7Run.dll. ?ParseString@RunTime@VIP@@YGPBGQAVRInputStreamImpl@12@I@Z 
[import] 'Obj\gui.obj' vip7vpi.dll. ?win_DPtoLP@VIP_VPI@@YAPAUpntlist_struct@1@JPAU21@@Z 
[import] 'Obj\exe.obj' VIP7Run.dll. ?trimFront@RunTime@VIP@@YAPBGPBG@Z 
[import] 'Obj\gui.obj' vip7vpi.dll. ?win_LPtoDP@VIP_VPI@@YAPAUpntlist_struct@1@JPAU21@@Z 
[import] 'Obj\string.obj' VIP7Run.dll. ?create@RunTime@VIP@@YGPBGIPBG@Z 
[import] 'Obj\gui.obj' vip7vpi.dll. ?win_SetClip@VIP_VPI@@YAXJPAUrect_struct@1@@Z 
[import] 'Obj\filesystem_api.obj' KERNEL32.dll. _GetVolumeInformationW@32 
[import] 'Obj\gui.obj' vip7vpi.dll. ?win_GetClip@VIP_VPI@@YAPAUrect_struct@1@J@Z 
[import] 'Obj\time_api.obj' KERNEL32.dll. _LocalFileTimeToFileTime@8 
[import] 'Obj\gui.obj' vip7vpi.dll. ?win_GetInvalidRect@VIP_VPI@@YAPAUrect_struct@1@J@Z 
[import] 'Obj\vpi.obj' USER32.dll. _GetWindowPlacement@8 
[import] 'Obj\taskwindow.obj' VIP7Run.dll. ?ConvertObject@RunTime@VIP@@YGQBVRObject@12@QBVRInterfaceDescriptor@12@QBV312@@Z 
[import] 'Obj\filesystem.obj' SHELL32.dll. _SHFileOperationW@4 
[import] 'Obj\exception.obj' VIP7Run.dll. ?AllocateObject@RunTime@VIP@@YGPAEQBVRObjectClassDescriptorInfo@12@PAP6GXPAX@Z@Z 
[import] 'Obj\filesystem.obj' KERNEL32.dll. _FindNextFileW@8 
[import] '.\ReleasePE\VIPMain.obj' KERNEL32.dll. __imp__ExitProcess@4 
[import] 'Obj\filesystem.obj' VIP7Run.dll. ?InitInputParser@RunTime@VIP@@YGPAVRInputStreamImpl@12@QAVRROBufferProvider@12@@Z 
[import] '.\ReleasePE\VIPMain.obj' VIP7Kernel.dll. __imp_?ExeTermination@Kernel@VIP@@YAXH@Z 
[import] 'Obj\vpi.obj' USER32.dll. _GetFocus@0 
[import] '.\ReleasePE\VIPDll.obj' VIP7Kernel.dll. __imp_?KernelUnitTermination@Kernel@VIP@@YAXPAX@Z 
[import] 'Obj\multithread.obj' KERNEL32.dll. _WaitForSingleObject@8 
[import] '.\ReleasePE\VIPDll.obj' VIP7Run.dll. __imp_?RunUnitTermination@RunTime@VIP@@YGXPAX@Z 
[import] 'Obj\multithread_api.obj' KERNEL32.dll. _OpenEventW@12 
[import] '.\ReleasePE\VIPDll.obj' VIP7Kernel.dll. __imp_?RunGoal@Kernel@VIP@@YGIQ6AIXZ@Z 
[import] 'Obj\vpieditor.obj' vip7edit.dll. ?edit_SetSearchOptions@VIP_EDIT@@YAXHHH@Z 
[import] '.\ReleasePE\VIPMain.obj' VIP7Kernel.dll. __imp_?ExeInitialization@Kernel@VIP@@YAHXZ 
[import] 'Obj\string.obj' KERNEL32.dll. _IsBadStringPtrW@8 
[import] '.\ReleasePE\VIPDll.obj' VIP7Run.dll. __imp_?InitializationDictionaries@RunTime@VIP@@YGHPBVdicofdic@12@@Z 
[import] 'Obj\runtime_api.obj' KERNEL32.dll. _GetProcAddress@8 
[import] '.\ReleasePE\VIPDll.obj' VIP7Run.dll. __imp_?RunUnitInitialization@RunTime@VIP@@YGHPAX@Z 
[import] 'Obj\filesystem.obj' KERNEL32.dll. _GetWindowsDirectoryW@8 
[import] '.\ReleasePE\VIPMain.obj' VIP7Kernel.dll. __imp_?KernelUnitInitialization@Kernel@VIP@@YGHPAX@Z 
[import] 'Obj\vpi.obj' vip7vpi.dll. ?rect_GetClient@VIP_VPI@@YAPAUrect_struct@1@PAUwsflags_struct@1@HPAU21@@Z 
[import] 'Obj\gui.obj' vip7vpi.dll. ?win_NeedsUpdate@VIP_VPI@@YAXJPAUrect_struct@1@@Z 
[import] 'Obj\vpi.obj' vip7vpi.dll. ?winCreateDynControl@VIP_VPI@@YAJPAUwindef_list_struct@1@JH@Z 
[import] 'Obj\gui.obj' vip7vpi.dll. ?win_ValidateRect@VIP_VPI@@YAXJPAUrect_struct@1@@Z 
[import] 'Obj\exception.obj' VIP7Kernel.dll. ?VIP_ErrorExitCreate@Kernel@VIP@@YGPAVtrapInfo_interface@12@I@Z 
[import] 'Obj\gui.obj' vip7vpi.dll. ?win_Update@VIP_VPI@@YAXJ@Z 
[import] 'Obj\filesystem_api.obj' KERNEL32.dll. _GetCurrentDirectoryW@8 
[import] 'Obj\gui.obj' vip7vpi.dll. ?tryGetWindowObject@VIP_VPI@@YAPAXJ@Z 
[import] 'Obj\memory.obj' VIP7Kernel.dll. ?AllocUncollectableHeap@Kernel@VIP@@YGPAEI@Z 
[import] 'Obj\string8.obj' KERNEL32.dll. _IsBadStringPtrA@8 
[import] 'Obj\math.obj' VIP7Run.dll. ?ln@RunTime@VIP@@YANN@Z 
[import] 'Obj\filesystem.obj' KERNEL32.dll. _ReadFile@20 
[import] '.\ReleasePE\VIPDll.obj' VIP7Kernel.dll. __imp_?KernelUnitInitialization2@Kernel@VIP@@YGHPAX_N@Z 
[import] '.\ReleasePE\VIPPE.obj' USER32.dll. __imp__MessageBoxA@16 
[import] 'Obj\gui.obj' vip7vpi.dll. ?vpi_GetBaseUnits@VIP_VPI@@YAXPAH0@Z 
[import] 'Obj\messagecontrol.obj' vip7edit.dll. ?edit_PasteStr_1@VIP_EDIT@@YAXJPBG@Z 
--- Total Names =  5799 --------
--- Total Cnt   =  5799 --------
--------------------------------

